---
triple:          'arm64-apple-darwin'
binary-path:     '/Users/matteokinkela/Documents/advent-of-code/2023/day-15/solution'
relocations:
  - { offsetInCU: 0x102D6, offset: 0x102D6, size: 0x8, addend: 0x0, symName: __ZNSt3__17advanceB7v160006IPNS_12basic_stringIcNS_11char_traitsIcEENS_9allocatorIcEEEEllvEEvRT_T0_, symObjAddr: 0x32BC, symBinAddr: 0x100004A60, symSize: 0x50 }
  - { offsetInCU: 0x10556, offset: 0x10556, size: 0x8, addend: 0x0, symName: __ZNSt3__17advanceB7v160006INS_16reverse_iteratorIPNS_12basic_stringIcNS_11char_traitsIcEENS_9allocatorIcEEEEEEllvEEvRT_T0_, symObjAddr: 0x372C, symBinAddr: 0x100004ED0, symSize: 0x50 }
  - { offsetInCU: 0x13236, offset: 0x13236, size: 0x8, addend: 0x0, symName: __ZNSt3__17advanceB7v160006IP4LensllvEEvRT_T0_, symObjAddr: 0x8958, symBinAddr: 0x10000A0FC, symSize: 0x50 }
  - { offsetInCU: 0x134B6, offset: 0x134B6, size: 0x8, addend: 0x0, symName: __ZNSt3__17advanceB7v160006INS_16reverse_iteratorIP4LensEEllvEEvRT_T0_, symObjAddr: 0x8D44, symBinAddr: 0x10000A4E8, symSize: 0x50 }
  - { offsetInCU: 0x13521, offset: 0x13521, size: 0x8, addend: 0x0, symName: __ZNSt3__124__put_character_sequenceB7v160006IcNS_11char_traitsIcEEEERNS_13basic_ostreamIT_T0_EES7_PKS4_m, symObjAddr: 0x90CC, symBinAddr: 0x10000A870, symSize: 0x1EC }
  - { offsetInCU: 0x14598, offset: 0x14598, size: 0x8, addend: 0x0, symName: __ZNSt3__1lsB7v160006INS_11char_traitsIcEEEERNS_13basic_ostreamIcT_EES6_PKc, symObjAddr: 0x7B0, symBinAddr: 0x100001F54, symSize: 0x48 }
  - { offsetInCU: 0x145DE, offset: 0x145DE, size: 0x8, addend: 0x0, symName: __ZNSt3__14endlB7v160006IcNS_11char_traitsIcEEEERNS_13basic_ostreamIT_T0_EES7_, symObjAddr: 0x938, symBinAddr: 0x1000020DC, symSize: 0x58 }
  - { offsetInCU: 0x1461E, offset: 0x1461E, size: 0x8, addend: 0x0, symName: __ZNSt3__119__debug_db_insert_cB7v160006INS_12basic_stringIcNS_11char_traitsIcEENS_9allocatorIcEEEEEEvPT_, symObjAddr: 0x11D8, symBinAddr: 0x10000297C, symSize: 0x10 }
  - { offsetInCU: 0x1464F, offset: 0x1464F, size: 0x8, addend: 0x0, symName: __ZNSt3__119__debug_db_insert_cB7v160006INS_6vectorINS_12basic_stringIcNS_11char_traitsIcEENS_9allocatorIcEEEENS5_IS7_EEEEEEvPT_, symObjAddr: 0x13B0, symBinAddr: 0x100002B54, symSize: 0x10 }
  - { offsetInCU: 0x14680, offset: 0x14680, size: 0x8, addend: 0x0, symName: __ZNSt3__110__str_findB7v160006IcmNS_11char_traitsIcEELm18446744073709551615EEET0_PKT_S3_S6_S3_S3_, symObjAddr: 0x1488, symBinAddr: 0x100002C2C, symSize: 0xE4 }
  - { offsetInCU: 0x14727, offset: 0x14727, size: 0x8, addend: 0x0, symName: __ZNSt3__118__search_substringB7v160006IcNS_11char_traitsIcEEEEPKT_S5_S5_S5_S5_, symObjAddr: 0x1594, symBinAddr: 0x100002D38, symSize: 0x154 }
  - { offsetInCU: 0x147C1, offset: 0x147C1, size: 0x8, addend: 0x0, symName: __ZNSt3__123__constexpr_char_memchrB7v160006EPKcim, symObjAddr: 0x17C4, symBinAddr: 0x100002F68, symSize: 0x34 }
  - { offsetInCU: 0x14809, offset: 0x14809, size: 0x8, addend: 0x0, symName: __ZNSt3__118__constexpr_memcmpB7v160006IcEEiPKT_S3_m, symObjAddr: 0x17F8, symBinAddr: 0x100002F9C, symSize: 0x34 }
  - { offsetInCU: 0x1485A, offset: 0x1485A, size: 0x8, addend: 0x0, symName: __ZNSt3__112__to_addressB7v160006IKcEEPT_S3_, symObjAddr: 0x182C, symBinAddr: 0x100002FD0, symSize: 0x14 }
  - { offsetInCU: 0x148C2, offset: 0x148C2, size: 0x8, addend: 0x0, symName: __ZNSt3__119__libcpp_deallocateB7v160006EPvmm, symObjAddr: 0x1BCC, symBinAddr: 0x100003370, symSize: 0x60 }
  - { offsetInCU: 0x14927, offset: 0x14927, size: 0x8, addend: 0x0, symName: __ZNSt3__124__is_overaligned_for_newB7v160006Em, symObjAddr: 0x1C2C, symBinAddr: 0x1000033D0, symSize: 0x20 }
  - { offsetInCU: 0x14955, offset: 0x14955, size: 0x8, addend: 0x0, symName: __ZNSt3__127__do_deallocate_handle_sizeB7v160006IJSt11align_val_tEEEvPvmDpT_, symObjAddr: 0x1C4C, symBinAddr: 0x1000033F0, symSize: 0x30 }
  - { offsetInCU: 0x149A8, offset: 0x149A8, size: 0x8, addend: 0x0, symName: __ZNSt3__127__do_deallocate_handle_sizeB7v160006IJEEEvPvmDpT_, symObjAddr: 0x1C7C, symBinAddr: 0x100003420, symSize: 0x28 }
  - { offsetInCU: 0x149E6, offset: 0x149E6, size: 0x8, addend: 0x0, symName: __ZNSt3__124__libcpp_operator_deleteB7v160006IJPvSt11align_val_tEEEvDpT_, symObjAddr: 0x1CA4, symBinAddr: 0x100003448, symSize: 0x2C }
  - { offsetInCU: 0x14A2F, offset: 0x14A2F, size: 0x8, addend: 0x0, symName: __ZNSt3__124__libcpp_operator_deleteB7v160006IJPvEEEvDpT_, symObjAddr: 0x1CD0, symBinAddr: 0x100003474, symSize: 0x24 }
  - { offsetInCU: 0x14A64, offset: 0x14A64, size: 0x8, addend: 0x0, symName: __ZNSt3__112__to_addressB7v160006INS_12basic_stringIcNS_11char_traitsIcEENS_9allocatorIcEEEEEEPT_S8_, symObjAddr: 0x1FD4, symBinAddr: 0x100003778, symSize: 0x14 }
  - { offsetInCU: 0x14ABE, offset: 0x14ABE, size: 0x8, addend: 0x0, symName: __ZNSt3__112construct_atB7v160006INS_12basic_stringIcNS_11char_traitsIcEENS_9allocatorIcEEEEJRKS6_EPS6_EEPT_SB_DpOT0_, symObjAddr: 0x2060, symBinAddr: 0x100003804, symSize: 0x3C }
  - { offsetInCU: 0x14B2E, offset: 0x14B2E, size: 0x8, addend: 0x0, symName: __ZNSt3__13maxB7v160006ImEERKT_S3_S3_, symObjAddr: 0x2414, symBinAddr: 0x100003BB8, symSize: 0x2C }
  - { offsetInCU: 0x14B71, offset: 0x14B71, size: 0x8, addend: 0x0, symName: __ZNSt3__13minB7v160006ImEERKT_S3_S3_, symObjAddr: 0x2440, symBinAddr: 0x100003BE4, symSize: 0x2C }
  - { offsetInCU: 0x14D9E, offset: 0x14D9E, size: 0x8, addend: 0x0, symName: __ZNSt3__13minB7v160006ImNS_6__lessImmEEEERKT_S5_S5_T0_, symObjAddr: 0x24D0, symBinAddr: 0x100003C74, symSize: 0x54 }
  - { offsetInCU: 0x1501F, offset: 0x1501F, size: 0x8, addend: 0x0, symName: __ZNSt3__120__throw_length_errorB7v160006EPKc, symObjAddr: 0x25B4, symBinAddr: 0x100003D58, symSize: 0x64 }
  - { offsetInCU: 0x15047, offset: 0x15047, size: 0x8, addend: 0x0, symName: __ZNSt3__13maxB7v160006ImNS_6__lessImmEEEERKT_S5_S5_T0_, symObjAddr: 0x26F8, symBinAddr: 0x100003E9C, symSize: 0x54 }
  - { offsetInCU: 0x150A1, offset: 0x150A1, size: 0x8, addend: 0x0, symName: __ZNSt3__119__allocate_at_leastB7v160006INS_9allocatorINS_12basic_stringIcNS_11char_traitsIcEENS1_IcEEEEEEEENS_19__allocation_resultINS_16allocator_traitsIT_E7pointerEEERSA_m, symObjAddr: 0x2868, symBinAddr: 0x10000400C, symSize: 0x40 }
  - { offsetInCU: 0x150E4, offset: 0x150E4, size: 0x8, addend: 0x0, symName: __ZNSt3__117__libcpp_allocateB7v160006Emm, symObjAddr: 0x29F0, symBinAddr: 0x100004194, symSize: 0x60 }
  - { offsetInCU: 0x1513E, offset: 0x1513E, size: 0x8, addend: 0x0, symName: __ZNSt3__121__libcpp_operator_newB7v160006IJmSt11align_val_tEEEPvDpT_, symObjAddr: 0x2A50, symBinAddr: 0x1000041F4, symSize: 0x2C }
  - { offsetInCU: 0x1518B, offset: 0x1518B, size: 0x8, addend: 0x0, symName: __ZNSt3__121__libcpp_operator_newB7v160006IJmEEEPvDpT_, symObjAddr: 0x2A7C, symBinAddr: 0x100004220, symSize: 0x24 }
  - { offsetInCU: 0x151C4, offset: 0x151C4, size: 0x8, addend: 0x0, symName: __ZNSt3__142__uninitialized_allocator_move_if_noexceptB7v160006INS_9allocatorINS_12basic_stringIcNS_11char_traitsIcEENS1_IcEEEEEENS_16reverse_iteratorIPS6_EESA_SA_EET2_RT_T0_T1_SB_, symObjAddr: 0x2BD8, symBinAddr: 0x10000437C, symSize: 0x12C }
  - { offsetInCU: 0x15264, offset: 0x15264, size: 0x8, addend: 0x0, symName: __ZNSt3__14swapB7v160006IPNS_12basic_stringIcNS_11char_traitsIcEENS_9allocatorIcEEEEEENS_9enable_ifIXaasr21is_move_constructibleIT_EE5valuesr18is_move_assignableIS9_EE5valueEvE4typeERS9_SC_, symObjAddr: 0x2D50, symBinAddr: 0x1000044F4, symSize: 0x3C }
  - { offsetInCU: 0x152B5, offset: 0x152B5, size: 0x8, addend: 0x0, symName: __ZNSt3__125__debug_db_invalidate_allB7v160006INS_6vectorINS_12basic_stringIcNS_11char_traitsIcEENS_9allocatorIcEEEENS5_IS7_EEEEEEvPT_, symObjAddr: 0x2E54, symBinAddr: 0x1000045F8, symSize: 0x10 }
  - { offsetInCU: 0x152E6, offset: 0x152E6, size: 0x8, addend: 0x0, symName: __ZNSt3__122__make_exception_guardB7v160006INS_29_AllocatorDestroyRangeReverseINS_9allocatorINS_12basic_stringIcNS_11char_traitsIcEENS2_IcEEEEEENS_16reverse_iteratorIPS7_EEEEEENS_28__exception_guard_exceptionsIT_EESE_, symObjAddr: 0x2EAC, symBinAddr: 0x100004650, symSize: 0x4C }
  - { offsetInCU: 0x1531C, offset: 0x1531C, size: 0x8, addend: 0x0, symName: __ZNSt3__1neB7v160006IPNS_12basic_stringIcNS_11char_traitsIcEENS_9allocatorIcEEEES7_EEbRKNS_16reverse_iteratorIT_EERKNS8_IT0_EE, symObjAddr: 0x2F3C, symBinAddr: 0x1000046E0, symSize: 0x48 }
  - { offsetInCU: 0x15368, offset: 0x15368, size: 0x8, addend: 0x0, symName: __ZNSt3__112__to_addressB7v160006INS_16reverse_iteratorIPNS_12basic_stringIcNS_11char_traitsIcEENS_9allocatorIcEEEEEEvEENS_5decayIDTclsr19__to_address_helperIT_EE6__callclsr3stdE7declvalIRKSB_EEEEE4typeESD_, symObjAddr: 0x2FB4, symBinAddr: 0x100004758, symSize: 0x24 }
  - { offsetInCU: 0x1539E, offset: 0x1539E, size: 0x8, addend: 0x0, symName: __ZNSt3__112construct_atB7v160006INS_12basic_stringIcNS_11char_traitsIcEENS_9allocatorIcEEEEJS6_EPS6_EEPT_S9_DpOT0_, symObjAddr: 0x3104, symBinAddr: 0x1000048A8, symSize: 0x3C }
  - { offsetInCU: 0x1540E, offset: 0x1540E, size: 0x8, addend: 0x0, symName: __ZNSt3__115__debug_db_swapB7v160006INS_12basic_stringIcNS_11char_traitsIcEENS_9allocatorIcEEEEEEvPT_S8_, symObjAddr: 0x31F4, symBinAddr: 0x100004998, symSize: 0x14 }
  - { offsetInCU: 0x15476, offset: 0x15476, size: 0x8, addend: 0x0, symName: __ZNSt3__14prevB7v160006IPNS_12basic_stringIcNS_11char_traitsIcEENS_9allocatorIcEEEEEENS_9enable_ifIXsr25__is_cpp17_input_iteratorIT_EE5valueES9_E4typeES9_NS_15iterator_traitsIS9_E15difference_typeE, symObjAddr: 0x326C, symBinAddr: 0x100004A10, symSize: 0x50 }
  - { offsetInCU: 0x154B9, offset: 0x154B9, size: 0x8, addend: 0x0, symName: __ZNSt3__121__convert_to_integralB7v160006El, symObjAddr: 0x330C, symBinAddr: 0x100004AB0, symSize: 0x14 }
  - { offsetInCU: 0x154E5, offset: 0x154E5, size: 0x8, addend: 0x0, symName: __ZNSt3__19__advanceB7v160006IPNS_12basic_stringIcNS_11char_traitsIcEENS_9allocatorIcEEEEEEvRT_NS_15iterator_traitsIS8_E15difference_typeENS_26random_access_iterator_tagE, symObjAddr: 0x3320, symBinAddr: 0x100004AC4, symSize: 0x30 }
  - { offsetInCU: 0x1552E, offset: 0x1552E, size: 0x8, addend: 0x0, symName: __ZNSt3__119__allocator_destroyB7v160006INS_9allocatorINS_12basic_stringIcNS_11char_traitsIcEENS1_IcEEEEEENS_16reverse_iteratorINS8_IPS6_EEEESB_EEvRT_T0_T1_, symObjAddr: 0x3454, symBinAddr: 0x100004BF8, symSize: 0x70 }
  - { offsetInCU: 0x15593, offset: 0x15593, size: 0x8, addend: 0x0, symName: __ZNSt3__1neB7v160006INS_16reverse_iteratorIPNS_12basic_stringIcNS_11char_traitsIcEENS_9allocatorIcEEEEEES9_EEbRKNS1_IT_EERKNS1_IT0_EE, symObjAddr: 0x3500, symBinAddr: 0x100004CA4, symSize: 0x60 }
  - { offsetInCU: 0x155DF, offset: 0x155DF, size: 0x8, addend: 0x0, symName: __ZNSt3__112__to_addressB7v160006INS_16reverse_iteratorINS1_IPNS_12basic_stringIcNS_11char_traitsIcEENS_9allocatorIcEEEEEEEEvEENS_5decayIDTclsr19__to_address_helperIT_EE6__callclsr3stdE7declvalIRKSC_EEEEE4typeESE_, symObjAddr: 0x3588, symBinAddr: 0x100004D2C, symSize: 0x24 }
  - { offsetInCU: 0x15615, offset: 0x15615, size: 0x8, addend: 0x0, symName: __ZNSt3__110destroy_atB7v160006INS_12basic_stringIcNS_11char_traitsIcEENS_9allocatorIcEEEELi0EEEvPT_, symObjAddr: 0x3600, symBinAddr: 0x100004DA4, symSize: 0x24 }
  - { offsetInCU: 0x1564C, offset: 0x1564C, size: 0x8, addend: 0x0, symName: __ZNSt3__112__destroy_atB7v160006INS_12basic_stringIcNS_11char_traitsIcEENS_9allocatorIcEEEELi0EEEvPT_, symObjAddr: 0x3624, symBinAddr: 0x100004DC8, symSize: 0x24 }
  - { offsetInCU: 0x156AC, offset: 0x156AC, size: 0x8, addend: 0x0, symName: __ZNSt3__14prevB7v160006INS_16reverse_iteratorIPNS_12basic_stringIcNS_11char_traitsIcEENS_9allocatorIcEEEEEEEENS_9enable_ifIXsr25__is_cpp17_input_iteratorIT_EE5valueESB_E4typeESB_NS_15iterator_traitsISB_E15difference_typeE, symObjAddr: 0x36CC, symBinAddr: 0x100004E70, symSize: 0x60 }
  - { offsetInCU: 0x156EF, offset: 0x156EF, size: 0x8, addend: 0x0, symName: __ZNSt3__19__advanceB7v160006INS_16reverse_iteratorIPNS_12basic_stringIcNS_11char_traitsIcEENS_9allocatorIcEEEEEEEEvRT_NS_15iterator_traitsISA_E15difference_typeENS_26random_access_iterator_tagE, symObjAddr: 0x377C, symBinAddr: 0x100004F20, symSize: 0x2C }
  - { offsetInCU: 0x15738, offset: 0x15738, size: 0x8, addend: 0x0, symName: __ZNSt3__118__debug_db_erase_cB7v160006INS_6vectorINS_12basic_stringIcNS_11char_traitsIcEENS_9allocatorIcEEEENS5_IS7_EEEEEEvPT_, symObjAddr: 0x3D4C, symBinAddr: 0x1000054F0, symSize: 0x10 }
  - { offsetInCU: 0x15769, offset: 0x15769, size: 0x8, addend: 0x0, symName: __ZNSt3__118__constexpr_strlenB7v160006EPKc, symObjAddr: 0x3EA4, symBinAddr: 0x100005648, symSize: 0x24 }
  - { offsetInCU: 0x15795, offset: 0x15795, size: 0x8, addend: 0x0, symName: __ZNSt3__17getlineB7v160006IcNS_11char_traitsIcEENS_9allocatorIcEEEERNS_13basic_istreamIT_T0_EES9_RNS_12basic_stringIS6_S7_T1_EE, symObjAddr: 0x461C, symBinAddr: 0x100005DC0, symSize: 0x5C }
  - { offsetInCU: 0x157ED, offset: 0x157ED, size: 0x8, addend: 0x0, symName: __ZNSt3__17getlineB7v160006IcNS_11char_traitsIcEENS_9allocatorIcEEEERNS_13basic_istreamIT_T0_EES9_RNS_12basic_stringIS6_S7_T1_EES6_, symObjAddr: 0x46AC, symBinAddr: 0x100005E50, symSize: 0x238 }
  - { offsetInCU: 0x158AB, offset: 0x158AB, size: 0x8, addend: 0x0, symName: __ZNSt3__125__debug_db_invalidate_allB7v160006INS_12basic_stringIcNS_11char_traitsIcEENS_9allocatorIcEEEEEEvPT_, symObjAddr: 0x4C44, symBinAddr: 0x1000063E8, symSize: 0x10 }
  - { offsetInCU: 0x158DC, offset: 0x158DC, size: 0x8, addend: 0x0, symName: __ZNSt3__19use_facetB7v160006INS_5ctypeIcEEEERKT_RKNS_6localeE, symObjAddr: 0x4D54, symBinAddr: 0x1000064F8, symSize: 0x2C }
  - { offsetInCU: 0x15DAB, offset: 0x15DAB, size: 0x8, addend: 0x0, symName: __ZNSt3__115__debug_db_swapB7v160006INS_6vectorINS_12basic_stringIcNS_11char_traitsIcEENS_9allocatorIcEEEENS5_IS7_EEEEEEvPT_SB_, symObjAddr: 0x4F1C, symBinAddr: 0x1000066C0, symSize: 0x14 }
  - { offsetInCU: 0x15DEA, offset: 0x15DEA, size: 0x8, addend: 0x0, symName: __ZNSt3__1neB7v160006IPNS_12basic_stringIcNS_11char_traitsIcEENS_9allocatorIcEEEEEEbRKNS_11__wrap_iterIT_EESC_, symObjAddr: 0x5150, symBinAddr: 0x1000068F4, symSize: 0x34 }
  - { offsetInCU: 0x15E2D, offset: 0x15E2D, size: 0x8, addend: 0x0, symName: __ZNSt3__1eqB7v160006IPNS_12basic_stringIcNS_11char_traitsIcEENS_9allocatorIcEEEEEEbRKNS_11__wrap_iterIT_EESC_, symObjAddr: 0x5310, symBinAddr: 0x100006AB4, symSize: 0x48 }
  - { offsetInCU: 0x15E70, offset: 0x15E70, size: 0x8, addend: 0x0, symName: __ZNSt3__1neB7v160006IPcEEbRKNS_11__wrap_iterIT_EES6_, symObjAddr: 0x5410, symBinAddr: 0x100006BB4, symSize: 0x34 }
  - { offsetInCU: 0x15EB3, offset: 0x15EB3, size: 0x8, addend: 0x0, symName: __ZNSt3__1eqB7v160006IPcEEbRKNS_11__wrap_iterIT_EES6_, symObjAddr: 0x5564, symBinAddr: 0x100006D08, symSize: 0x48 }
  - { offsetInCU: 0x15EF6, offset: 0x15EF6, size: 0x8, addend: 0x0, symName: __ZNSt3__1eqB7v160006INS_9allocatorIcEEEEbRKNS_12basic_stringIcNS_11char_traitsIcEET_EES9_, symObjAddr: 0x56A0, symBinAddr: 0x100006E44, symSize: 0x148 }
  - { offsetInCU: 0x15F85, offset: 0x15F85, size: 0x8, addend: 0x0, symName: __ZNSt3__122__make_exception_guardB7v160006INS_6vectorINS1_I4LensNS_9allocatorIS2_EEEENS3_IS5_EEE16__destroy_vectorEEENS_28__exception_guard_exceptionsIT_EESA_, symObjAddr: 0x5BE8, symBinAddr: 0x10000738C, symSize: 0x40 }
  - { offsetInCU: 0x15FBA, offset: 0x15FBA, size: 0x8, addend: 0x0, symName: __ZNSt3__119__debug_db_insert_cB7v160006INS_6vectorINS1_I4LensNS_9allocatorIS2_EEEENS3_IS5_EEEEEEvPT_, symObjAddr: 0x5C5C, symBinAddr: 0x100007400, symSize: 0x10 }
  - { offsetInCU: 0x15FEB, offset: 0x15FEB, size: 0x8, addend: 0x0, symName: __ZNSt3__119__allocate_at_leastB7v160006INS_9allocatorINS_6vectorI4LensNS1_IS3_EEEEEEEENS_19__allocation_resultINS_16allocator_traitsIT_E7pointerEEERS9_m, symObjAddr: 0x5FEC, symBinAddr: 0x100007790, symSize: 0x40 }
  - { offsetInCU: 0x1602E, offset: 0x1602E, size: 0x8, addend: 0x0, symName: __ZNSt3__112__to_addressB7v160006INS_6vectorI4LensNS_9allocatorIS2_EEEEEEPT_S7_, symObjAddr: 0x6320, symBinAddr: 0x100007AC4, symSize: 0x14 }
  - { offsetInCU: 0x16088, offset: 0x16088, size: 0x8, addend: 0x0, symName: __ZNSt3__112construct_atB7v160006INS_6vectorI4LensNS_9allocatorIS2_EEEEJEPS5_EEPT_S8_DpOT0_, symObjAddr: 0x6470, symBinAddr: 0x100007C14, symSize: 0x34 }
  - { offsetInCU: 0x160E4, offset: 0x160E4, size: 0x8, addend: 0x0, symName: __ZNSt3__119__debug_db_insert_cB7v160006INS_6vectorI4LensNS_9allocatorIS2_EEEEEEvPT_, symObjAddr: 0x6564, symBinAddr: 0x100007D08, symSize: 0x10 }
  - { offsetInCU: 0x16115, offset: 0x16115, size: 0x8, addend: 0x0, symName: __ZNSt3__118__debug_db_erase_cB7v160006INS_6vectorINS1_I4LensNS_9allocatorIS2_EEEENS3_IS5_EEEEEEvPT_, symObjAddr: 0x681C, symBinAddr: 0x100007FC0, symSize: 0x10 }
  - { offsetInCU: 0x16146, offset: 0x16146, size: 0x8, addend: 0x0, symName: __ZNSt3__110destroy_atB7v160006INS_6vectorI4LensNS_9allocatorIS2_EEEELi0EEEvPT_, symObjAddr: 0x6964, symBinAddr: 0x100008108, symSize: 0x24 }
  - { offsetInCU: 0x1617D, offset: 0x1617D, size: 0x8, addend: 0x0, symName: __ZNSt3__112__destroy_atB7v160006INS_6vectorI4LensNS_9allocatorIS2_EEEELi0EEEvPT_, symObjAddr: 0x6988, symBinAddr: 0x10000812C, symSize: 0x24 }
  - { offsetInCU: 0x161B4, offset: 0x161B4, size: 0x8, addend: 0x0, symName: __ZNSt3__118__debug_db_erase_cB7v160006INS_6vectorI4LensNS_9allocatorIS2_EEEEEEvPT_, symObjAddr: 0x6BE0, symBinAddr: 0x100008384, symSize: 0x10 }
  - { offsetInCU: 0x161E5, offset: 0x161E5, size: 0x8, addend: 0x0, symName: __ZNSt3__112__to_addressB7v160006I4LensEEPT_S3_, symObjAddr: 0x6CFC, symBinAddr: 0x1000084A0, symSize: 0x14 }
  - { offsetInCU: 0x1621A, offset: 0x1621A, size: 0x8, addend: 0x0, symName: __ZNSt3__110destroy_atB7v160006I4LensLi0EEEvPT_, symObjAddr: 0x6DC4, symBinAddr: 0x100008568, symSize: 0x24 }
  - { offsetInCU: 0x16251, offset: 0x16251, size: 0x8, addend: 0x0, symName: __ZNSt3__112__destroy_atB7v160006I4LensLi0EEEvPT_, symObjAddr: 0x6DE8, symBinAddr: 0x10000858C, symSize: 0x24 }
  - { offsetInCU: 0x16288, offset: 0x16288, size: 0x8, addend: 0x0, symName: __ZNSt3__1miB7v160006IPK4LensS3_EEDTmicldtfp_4baseEcldtfp0_4baseEERKNS_11__wrap_iterIT_EERKNS5_IT0_EE, symObjAddr: 0x707C, symBinAddr: 0x100008820, symSize: 0x48 }
  - { offsetInCU: 0x162D4, offset: 0x162D4, size: 0x8, addend: 0x0, symName: __ZNSt3__14moveB7v160006IP4LensS2_EET0_T_S4_S3_, symObjAddr: 0x7150, symBinAddr: 0x1000088F4, symSize: 0x40 }
  - { offsetInCU: 0x1632E, offset: 0x1632E, size: 0x8, addend: 0x0, symName: __ZNSt3__16__moveB7v160006INS_17_ClassicAlgPolicyEP4LensS3_S3_EENS_4pairIT0_T2_EES5_T1_S6_, symObjAddr: 0x7384, symBinAddr: 0x100008B28, symSize: 0x44 }
  - { offsetInCU: 0x1639A, offset: 0x1639A, size: 0x8, addend: 0x0, symName: __ZNSt3__123__dispatch_copy_or_moveB7v160006INS_17_ClassicAlgPolicyENS_11__move_loopIS1_EENS_14__move_trivialEP4LensS6_S6_EENS_4pairIT2_T4_EES8_T3_S9_, symObjAddr: 0x73C8, symBinAddr: 0x100008B6C, symSize: 0x44 }
  - { offsetInCU: 0x16418, offset: 0x16418, size: 0x8, addend: 0x0, symName: __ZNSt3__121__unwrap_and_dispatchB7v160006INS_10__overloadINS_11__move_loopINS_17_ClassicAlgPolicyEEENS_14__move_trivialEEEP4LensS8_S8_Li0EEENS_4pairIT0_T2_EESA_T1_SB_, symObjAddr: 0x740C, symBinAddr: 0x100008BB0, symSize: 0xB4 }
  - { offsetInCU: 0x164A6, offset: 0x164A6, size: 0x8, addend: 0x0, symName: __ZNSt3__114__unwrap_rangeB7v160006IP4LensS2_EEDaT_T0_, symObjAddr: 0x74C0, symBinAddr: 0x100008C64, symSize: 0x3C }
  - { offsetInCU: 0x16621, offset: 0x16621, size: 0x8, addend: 0x0, symName: __ZNSt3__113__unwrap_iterB7v160006IP4LensNS_18__unwrap_iter_implIS2_Lb1EEELi0EEEDTclsrT0_8__unwrapclsr3stdE7declvalIT_EEEES6_, symObjAddr: 0x758C, symBinAddr: 0x100008D30, symSize: 0x24 }
  - { offsetInCU: 0x16665, offset: 0x16665, size: 0x8, addend: 0x0, symName: __ZNSt3__19make_pairB7v160006IP4LensS2_EENS_4pairINS_18__unwrap_ref_decayIT_E4typeENS4_IT0_E4typeEEEOS5_OS8_, symObjAddr: 0x75B0, symBinAddr: 0x100008D54, symSize: 0x38 }
  - { offsetInCU: 0x166B4, offset: 0x166B4, size: 0x8, addend: 0x0, symName: __ZNSt3__114__rewrap_rangeB7v160006IP4LensS2_S2_EET0_S3_T1_, symObjAddr: 0x75E8, symBinAddr: 0x100008D8C, symSize: 0x2C }
  - { offsetInCU: 0x16709, offset: 0x16709, size: 0x8, addend: 0x0, symName: __ZNSt3__113__rewrap_iterB7v160006IP4LensS2_NS_18__unwrap_iter_implIS2_Lb1EEEEET_S5_T0_, symObjAddr: 0x7614, symBinAddr: 0x100008DB8, symSize: 0x3C }
  - { offsetInCU: 0x16890, offset: 0x16890, size: 0x8, addend: 0x0, symName: __ZNSt3__112construct_atB7v160006I4LensJRKS1_EPS1_EEPT_S6_DpOT0_, symObjAddr: 0x7C04, symBinAddr: 0x1000093A8, symSize: 0x3C }
  - { offsetInCU: 0x16900, offset: 0x16900, size: 0x8, addend: 0x0, symName: __ZNSt3__119__allocate_at_leastB7v160006INS_9allocatorI4LensEEEENS_19__allocation_resultINS_16allocator_traitsIT_E7pointerEEERS6_m, symObjAddr: 0x8144, symBinAddr: 0x1000098E8, symSize: 0x40 }
  - { offsetInCU: 0x16943, offset: 0x16943, size: 0x8, addend: 0x0, symName: __ZNSt3__142__uninitialized_allocator_move_if_noexceptB7v160006INS_9allocatorI4LensEENS_16reverse_iteratorIPS2_EES6_S6_EET2_RT_T0_T1_S7_, symObjAddr: 0x82FC, symBinAddr: 0x100009AA0, symSize: 0x12C }
  - { offsetInCU: 0x169E3, offset: 0x169E3, size: 0x8, addend: 0x0, symName: __ZNSt3__14swapB7v160006IP4LensEENS_9enable_ifIXaasr21is_move_constructibleIT_EE5valuesr18is_move_assignableIS4_EE5valueEvE4typeERS4_S7_, symObjAddr: 0x8474, symBinAddr: 0x100009C18, symSize: 0x3C }
  - { offsetInCU: 0x16A34, offset: 0x16A34, size: 0x8, addend: 0x0, symName: __ZNSt3__125__debug_db_invalidate_allB7v160006INS_6vectorI4LensNS_9allocatorIS2_EEEEEEvPT_, symObjAddr: 0x8578, symBinAddr: 0x100009D1C, symSize: 0x10 }
  - { offsetInCU: 0x16A65, offset: 0x16A65, size: 0x8, addend: 0x0, symName: __ZNSt3__122__make_exception_guardB7v160006INS_29_AllocatorDestroyRangeReverseINS_9allocatorI4LensEENS_16reverse_iteratorIPS3_EEEEEENS_28__exception_guard_exceptionsIT_EESA_, symObjAddr: 0x8588, symBinAddr: 0x100009D2C, symSize: 0x4C }
  - { offsetInCU: 0x16A9B, offset: 0x16A9B, size: 0x8, addend: 0x0, symName: __ZNSt3__1neB7v160006IP4LensS2_EEbRKNS_16reverse_iteratorIT_EERKNS3_IT0_EE, symObjAddr: 0x8618, symBinAddr: 0x100009DBC, symSize: 0x48 }
  - { offsetInCU: 0x16AE7, offset: 0x16AE7, size: 0x8, addend: 0x0, symName: __ZNSt3__112__to_addressB7v160006INS_16reverse_iteratorIP4LensEEvEENS_5decayIDTclsr19__to_address_helperIT_EE6__callclsr3stdE7declvalIRKS6_EEEEE4typeES8_, symObjAddr: 0x8690, symBinAddr: 0x100009E34, symSize: 0x24 }
  - { offsetInCU: 0x16B1D, offset: 0x16B1D, size: 0x8, addend: 0x0, symName: __ZNSt3__112construct_atB7v160006I4LensJS1_EPS1_EEPT_S4_DpOT0_, symObjAddr: 0x87E0, symBinAddr: 0x100009F84, symSize: 0x3C }
  - { offsetInCU: 0x16BB6, offset: 0x16BB6, size: 0x8, addend: 0x0, symName: __ZNSt3__14prevB7v160006IP4LensEENS_9enable_ifIXsr25__is_cpp17_input_iteratorIT_EE5valueES4_E4typeES4_NS_15iterator_traitsIS4_E15difference_typeE, symObjAddr: 0x8908, symBinAddr: 0x10000A0AC, symSize: 0x50 }
  - { offsetInCU: 0x16BF9, offset: 0x16BF9, size: 0x8, addend: 0x0, symName: __ZNSt3__19__advanceB7v160006IP4LensEEvRT_NS_15iterator_traitsIS3_E15difference_typeENS_26random_access_iterator_tagE, symObjAddr: 0x89A8, symBinAddr: 0x10000A14C, symSize: 0x30 }
  - { offsetInCU: 0x16C42, offset: 0x16C42, size: 0x8, addend: 0x0, symName: __ZNSt3__119__allocator_destroyB7v160006INS_9allocatorI4LensEENS_16reverse_iteratorINS4_IPS2_EEEES7_EEvRT_T0_T1_, symObjAddr: 0x8ADC, symBinAddr: 0x10000A280, symSize: 0x70 }
  - { offsetInCU: 0x16CA7, offset: 0x16CA7, size: 0x8, addend: 0x0, symName: __ZNSt3__1neB7v160006INS_16reverse_iteratorIP4LensEES4_EEbRKNS1_IT_EERKNS1_IT0_EE, symObjAddr: 0x8B88, symBinAddr: 0x10000A32C, symSize: 0x60 }
  - { offsetInCU: 0x16CF3, offset: 0x16CF3, size: 0x8, addend: 0x0, symName: __ZNSt3__112__to_addressB7v160006INS_16reverse_iteratorINS1_IP4LensEEEEvEENS_5decayIDTclsr19__to_address_helperIT_EE6__callclsr3stdE7declvalIRKS7_EEEEE4typeES9_, symObjAddr: 0x8BE8, symBinAddr: 0x10000A38C, symSize: 0x24 }
  - { offsetInCU: 0x16D52, offset: 0x16D52, size: 0x8, addend: 0x0, symName: __ZNSt3__14prevB7v160006INS_16reverse_iteratorIP4LensEEEENS_9enable_ifIXsr25__is_cpp17_input_iteratorIT_EE5valueES6_E4typeES6_NS_15iterator_traitsIS6_E15difference_typeE, symObjAddr: 0x8CE4, symBinAddr: 0x10000A488, symSize: 0x60 }
  - { offsetInCU: 0x16D95, offset: 0x16D95, size: 0x8, addend: 0x0, symName: __ZNSt3__19__advanceB7v160006INS_16reverse_iteratorIP4LensEEEEvRT_NS_15iterator_traitsIS5_E15difference_typeENS_26random_access_iterator_tagE, symObjAddr: 0x8D94, symBinAddr: 0x10000A538, symSize: 0x2C }
  - { offsetInCU: 0x16DDE, offset: 0x16DDE, size: 0x8, addend: 0x0, symName: __ZNSt3__116__pad_and_outputB7v160006IcNS_11char_traitsIcEEEENS_19ostreambuf_iteratorIT_T0_EES6_PKS4_S8_S8_RNS_8ios_baseES4_, symObjAddr: 0x92D4, symBinAddr: 0x10000AA78, symSize: 0x240 }
  - { offsetInCU: 0x16EAD, offset: 0x16EAD, size: 0x8, addend: 0x0, symName: __ZNSt3__112__to_addressB7v160006IcEEPT_S2_, symObjAddr: 0x9720, symBinAddr: 0x10000AEC4, symSize: 0x14 }
  - { offsetInCU: 0x175C4, offset: 0x175C4, size: 0x8, addend: 0x0, symName: __ZSt28__throw_bad_array_new_lengthB7v160006v, symObjAddr: 0x29BC, symBinAddr: 0x100004160, symSize: 0x34 }
  - { offsetInCU: 0x185E3, offset: 0x185E3, size: 0x8, addend: 0x0, symName: __ZNSt3__16vectorINS_12basic_stringIcNS_11char_traitsIcEENS_9allocatorIcEEEENS4_IS6_EEE26__swap_out_circular_bufferERNS_14__split_bufferIS6_RS7_EE, symObjAddr: 0x2214, symBinAddr: 0x1000039B8, symSize: 0x118 }
  - { offsetInCU: 0x18A5C, offset: 0x18A5C, size: 0x8, addend: 0x0, symName: __ZNSt3__16vectorI4LensNS_9allocatorIS1_EEE26__swap_out_circular_bufferERNS_14__split_bufferIS1_RS3_EE, symObjAddr: 0x7DE0, symBinAddr: 0x100009584, symSize: 0x118 }
  - { offsetInCU: 0x1AAC7, offset: 0x1AAC7, size: 0x8, addend: 0x0, symName: __Z5splitNSt3__112basic_stringIcNS_11char_traitsIcEENS_9allocatorIcEEEES5_, symObjAddr: 0x0, symBinAddr: 0x1000017A4, symSize: 0x198 }
  - { offsetInCU: 0x1AB4C, offset: 0x1AB4C, size: 0x8, addend: 0x0, symName: __ZNKSt3__112basic_stringIcNS_11char_traitsIcEENS_9allocatorIcEEE6lengthB7v160006Ev, symObjAddr: 0x198, symBinAddr: 0x10000193C, symSize: 0x24 }
  - { offsetInCU: 0x1AB72, offset: 0x1AB72, size: 0x8, addend: 0x0, symName: __ZNSt3__112basic_stringIcNS_11char_traitsIcEENS_9allocatorIcEEEC1B7v160006Ev, symObjAddr: 0x1BC, symBinAddr: 0x100001960, symSize: 0x2C }
  - { offsetInCU: 0x1AB9C, offset: 0x1AB9C, size: 0x8, addend: 0x0, symName: __ZNSt3__16vectorINS_12basic_stringIcNS_11char_traitsIcEENS_9allocatorIcEEEENS4_IS6_EEEC1B7v160006Ev, symObjAddr: 0x1E8, symBinAddr: 0x10000198C, symSize: 0x2C }
  - { offsetInCU: 0x1ABC6, offset: 0x1ABC6, size: 0x8, addend: 0x0, symName: __ZNKSt3__112basic_stringIcNS_11char_traitsIcEENS_9allocatorIcEEE4findB7v160006ERKS5_m, symObjAddr: 0x214, symBinAddr: 0x1000019B8, symSize: 0x78 }
  - { offsetInCU: 0x1AC0C, offset: 0x1AC0C, size: 0x8, addend: 0x0, symName: __ZNKSt3__112basic_stringIcNS_11char_traitsIcEENS_9allocatorIcEEE6substrB7v160006Emm, symObjAddr: 0x28C, symBinAddr: 0x100001A30, symSize: 0x68 }
  - { offsetInCU: 0x1AC50, offset: 0x1AC50, size: 0x8, addend: 0x0, symName: __ZNSt3__112basic_stringIcNS_11char_traitsIcEENS_9allocatorIcEEEaSB7v160006EOS5_, symObjAddr: 0x2F4, symBinAddr: 0x100001A98, symSize: 0x34 }
  - { offsetInCU: 0x1AC85, offset: 0x1AC85, size: 0x8, addend: 0x0, symName: __ZNSt3__16vectorINS_12basic_stringIcNS_11char_traitsIcEENS_9allocatorIcEEEENS4_IS6_EEE9push_backB7v160006ERKS6_, symObjAddr: 0x328, symBinAddr: 0x100001ACC, symSize: 0x6C }
  - { offsetInCU: 0x1ACBC, offset: 0x1ACBC, size: 0x8, addend: 0x0, symName: __ZNSt3__16vectorINS_12basic_stringIcNS_11char_traitsIcEENS_9allocatorIcEEEENS4_IS6_EEE9push_backB7v160006EOS6_, symObjAddr: 0x394, symBinAddr: 0x100001B38, symSize: 0x6C }
  - { offsetInCU: 0x1ACF3, offset: 0x1ACF3, size: 0x8, addend: 0x0, symName: __ZNSt3__16vectorINS_12basic_stringIcNS_11char_traitsIcEENS_9allocatorIcEEEENS4_IS6_EEED1B7v160006Ev, symObjAddr: 0x400, symBinAddr: 0x100001BA4, symSize: 0x2C }
  - { offsetInCU: 0x1AD1D, offset: 0x1AD1D, size: 0x8, addend: 0x0, symName: _main, symObjAddr: 0x42C, symBinAddr: 0x100001BD0, symSize: 0x31C }
  - { offsetInCU: 0x1AD6A, offset: 0x1AD6A, size: 0x8, addend: 0x0, symName: __ZNSt3__112basic_stringIcNS_11char_traitsIcEENS_9allocatorIcEEEC1B7v160006IDnEEPKc, symObjAddr: 0x748, symBinAddr: 0x100001EEC, symSize: 0x34 }
  - { offsetInCU: 0x1ADA8, offset: 0x1ADA8, size: 0x8, addend: 0x0, symName: __ZN8SolutionC1ENSt3__112basic_stringIcNS0_11char_traitsIcEENS0_9allocatorIcEEEE, symObjAddr: 0x77C, symBinAddr: 0x100001F20, symSize: 0x34 }
  - { offsetInCU: 0x1ADE1, offset: 0x1ADE1, size: 0x8, addend: 0x0, symName: __ZN8Solution5part1Ev, symObjAddr: 0x7F8, symBinAddr: 0x100001F9C, symSize: 0x114 }
  - { offsetInCU: 0x1AE6B, offset: 0x1AE6B, size: 0x8, addend: 0x0, symName: __ZNSt3__113basic_ostreamIcNS_11char_traitsIcEEElsB7v160006EPFRS3_S4_E, symObjAddr: 0x90C, symBinAddr: 0x1000020B0, symSize: 0x2C }
  - { offsetInCU: 0x1AE9F, offset: 0x1AE9F, size: 0x8, addend: 0x0, symName: __ZN8Solution5part2Ev, symObjAddr: 0x990, symBinAddr: 0x100002134, symSize: 0x660 }
  - { offsetInCU: 0x1B01D, offset: 0x1B01D, size: 0x8, addend: 0x0, symName: __ZN8SolutionD1Ev, symObjAddr: 0xFF0, symBinAddr: 0x100002794, symSize: 0x2C }
  - { offsetInCU: 0x1B049, offset: 0x1B049, size: 0x8, addend: 0x0, symName: __ZNKSt3__112basic_stringIcNS_11char_traitsIcEENS_9allocatorIcEEE4sizeB7v160006Ev, symObjAddr: 0x101C, symBinAddr: 0x1000027C0, symSize: 0x54 }
  - { offsetInCU: 0x1B06F, offset: 0x1B06F, size: 0x8, addend: 0x0, symName: __ZNKSt3__112basic_stringIcNS_11char_traitsIcEENS_9allocatorIcEEE9__is_longB7v160006Ev, symObjAddr: 0x1070, symBinAddr: 0x100002814, symSize: 0x38 }
  - { offsetInCU: 0x1B095, offset: 0x1B095, size: 0x8, addend: 0x0, symName: __ZNKSt3__112basic_stringIcNS_11char_traitsIcEENS_9allocatorIcEEE15__get_long_sizeB7v160006Ev, symObjAddr: 0x10A8, symBinAddr: 0x10000284C, symSize: 0x28 }
  - { offsetInCU: 0x1B0BB, offset: 0x1B0BB, size: 0x8, addend: 0x0, symName: __ZNKSt3__112basic_stringIcNS_11char_traitsIcEENS_9allocatorIcEEE16__get_short_sizeB7v160006Ev, symObjAddr: 0x10D0, symBinAddr: 0x100002874, symSize: 0x34 }
  - { offsetInCU: 0x1B0E1, offset: 0x1B0E1, size: 0x8, addend: 0x0, symName: __ZNKSt3__117__compressed_pairINS_12basic_stringIcNS_11char_traitsIcEENS_9allocatorIcEEE5__repES5_E5firstB7v160006Ev, symObjAddr: 0x1104, symBinAddr: 0x1000028A8, symSize: 0x24 }
  - { offsetInCU: 0x1B107, offset: 0x1B107, size: 0x8, addend: 0x0, symName: __ZNKSt3__122__compressed_pair_elemINS_12basic_stringIcNS_11char_traitsIcEENS_9allocatorIcEEE5__repELi0ELb0EE5__getB7v160006Ev, symObjAddr: 0x1128, symBinAddr: 0x1000028CC, symSize: 0x14 }
  - { offsetInCU: 0x1B12D, offset: 0x1B12D, size: 0x8, addend: 0x0, symName: __ZNSt3__112basic_stringIcNS_11char_traitsIcEENS_9allocatorIcEEEC2B7v160006Ev, symObjAddr: 0x113C, symBinAddr: 0x1000028E0, symSize: 0x54 }
  - { offsetInCU: 0x1B15D, offset: 0x1B15D, size: 0x8, addend: 0x0, symName: __ZNSt3__117__compressed_pairINS_12basic_stringIcNS_11char_traitsIcEENS_9allocatorIcEEE5__repES5_EC1B7v160006INS_18__default_init_tagESA_EEOT_OT0_, symObjAddr: 0x1190, symBinAddr: 0x100002934, symSize: 0x3C }
  - { offsetInCU: 0x1B1B5, offset: 0x1B1B5, size: 0x8, addend: 0x0, symName: __ZNSt3__112basic_stringIcNS_11char_traitsIcEENS_9allocatorIcEEE14__default_initB7v160006Ev, symObjAddr: 0x11E8, symBinAddr: 0x10000298C, symSize: 0x40 }
  - { offsetInCU: 0x1B1DB, offset: 0x1B1DB, size: 0x8, addend: 0x0, symName: __ZNSt3__117__compressed_pairINS_12basic_stringIcNS_11char_traitsIcEENS_9allocatorIcEEE5__repES5_EC2B7v160006INS_18__default_init_tagESA_EEOT_OT0_, symObjAddr: 0x1228, symBinAddr: 0x1000029CC, symSize: 0x3C }
  - { offsetInCU: 0x1B233, offset: 0x1B233, size: 0x8, addend: 0x0, symName: __ZNSt3__122__compressed_pair_elemINS_12basic_stringIcNS_11char_traitsIcEENS_9allocatorIcEEE5__repELi0ELb0EEC2B7v160006ENS_18__default_init_tagE, symObjAddr: 0x1264, symBinAddr: 0x100002A08, symSize: 0x14 }
  - { offsetInCU: 0x1B267, offset: 0x1B267, size: 0x8, addend: 0x0, symName: __ZNSt3__122__compressed_pair_elemINS_9allocatorIcEELi1ELb1EEC2B7v160006ENS_18__default_init_tagE, symObjAddr: 0x1278, symBinAddr: 0x100002A1C, symSize: 0x2C }
  - { offsetInCU: 0x1B29B, offset: 0x1B29B, size: 0x8, addend: 0x0, symName: __ZNSt3__19allocatorIcEC2B7v160006Ev, symObjAddr: 0x12A4, symBinAddr: 0x100002A48, symSize: 0x2C }
  - { offsetInCU: 0x1B2C5, offset: 0x1B2C5, size: 0x8, addend: 0x0, symName: __ZNSt3__116__non_trivial_ifILb1ENS_9allocatorIcEEEC2B7v160006Ev, symObjAddr: 0x12D0, symBinAddr: 0x100002A74, symSize: 0x14 }
  - { offsetInCU: 0x1B2EF, offset: 0x1B2EF, size: 0x8, addend: 0x0, symName: __ZNSt3__117__compressed_pairINS_12basic_stringIcNS_11char_traitsIcEENS_9allocatorIcEEE5__repES5_E5firstB7v160006Ev, symObjAddr: 0x12E4, symBinAddr: 0x100002A88, symSize: 0x24 }
  - { offsetInCU: 0x1B315, offset: 0x1B315, size: 0x8, addend: 0x0, symName: __ZNSt3__122__compressed_pair_elemINS_12basic_stringIcNS_11char_traitsIcEENS_9allocatorIcEEE5__repELi0ELb0EE5__getB7v160006Ev, symObjAddr: 0x1308, symBinAddr: 0x100002AAC, symSize: 0x14 }
  - { offsetInCU: 0x1B33B, offset: 0x1B33B, size: 0x8, addend: 0x0, symName: __ZNSt3__16vectorINS_12basic_stringIcNS_11char_traitsIcEENS_9allocatorIcEEEENS4_IS6_EEEC2B7v160006Ev, symObjAddr: 0x131C, symBinAddr: 0x100002AC0, symSize: 0x58 }
  - { offsetInCU: 0x1B36B, offset: 0x1B36B, size: 0x8, addend: 0x0, symName: __ZNSt3__117__compressed_pairIPNS_12basic_stringIcNS_11char_traitsIcEENS_9allocatorIcEEEENS4_IS6_EEEC1B7v160006IDnNS_18__default_init_tagEEEOT_OT0_, symObjAddr: 0x1374, symBinAddr: 0x100002B18, symSize: 0x3C }
  - { offsetInCU: 0x1B3C3, offset: 0x1B3C3, size: 0x8, addend: 0x0, symName: __ZNSt3__117__compressed_pairIPNS_12basic_stringIcNS_11char_traitsIcEENS_9allocatorIcEEEENS4_IS6_EEEC2B7v160006IDnNS_18__default_init_tagEEEOT_OT0_, symObjAddr: 0x13C0, symBinAddr: 0x100002B64, symSize: 0x40 }
  - { offsetInCU: 0x1B41B, offset: 0x1B41B, size: 0x8, addend: 0x0, symName: __ZNSt3__122__compressed_pair_elemIPNS_12basic_stringIcNS_11char_traitsIcEENS_9allocatorIcEEEELi0ELb0EEC2B7v160006IDnvEEOT_, symObjAddr: 0x1400, symBinAddr: 0x100002BA4, symSize: 0x1C }
  - { offsetInCU: 0x1B45D, offset: 0x1B45D, size: 0x8, addend: 0x0, symName: __ZNSt3__122__compressed_pair_elemINS_9allocatorINS_12basic_stringIcNS_11char_traitsIcEENS1_IcEEEEEELi1ELb1EEC2B7v160006ENS_18__default_init_tagE, symObjAddr: 0x141C, symBinAddr: 0x100002BC0, symSize: 0x2C }
  - { offsetInCU: 0x1B491, offset: 0x1B491, size: 0x8, addend: 0x0, symName: __ZNSt3__19allocatorINS_12basic_stringIcNS_11char_traitsIcEENS0_IcEEEEEC2B7v160006Ev, symObjAddr: 0x1448, symBinAddr: 0x100002BEC, symSize: 0x2C }
  - { offsetInCU: 0x1B4BB, offset: 0x1B4BB, size: 0x8, addend: 0x0, symName: __ZNSt3__116__non_trivial_ifILb1ENS_9allocatorINS_12basic_stringIcNS_11char_traitsIcEENS1_IcEEEEEEEC2B7v160006Ev, symObjAddr: 0x1474, symBinAddr: 0x100002C18, symSize: 0x14 }
  - { offsetInCU: 0x1B4E5, offset: 0x1B4E5, size: 0x8, addend: 0x0, symName: __ZNKSt3__112basic_stringIcNS_11char_traitsIcEENS_9allocatorIcEEE4dataB7v160006Ev, symObjAddr: 0x156C, symBinAddr: 0x100002D10, symSize: 0x28 }
  - { offsetInCU: 0x1B50B, offset: 0x1B50B, size: 0x8, addend: 0x0, symName: __ZNSt3__111char_traitsIcE4findEPKcmRS2_, symObjAddr: 0x16E8, symBinAddr: 0x100002E8C, symSize: 0x70 }
  - { offsetInCU: 0x1B54A, offset: 0x1B54A, size: 0x8, addend: 0x0, symName: __ZNSt3__111char_traitsIcE7compareEPKcS3_m, symObjAddr: 0x1758, symBinAddr: 0x100002EFC, symSize: 0x6C }
  - { offsetInCU: 0x1B589, offset: 0x1B589, size: 0x8, addend: 0x0, symName: __ZNKSt3__112basic_stringIcNS_11char_traitsIcEENS_9allocatorIcEEE13__get_pointerB7v160006Ev, symObjAddr: 0x1840, symBinAddr: 0x100002FE4, symSize: 0x54 }
  - { offsetInCU: 0x1B5AF, offset: 0x1B5AF, size: 0x8, addend: 0x0, symName: __ZNKSt3__112basic_stringIcNS_11char_traitsIcEENS_9allocatorIcEEE18__get_long_pointerB7v160006Ev, symObjAddr: 0x1894, symBinAddr: 0x100003038, symSize: 0x28 }
  - { offsetInCU: 0x1B5D5, offset: 0x1B5D5, size: 0x8, addend: 0x0, symName: __ZNKSt3__112basic_stringIcNS_11char_traitsIcEENS_9allocatorIcEEE19__get_short_pointerB7v160006Ev, symObjAddr: 0x18BC, symBinAddr: 0x100003060, symSize: 0x28 }
  - { offsetInCU: 0x1B5FB, offset: 0x1B5FB, size: 0x8, addend: 0x0, symName: __ZNSt3__114pointer_traitsIPKcE10pointer_toB7v160006ERS1_, symObjAddr: 0x18E4, symBinAddr: 0x100003088, symSize: 0x14 }
  - { offsetInCU: 0x1B61E, offset: 0x1B61E, size: 0x8, addend: 0x0, symName: __ZNSt3__19allocatorIcEC1B7v160006Ev, symObjAddr: 0x18F8, symBinAddr: 0x10000309C, symSize: 0x2C }
  - { offsetInCU: 0x1B648, offset: 0x1B648, size: 0x8, addend: 0x0, symName: __ZNSt3__112basic_stringIcNS_11char_traitsIcEENS_9allocatorIcEEE13__move_assignB7v160006ERS5_NS_17integral_constantIbLb1EEE, symObjAddr: 0x1924, symBinAddr: 0x1000030C8, symSize: 0xC8 }
  - { offsetInCU: 0x1B68B, offset: 0x1B68B, size: 0x8, addend: 0x0, symName: __ZNSt3__116allocator_traitsINS_9allocatorIcEEE10deallocateB7v160006ERS2_Pcm, symObjAddr: 0x19EC, symBinAddr: 0x100003190, symSize: 0x34 }
  - { offsetInCU: 0x1B6CD, offset: 0x1B6CD, size: 0x8, addend: 0x0, symName: __ZNSt3__112basic_stringIcNS_11char_traitsIcEENS_9allocatorIcEEE7__allocB7v160006Ev, symObjAddr: 0x1A20, symBinAddr: 0x1000031C4, symSize: 0x24 }
  - { offsetInCU: 0x1B6F3, offset: 0x1B6F3, size: 0x8, addend: 0x0, symName: __ZNSt3__112basic_stringIcNS_11char_traitsIcEENS_9allocatorIcEEE18__get_long_pointerB7v160006Ev, symObjAddr: 0x1A44, symBinAddr: 0x1000031E8, symSize: 0x28 }
  - { offsetInCU: 0x1B719, offset: 0x1B719, size: 0x8, addend: 0x0, symName: __ZNKSt3__112basic_stringIcNS_11char_traitsIcEENS_9allocatorIcEEE14__get_long_capB7v160006Ev, symObjAddr: 0x1A6C, symBinAddr: 0x100003210, symSize: 0x30 }
  - { offsetInCU: 0x1B73F, offset: 0x1B73F, size: 0x8, addend: 0x0, symName: __ZNSt3__112basic_stringIcNS_11char_traitsIcEENS_9allocatorIcEEE19__move_assign_allocB7v160006ERS5_, symObjAddr: 0x1A9C, symBinAddr: 0x100003240, symSize: 0x2C }
  - { offsetInCU: 0x1B774, offset: 0x1B774, size: 0x8, addend: 0x0, symName: __ZNSt3__112basic_stringIcNS_11char_traitsIcEENS_9allocatorIcEEE16__set_short_sizeB7v160006Em, symObjAddr: 0x1AC8, symBinAddr: 0x10000326C, symSize: 0x78 }
  - { offsetInCU: 0x1B7A9, offset: 0x1B7A9, size: 0x8, addend: 0x0, symName: __ZNSt3__111char_traitsIcE6assignERcRKc, symObjAddr: 0x1B40, symBinAddr: 0x1000032E4, symSize: 0x24 }
  - { offsetInCU: 0x1B7DA, offset: 0x1B7DA, size: 0x8, addend: 0x0, symName: __ZNSt3__112basic_stringIcNS_11char_traitsIcEENS_9allocatorIcEEE19__get_short_pointerB7v160006Ev, symObjAddr: 0x1B64, symBinAddr: 0x100003308, symSize: 0x28 }
  - { offsetInCU: 0x1B800, offset: 0x1B800, size: 0x8, addend: 0x0, symName: __ZNSt3__19allocatorIcE10deallocateB7v160006EPcm, symObjAddr: 0x1B8C, symBinAddr: 0x100003330, symSize: 0x40 }
  - { offsetInCU: 0x1B842, offset: 0x1B842, size: 0x8, addend: 0x0, symName: __ZNSt3__117__compressed_pairINS_12basic_stringIcNS_11char_traitsIcEENS_9allocatorIcEEE5__repES5_E6secondB7v160006Ev, symObjAddr: 0x1CF4, symBinAddr: 0x100003498, symSize: 0x24 }
  - { offsetInCU: 0x1B868, offset: 0x1B868, size: 0x8, addend: 0x0, symName: __ZNSt3__122__compressed_pair_elemINS_9allocatorIcEELi1ELb1EE5__getB7v160006Ev, symObjAddr: 0x1D18, symBinAddr: 0x1000034BC, symSize: 0x14 }
  - { offsetInCU: 0x1B88E, offset: 0x1B88E, size: 0x8, addend: 0x0, symName: __ZNSt3__112basic_stringIcNS_11char_traitsIcEENS_9allocatorIcEEE19__move_assign_allocB7v160006ERS5_NS_17integral_constantIbLb1EEE, symObjAddr: 0x1D2C, symBinAddr: 0x1000034D0, symSize: 0x38 }
  - { offsetInCU: 0x1B8CF, offset: 0x1B8CF, size: 0x8, addend: 0x0, symName: __ZNSt3__114pointer_traitsIPcE10pointer_toB7v160006ERc, symObjAddr: 0x1D64, symBinAddr: 0x100003508, symSize: 0x14 }
  - { offsetInCU: 0x1B8F2, offset: 0x1B8F2, size: 0x8, addend: 0x0, symName: __ZNSt3__16vectorINS_12basic_stringIcNS_11char_traitsIcEENS_9allocatorIcEEEENS4_IS6_EEE9__end_capB7v160006Ev, symObjAddr: 0x1D78, symBinAddr: 0x10000351C, symSize: 0x28 }
  - { offsetInCU: 0x1B918, offset: 0x1B918, size: 0x8, addend: 0x0, symName: __ZNSt3__16vectorINS_12basic_stringIcNS_11char_traitsIcEENS_9allocatorIcEEEENS4_IS6_EEE22__construct_one_at_endB7v160006IJRKS6_EEEvDpOT_, symObjAddr: 0x1DA0, symBinAddr: 0x100003544, symSize: 0x90 }
  - { offsetInCU: 0x1B967, offset: 0x1B967, size: 0x8, addend: 0x0, symName: __ZNSt3__16vectorINS_12basic_stringIcNS_11char_traitsIcEENS_9allocatorIcEEEENS4_IS6_EEE21__push_back_slow_pathIRKS6_EEvOT_, symObjAddr: 0x1E30, symBinAddr: 0x1000035D4, symSize: 0xD8 }
  - { offsetInCU: 0x1B9C5, offset: 0x1B9C5, size: 0x8, addend: 0x0, symName: __ZNSt3__117__compressed_pairIPNS_12basic_stringIcNS_11char_traitsIcEENS_9allocatorIcEEEENS4_IS6_EEE5firstB7v160006Ev, symObjAddr: 0x1F08, symBinAddr: 0x1000036AC, symSize: 0x24 }
  - { offsetInCU: 0x1B9EB, offset: 0x1B9EB, size: 0x8, addend: 0x0, symName: __ZNSt3__122__compressed_pair_elemIPNS_12basic_stringIcNS_11char_traitsIcEENS_9allocatorIcEEEELi0ELb0EE5__getB7v160006Ev, symObjAddr: 0x1F2C, symBinAddr: 0x1000036D0, symSize: 0x14 }
  - { offsetInCU: 0x1BA2C, offset: 0x1BA2C, size: 0x8, addend: 0x0, symName: __ZNSt3__16vectorINS_12basic_stringIcNS_11char_traitsIcEENS_9allocatorIcEEEENS4_IS6_EEE21_ConstructTransactionC1B7v160006ERS8_m, symObjAddr: 0x1F40, symBinAddr: 0x1000036E4, symSize: 0x3C }
  - { offsetInCU: 0x1BA74, offset: 0x1BA74, size: 0x8, addend: 0x0, symName: __ZNSt3__116allocator_traitsINS_9allocatorINS_12basic_stringIcNS_11char_traitsIcEENS1_IcEEEEEEE9constructB7v160006IS6_JRKS6_EvvEEvRS7_PT_DpOT0_, symObjAddr: 0x1F7C, symBinAddr: 0x100003720, symSize: 0x30 }
  - { offsetInCU: 0x1BAC9, offset: 0x1BAC9, size: 0x8, addend: 0x0, symName: __ZNSt3__16vectorINS_12basic_stringIcNS_11char_traitsIcEENS_9allocatorIcEEEENS4_IS6_EEE7__allocB7v160006Ev, symObjAddr: 0x1FAC, symBinAddr: 0x100003750, symSize: 0x28 }
  - { offsetInCU: 0x1BAEF, offset: 0x1BAEF, size: 0x8, addend: 0x0, symName: __ZNSt3__16vectorINS_12basic_stringIcNS_11char_traitsIcEENS_9allocatorIcEEEENS4_IS6_EEE21_ConstructTransactionD1B7v160006Ev, symObjAddr: 0x1FE8, symBinAddr: 0x10000378C, symSize: 0x2C }
  - { offsetInCU: 0x1BB19, offset: 0x1BB19, size: 0x8, addend: 0x0, symName: __ZNSt3__16vectorINS_12basic_stringIcNS_11char_traitsIcEENS_9allocatorIcEEEENS4_IS6_EEE21_ConstructTransactionC2B7v160006ERS8_m, symObjAddr: 0x2014, symBinAddr: 0x1000037B8, symSize: 0x4C }
  - { offsetInCU: 0x1BB61, offset: 0x1BB61, size: 0x8, addend: 0x0, symName: __ZNSt3__117__compressed_pairIPNS_12basic_stringIcNS_11char_traitsIcEENS_9allocatorIcEEEENS4_IS6_EEE6secondB7v160006Ev, symObjAddr: 0x209C, symBinAddr: 0x100003840, symSize: 0x24 }
  - { offsetInCU: 0x1BB87, offset: 0x1BB87, size: 0x8, addend: 0x0, symName: __ZNSt3__122__compressed_pair_elemINS_9allocatorINS_12basic_stringIcNS_11char_traitsIcEENS1_IcEEEEEELi1ELb1EE5__getB7v160006Ev, symObjAddr: 0x20C0, symBinAddr: 0x100003864, symSize: 0x14 }
  - { offsetInCU: 0x1BBAD, offset: 0x1BBAD, size: 0x8, addend: 0x0, symName: __ZNSt3__16vectorINS_12basic_stringIcNS_11char_traitsIcEENS_9allocatorIcEEEENS4_IS6_EEE21_ConstructTransactionD2B7v160006Ev, symObjAddr: 0x20D4, symBinAddr: 0x100003878, symSize: 0x20 }
  - { offsetInCU: 0x1BBD7, offset: 0x1BBD7, size: 0x8, addend: 0x0, symName: __ZNKSt3__16vectorINS_12basic_stringIcNS_11char_traitsIcEENS_9allocatorIcEEEENS4_IS6_EEE11__recommendB7v160006Em, symObjAddr: 0x20F4, symBinAddr: 0x100003898, symSize: 0xB4 }
  - { offsetInCU: 0x1BC2C, offset: 0x1BC2C, size: 0x8, addend: 0x0, symName: __ZNKSt3__16vectorINS_12basic_stringIcNS_11char_traitsIcEENS_9allocatorIcEEEENS4_IS6_EEE4sizeB7v160006Ev, symObjAddr: 0x21A8, symBinAddr: 0x10000394C, symSize: 0x28 }
  - { offsetInCU: 0x1BC52, offset: 0x1BC52, size: 0x8, addend: 0x0, symName: __ZNSt3__114__split_bufferINS_12basic_stringIcNS_11char_traitsIcEENS_9allocatorIcEEEERNS4_IS6_EEEC1EmmS8_, symObjAddr: 0x21D0, symBinAddr: 0x100003974, symSize: 0x44 }
  - { offsetInCU: 0x1BCA8, offset: 0x1BCA8, size: 0x8, addend: 0x0, symName: __ZNSt3__114__split_bufferINS_12basic_stringIcNS_11char_traitsIcEENS_9allocatorIcEEEERNS4_IS6_EEED1Ev, symObjAddr: 0x232C, symBinAddr: 0x100003AD0, symSize: 0x2C }
  - { offsetInCU: 0x1BCD4, offset: 0x1BCD4, size: 0x8, addend: 0x0, symName: __ZNKSt3__16vectorINS_12basic_stringIcNS_11char_traitsIcEENS_9allocatorIcEEEENS4_IS6_EEE8max_sizeEv, symObjAddr: 0x2358, symBinAddr: 0x100003AFC, symSize: 0x60 }
  - { offsetInCU: 0x1BCFC, offset: 0x1BCFC, size: 0x8, addend: 0x0, symName: __ZNKSt3__16vectorINS_12basic_stringIcNS_11char_traitsIcEENS_9allocatorIcEEEENS4_IS6_EEE20__throw_length_errorB7v160006Ev, symObjAddr: 0x23B8, symBinAddr: 0x100003B5C, symSize: 0x1C }
  - { offsetInCU: 0x1BD22, offset: 0x1BD22, size: 0x8, addend: 0x0, symName: __ZNKSt3__16vectorINS_12basic_stringIcNS_11char_traitsIcEENS_9allocatorIcEEEENS4_IS6_EEE8capacityB7v160006Ev, symObjAddr: 0x23D4, symBinAddr: 0x100003B78, symSize: 0x40 }
  - { offsetInCU: 0x1BD53, offset: 0x1BD53, size: 0x8, addend: 0x0, symName: __ZNSt3__116allocator_traitsINS_9allocatorINS_12basic_stringIcNS_11char_traitsIcEENS1_IcEEEEEEE8max_sizeB7v160006IS7_vvEEmRKS7_, symObjAddr: 0x246C, symBinAddr: 0x100003C10, symSize: 0x28 }
  - { offsetInCU: 0x1BD7F, offset: 0x1BD7F, size: 0x8, addend: 0x0, symName: __ZNKSt3__16vectorINS_12basic_stringIcNS_11char_traitsIcEENS_9allocatorIcEEEENS4_IS6_EEE7__allocB7v160006Ev, symObjAddr: 0x2494, symBinAddr: 0x100003C38, symSize: 0x28 }
  - { offsetInCU: 0x1BDA5, offset: 0x1BDA5, size: 0x8, addend: 0x0, symName: __ZNSt3__114numeric_limitsIlE3maxB7v160006Ev, symObjAddr: 0x24BC, symBinAddr: 0x100003C60, symSize: 0x14 }
  - { offsetInCU: 0x1BDCE, offset: 0x1BDCE, size: 0x8, addend: 0x0, symName: __ZNKSt3__16__lessImmEclB7v160006ERKmS3_, symObjAddr: 0x2524, symBinAddr: 0x100003CC8, symSize: 0x34 }
  - { offsetInCU: 0x1BE10, offset: 0x1BE10, size: 0x8, addend: 0x0, symName: __ZNSt3__114numeric_limitsImE3maxB7v160006Ev, symObjAddr: 0x2558, symBinAddr: 0x100003CFC, symSize: 0x14 }
  - { offsetInCU: 0x1BE24, offset: 0x1BE24, size: 0x8, addend: 0x0, symName: __ZNSt3__123__libcpp_numeric_limitsImLb1EE3maxB7v160006Ev, symObjAddr: 0x256C, symBinAddr: 0x100003D10, symSize: 0x8 }
  - { offsetInCU: 0x1BE38, offset: 0x1BE38, size: 0x8, addend: 0x0, symName: __ZNKSt3__117__compressed_pairIPNS_12basic_stringIcNS_11char_traitsIcEENS_9allocatorIcEEEENS4_IS6_EEE6secondB7v160006Ev, symObjAddr: 0x2574, symBinAddr: 0x100003D18, symSize: 0x24 }
  - { offsetInCU: 0x1BE5E, offset: 0x1BE5E, size: 0x8, addend: 0x0, symName: __ZNKSt3__122__compressed_pair_elemINS_9allocatorINS_12basic_stringIcNS_11char_traitsIcEENS1_IcEEEEEELi1ELb1EE5__getB7v160006Ev, symObjAddr: 0x2598, symBinAddr: 0x100003D3C, symSize: 0x14 }
  - { offsetInCU: 0x1BE84, offset: 0x1BE84, size: 0x8, addend: 0x0, symName: __ZNSt3__123__libcpp_numeric_limitsIlLb1EE3maxB7v160006Ev, symObjAddr: 0x25AC, symBinAddr: 0x100003D50, symSize: 0x8 }
  - { offsetInCU: 0x1BE98, offset: 0x1BE98, size: 0x8, addend: 0x0, symName: __ZNSt12length_errorC1B7v160006EPKc, symObjAddr: 0x2618, symBinAddr: 0x100003DBC, symSize: 0x34 }
  - { offsetInCU: 0x1BED0, offset: 0x1BED0, size: 0x8, addend: 0x0, symName: __ZNSt12length_errorC2B7v160006EPKc, symObjAddr: 0x264C, symBinAddr: 0x100003DF0, symSize: 0x4C }
  - { offsetInCU: 0x1BF08, offset: 0x1BF08, size: 0x8, addend: 0x0, symName: __ZNKSt3__16vectorINS_12basic_stringIcNS_11char_traitsIcEENS_9allocatorIcEEEENS4_IS6_EEE9__end_capB7v160006Ev, symObjAddr: 0x2698, symBinAddr: 0x100003E3C, symSize: 0x28 }
  - { offsetInCU: 0x1BF2E, offset: 0x1BF2E, size: 0x8, addend: 0x0, symName: __ZNKSt3__117__compressed_pairIPNS_12basic_stringIcNS_11char_traitsIcEENS_9allocatorIcEEEENS4_IS6_EEE5firstB7v160006Ev, symObjAddr: 0x26C0, symBinAddr: 0x100003E64, symSize: 0x24 }
  - { offsetInCU: 0x1BF54, offset: 0x1BF54, size: 0x8, addend: 0x0, symName: __ZNKSt3__122__compressed_pair_elemIPNS_12basic_stringIcNS_11char_traitsIcEENS_9allocatorIcEEEELi0ELb0EE5__getB7v160006Ev, symObjAddr: 0x26E4, symBinAddr: 0x100003E88, symSize: 0x14 }
  - { offsetInCU: 0x1BF7A, offset: 0x1BF7A, size: 0x8, addend: 0x0, symName: __ZNSt3__114__split_bufferINS_12basic_stringIcNS_11char_traitsIcEENS_9allocatorIcEEEERNS4_IS6_EEEC2EmmS8_, symObjAddr: 0x274C, symBinAddr: 0x100003EF0, symSize: 0xE0 }
  - { offsetInCU: 0x1BFED, offset: 0x1BFED, size: 0x8, addend: 0x0, symName: __ZNSt3__117__compressed_pairIPNS_12basic_stringIcNS_11char_traitsIcEENS_9allocatorIcEEEERNS4_IS6_EEEC1B7v160006IDnS9_EEOT_OT0_, symObjAddr: 0x282C, symBinAddr: 0x100003FD0, symSize: 0x3C }
  - { offsetInCU: 0x1C045, offset: 0x1C045, size: 0x8, addend: 0x0, symName: __ZNSt3__114__split_bufferINS_12basic_stringIcNS_11char_traitsIcEENS_9allocatorIcEEEERNS4_IS6_EEE7__allocB7v160006Ev, symObjAddr: 0x28A8, symBinAddr: 0x10000404C, symSize: 0x28 }
  - { offsetInCU: 0x1C06B, offset: 0x1C06B, size: 0x8, addend: 0x0, symName: __ZNSt3__114__split_bufferINS_12basic_stringIcNS_11char_traitsIcEENS_9allocatorIcEEEERNS4_IS6_EEE9__end_capB7v160006Ev, symObjAddr: 0x28D0, symBinAddr: 0x100004074, symSize: 0x28 }
  - { offsetInCU: 0x1C091, offset: 0x1C091, size: 0x8, addend: 0x0, symName: __ZNSt3__117__compressed_pairIPNS_12basic_stringIcNS_11char_traitsIcEENS_9allocatorIcEEEERNS4_IS6_EEEC2B7v160006IDnS9_EEOT_OT0_, symObjAddr: 0x28F8, symBinAddr: 0x10000409C, symSize: 0x48 }
  - { offsetInCU: 0x1C0E9, offset: 0x1C0E9, size: 0x8, addend: 0x0, symName: __ZNSt3__122__compressed_pair_elemIRNS_9allocatorINS_12basic_stringIcNS_11char_traitsIcEENS1_IcEEEEEELi1ELb0EEC2B7v160006IS8_vEEOT_, symObjAddr: 0x2940, symBinAddr: 0x1000040E4, symSize: 0x20 }
  - { offsetInCU: 0x1C12B, offset: 0x1C12B, size: 0x8, addend: 0x0, symName: __ZNSt3__19allocatorINS_12basic_stringIcNS_11char_traitsIcEENS0_IcEEEEE8allocateB7v160006Em, symObjAddr: 0x2960, symBinAddr: 0x100004104, symSize: 0x5C }
  - { offsetInCU: 0x1C15F, offset: 0x1C15F, size: 0x8, addend: 0x0, symName: __ZNSt3__117__compressed_pairIPNS_12basic_stringIcNS_11char_traitsIcEENS_9allocatorIcEEEERNS4_IS6_EEE6secondB7v160006Ev, symObjAddr: 0x2AA0, symBinAddr: 0x100004244, symSize: 0x28 }
  - { offsetInCU: 0x1C185, offset: 0x1C185, size: 0x8, addend: 0x0, symName: __ZNSt3__122__compressed_pair_elemIRNS_9allocatorINS_12basic_stringIcNS_11char_traitsIcEENS1_IcEEEEEELi1ELb0EE5__getB7v160006Ev, symObjAddr: 0x2AC8, symBinAddr: 0x10000426C, symSize: 0x18 }
  - { offsetInCU: 0x1C1AB, offset: 0x1C1AB, size: 0x8, addend: 0x0, symName: __ZNSt3__117__compressed_pairIPNS_12basic_stringIcNS_11char_traitsIcEENS_9allocatorIcEEEERNS4_IS6_EEE5firstB7v160006Ev, symObjAddr: 0x2AE0, symBinAddr: 0x100004284, symSize: 0x24 }
  - { offsetInCU: 0x1C1D1, offset: 0x1C1D1, size: 0x8, addend: 0x0, symName: __ZNKSt3__16vectorINS_12basic_stringIcNS_11char_traitsIcEENS_9allocatorIcEEEENS4_IS6_EEE17__annotate_deleteB7v160006Ev, symObjAddr: 0x2B04, symBinAddr: 0x1000042A8, symSize: 0xD4 }
  - { offsetInCU: 0x1C1F7, offset: 0x1C1F7, size: 0x8, addend: 0x0, symName: __ZNSt3__116reverse_iteratorIPNS_12basic_stringIcNS_11char_traitsIcEENS_9allocatorIcEEEEEC1B7v160006ES7_, symObjAddr: 0x2D04, symBinAddr: 0x1000044A8, symSize: 0x34 }
  - { offsetInCU: 0x1C22F, offset: 0x1C22F, size: 0x8, addend: 0x0, symName: __ZNKSt3__116reverse_iteratorIPNS_12basic_stringIcNS_11char_traitsIcEENS_9allocatorIcEEEEE4baseB7v160006Ev, symObjAddr: 0x2D38, symBinAddr: 0x1000044DC, symSize: 0x18 }
  - { offsetInCU: 0x1C255, offset: 0x1C255, size: 0x8, addend: 0x0, symName: __ZNKSt3__16vectorINS_12basic_stringIcNS_11char_traitsIcEENS_9allocatorIcEEEENS4_IS6_EEE14__annotate_newB7v160006Em, symObjAddr: 0x2D8C, symBinAddr: 0x100004530, symSize: 0xC8 }
  - { offsetInCU: 0x1C28A, offset: 0x1C28A, size: 0x8, addend: 0x0, symName: __ZNKSt3__16vectorINS_12basic_stringIcNS_11char_traitsIcEENS_9allocatorIcEEEENS4_IS6_EEE31__annotate_contiguous_containerB7v160006EPKvSA_SA_SA_, symObjAddr: 0x2E64, symBinAddr: 0x100004608, symSize: 0x20 }
  - { offsetInCU: 0x1C2E0, offset: 0x1C2E0, size: 0x8, addend: 0x0, symName: __ZNKSt3__16vectorINS_12basic_stringIcNS_11char_traitsIcEENS_9allocatorIcEEEENS4_IS6_EEE4dataB7v160006Ev, symObjAddr: 0x2E84, symBinAddr: 0x100004628, symSize: 0x28 }
  - { offsetInCU: 0x1C306, offset: 0x1C306, size: 0x8, addend: 0x0, symName: __ZNSt3__129_AllocatorDestroyRangeReverseINS_9allocatorINS_12basic_stringIcNS_11char_traitsIcEENS1_IcEEEEEENS_16reverse_iteratorIPS6_EEEC1B7v160006ERS7_RSA_SD_, symObjAddr: 0x2EF8, symBinAddr: 0x10000469C, symSize: 0x44 }
  - { offsetInCU: 0x1C363, offset: 0x1C363, size: 0x8, addend: 0x0, symName: __ZNSt3__116allocator_traitsINS_9allocatorINS_12basic_stringIcNS_11char_traitsIcEENS1_IcEEEEEEE9constructB7v160006IS6_JS6_EvvEEvRS7_PT_DpOT0_, symObjAddr: 0x2F84, symBinAddr: 0x100004728, symSize: 0x30 }
  - { offsetInCU: 0x1C3B8, offset: 0x1C3B8, size: 0x8, addend: 0x0, symName: __ZNKSt3__116reverse_iteratorIPNS_12basic_stringIcNS_11char_traitsIcEENS_9allocatorIcEEEEEdeB7v160006Ev, symObjAddr: 0x2FD8, symBinAddr: 0x10000477C, symSize: 0x28 }
  - { offsetInCU: 0x1C3EC, offset: 0x1C3EC, size: 0x8, addend: 0x0, symName: __ZNSt3__116reverse_iteratorIPNS_12basic_stringIcNS_11char_traitsIcEENS_9allocatorIcEEEEEppB7v160006Ev, symObjAddr: 0x3000, symBinAddr: 0x1000047A4, symSize: 0x20 }
  - { offsetInCU: 0x1C412, offset: 0x1C412, size: 0x8, addend: 0x0, symName: __ZNSt3__128__exception_guard_exceptionsINS_29_AllocatorDestroyRangeReverseINS_9allocatorINS_12basic_stringIcNS_11char_traitsIcEENS2_IcEEEEEENS_16reverse_iteratorIPS7_EEEEE10__completeB7v160006Ev, symObjAddr: 0x3020, symBinAddr: 0x1000047C4, symSize: 0x1C }
  - { offsetInCU: 0x1C438, offset: 0x1C438, size: 0x8, addend: 0x0, symName: __ZNSt3__128__exception_guard_exceptionsINS_29_AllocatorDestroyRangeReverseINS_9allocatorINS_12basic_stringIcNS_11char_traitsIcEENS2_IcEEEEEENS_16reverse_iteratorIPS7_EEEEED1B7v160006Ev, symObjAddr: 0x303C, symBinAddr: 0x1000047E0, symSize: 0x2C }
  - { offsetInCU: 0x1C462, offset: 0x1C462, size: 0x8, addend: 0x0, symName: __ZNSt3__128__exception_guard_exceptionsINS_29_AllocatorDestroyRangeReverseINS_9allocatorINS_12basic_stringIcNS_11char_traitsIcEENS2_IcEEEEEENS_16reverse_iteratorIPS7_EEEEEC1B7v160006ESC_, symObjAddr: 0x3068, symBinAddr: 0x10000480C, symSize: 0x34 }
  - { offsetInCU: 0x1C49B, offset: 0x1C49B, size: 0x8, addend: 0x0, symName: __ZNSt3__128__exception_guard_exceptionsINS_29_AllocatorDestroyRangeReverseINS_9allocatorINS_12basic_stringIcNS_11char_traitsIcEENS2_IcEEEEEENS_16reverse_iteratorIPS7_EEEEEC2B7v160006ESC_, symObjAddr: 0x309C, symBinAddr: 0x100004840, symSize: 0x30 }
  - { offsetInCU: 0x1C4D4, offset: 0x1C4D4, size: 0x8, addend: 0x0, symName: __ZNSt3__129_AllocatorDestroyRangeReverseINS_9allocatorINS_12basic_stringIcNS_11char_traitsIcEENS1_IcEEEEEENS_16reverse_iteratorIPS6_EEEC2B7v160006ERS7_RSA_SD_, symObjAddr: 0x30CC, symBinAddr: 0x100004870, symSize: 0x38 }
  - { offsetInCU: 0x1C52B, offset: 0x1C52B, size: 0x8, addend: 0x0, symName: __ZNSt3__112basic_stringIcNS_11char_traitsIcEENS_9allocatorIcEEEC1B7v160006EOS5_, symObjAddr: 0x3140, symBinAddr: 0x1000048E4, symSize: 0x34 }
  - { offsetInCU: 0x1C564, offset: 0x1C564, size: 0x8, addend: 0x0, symName: __ZNSt3__112basic_stringIcNS_11char_traitsIcEENS_9allocatorIcEEEC2B7v160006EOS5_, symObjAddr: 0x3174, symBinAddr: 0x100004918, symSize: 0x80 }
  - { offsetInCU: 0x1C5A3, offset: 0x1C5A3, size: 0x8, addend: 0x0, symName: __ZNSt3__119__to_address_helperINS_16reverse_iteratorIPNS_12basic_stringIcNS_11char_traitsIcEENS_9allocatorIcEEEEEEvE6__callB7v160006ERKS9_, symObjAddr: 0x3208, symBinAddr: 0x1000049AC, symSize: 0x38 }
  - { offsetInCU: 0x1C5C6, offset: 0x1C5C6, size: 0x8, addend: 0x0, symName: __ZNKSt3__116reverse_iteratorIPNS_12basic_stringIcNS_11char_traitsIcEENS_9allocatorIcEEEEEptB7v160006Ev, symObjAddr: 0x3240, symBinAddr: 0x1000049E4, symSize: 0x2C }
  - { offsetInCU: 0x1C5EC, offset: 0x1C5EC, size: 0x8, addend: 0x0, symName: __ZNSt3__128__exception_guard_exceptionsINS_29_AllocatorDestroyRangeReverseINS_9allocatorINS_12basic_stringIcNS_11char_traitsIcEENS2_IcEEEEEENS_16reverse_iteratorIPS7_EEEEED2B7v160006Ev, symObjAddr: 0x3350, symBinAddr: 0x100004AF4, symSize: 0x50 }
  - { offsetInCU: 0x1C616, offset: 0x1C616, size: 0x8, addend: 0x0, symName: __ZNKSt3__129_AllocatorDestroyRangeReverseINS_9allocatorINS_12basic_stringIcNS_11char_traitsIcEENS1_IcEEEEEENS_16reverse_iteratorIPS6_EEEclB7v160006Ev, symObjAddr: 0x33A0, symBinAddr: 0x100004B44, symSize: 0xB4 }
  - { offsetInCU: 0x1C63D, offset: 0x1C63D, size: 0x8, addend: 0x0, symName: __ZNSt3__116reverse_iteratorINS0_IPNS_12basic_stringIcNS_11char_traitsIcEENS_9allocatorIcEEEEEEEC1B7v160006ES8_, symObjAddr: 0x34C4, symBinAddr: 0x100004C68, symSize: 0x3C }
  - { offsetInCU: 0x1C675, offset: 0x1C675, size: 0x8, addend: 0x0, symName: __ZNSt3__116allocator_traitsINS_9allocatorINS_12basic_stringIcNS_11char_traitsIcEENS1_IcEEEEEEE7destroyB7v160006IS6_vvEEvRS7_PT_, symObjAddr: 0x3560, symBinAddr: 0x100004D04, symSize: 0x28 }
  - { offsetInCU: 0x1C6B0, offset: 0x1C6B0, size: 0x8, addend: 0x0, symName: __ZNSt3__116reverse_iteratorINS0_IPNS_12basic_stringIcNS_11char_traitsIcEENS_9allocatorIcEEEEEEEppB7v160006Ev, symObjAddr: 0x35AC, symBinAddr: 0x100004D50, symSize: 0x30 }
  - { offsetInCU: 0x1C6D6, offset: 0x1C6D6, size: 0x8, addend: 0x0, symName: __ZNKSt3__116reverse_iteratorINS0_IPNS_12basic_stringIcNS_11char_traitsIcEENS_9allocatorIcEEEEEEE4baseB7v160006Ev, symObjAddr: 0x35DC, symBinAddr: 0x100004D80, symSize: 0x24 }
  - { offsetInCU: 0x1C702, offset: 0x1C702, size: 0x8, addend: 0x0, symName: __ZNSt3__119__to_address_helperINS_16reverse_iteratorINS1_IPNS_12basic_stringIcNS_11char_traitsIcEENS_9allocatorIcEEEEEEEEvE6__callB7v160006ERKSA_, symObjAddr: 0x3648, symBinAddr: 0x100004DEC, symSize: 0x38 }
  - { offsetInCU: 0x1C725, offset: 0x1C725, size: 0x8, addend: 0x0, symName: __ZNKSt3__116reverse_iteratorINS0_IPNS_12basic_stringIcNS_11char_traitsIcEENS_9allocatorIcEEEEEEEptB7v160006Ev, symObjAddr: 0x3680, symBinAddr: 0x100004E24, symSize: 0x4C }
  - { offsetInCU: 0x1C74B, offset: 0x1C74B, size: 0x8, addend: 0x0, symName: __ZNSt3__116reverse_iteratorIPNS_12basic_stringIcNS_11char_traitsIcEENS_9allocatorIcEEEEEpLB7v160006El, symObjAddr: 0x37A8, symBinAddr: 0x100004F4C, symSize: 0x30 }
  - { offsetInCU: 0x1C77F, offset: 0x1C77F, size: 0x8, addend: 0x0, symName: __ZNSt3__116reverse_iteratorIPNS_12basic_stringIcNS_11char_traitsIcEENS_9allocatorIcEEEEEmmB7v160006Ev, symObjAddr: 0x37D8, symBinAddr: 0x100004F7C, symSize: 0x20 }
  - { offsetInCU: 0x1C7A5, offset: 0x1C7A5, size: 0x8, addend: 0x0, symName: __ZNSt3__116reverse_iteratorINS0_IPNS_12basic_stringIcNS_11char_traitsIcEENS_9allocatorIcEEEEEEEC2B7v160006ES8_, symObjAddr: 0x37F8, symBinAddr: 0x100004F9C, symSize: 0x2C }
  - { offsetInCU: 0x1C7DD, offset: 0x1C7DD, size: 0x8, addend: 0x0, symName: __ZNSt3__116reverse_iteratorIPNS_12basic_stringIcNS_11char_traitsIcEENS_9allocatorIcEEEEEC2B7v160006ES7_, symObjAddr: 0x3824, symBinAddr: 0x100004FC8, symSize: 0x28 }
  - { offsetInCU: 0x1C815, offset: 0x1C815, size: 0x8, addend: 0x0, symName: __ZNSt3__114__split_bufferINS_12basic_stringIcNS_11char_traitsIcEENS_9allocatorIcEEEERNS4_IS6_EEED2Ev, symObjAddr: 0x384C, symBinAddr: 0x100004FF0, symSize: 0x8C }
  - { offsetInCU: 0x1C841, offset: 0x1C841, size: 0x8, addend: 0x0, symName: __ZNSt3__114__split_bufferINS_12basic_stringIcNS_11char_traitsIcEENS_9allocatorIcEEEERNS4_IS6_EEE5clearB7v160006Ev, symObjAddr: 0x38D8, symBinAddr: 0x10000507C, symSize: 0x28 }
  - { offsetInCU: 0x1C867, offset: 0x1C867, size: 0x8, addend: 0x0, symName: __ZNSt3__116allocator_traitsINS_9allocatorINS_12basic_stringIcNS_11char_traitsIcEENS1_IcEEEEEEE10deallocateB7v160006ERS7_PS6_m, symObjAddr: 0x3900, symBinAddr: 0x1000050A4, symSize: 0x34 }
  - { offsetInCU: 0x1C8A9, offset: 0x1C8A9, size: 0x8, addend: 0x0, symName: __ZNKSt3__114__split_bufferINS_12basic_stringIcNS_11char_traitsIcEENS_9allocatorIcEEEERNS4_IS6_EEE8capacityB7v160006Ev, symObjAddr: 0x3934, symBinAddr: 0x1000050D8, symSize: 0x40 }
  - { offsetInCU: 0x1C8CF, offset: 0x1C8CF, size: 0x8, addend: 0x0, symName: __ZNSt3__114__split_bufferINS_12basic_stringIcNS_11char_traitsIcEENS_9allocatorIcEEEERNS4_IS6_EEE17__destruct_at_endB7v160006EPS6_, symObjAddr: 0x3974, symBinAddr: 0x100005118, symSize: 0x2C }
  - { offsetInCU: 0x1C903, offset: 0x1C903, size: 0x8, addend: 0x0, symName: __ZNSt3__114__split_bufferINS_12basic_stringIcNS_11char_traitsIcEENS_9allocatorIcEEEERNS4_IS6_EEE17__destruct_at_endB7v160006EPS6_NS_17integral_constantIbLb0EEE, symObjAddr: 0x39A0, symBinAddr: 0x100005144, symSize: 0x80 }
  - { offsetInCU: 0x1C943, offset: 0x1C943, size: 0x8, addend: 0x0, symName: __ZNSt3__19allocatorINS_12basic_stringIcNS_11char_traitsIcEENS0_IcEEEEE10deallocateB7v160006EPS5_m, symObjAddr: 0x3A20, symBinAddr: 0x1000051C4, symSize: 0x44 }
  - { offsetInCU: 0x1C985, offset: 0x1C985, size: 0x8, addend: 0x0, symName: __ZNKSt3__114__split_bufferINS_12basic_stringIcNS_11char_traitsIcEENS_9allocatorIcEEEERNS4_IS6_EEE9__end_capB7v160006Ev, symObjAddr: 0x3A64, symBinAddr: 0x100005208, symSize: 0x28 }
  - { offsetInCU: 0x1C9AB, offset: 0x1C9AB, size: 0x8, addend: 0x0, symName: __ZNKSt3__117__compressed_pairIPNS_12basic_stringIcNS_11char_traitsIcEENS_9allocatorIcEEEERNS4_IS6_EEE5firstB7v160006Ev, symObjAddr: 0x3A8C, symBinAddr: 0x100005230, symSize: 0x24 }
  - { offsetInCU: 0x1C9D1, offset: 0x1C9D1, size: 0x8, addend: 0x0, symName: __ZNSt3__16vectorINS_12basic_stringIcNS_11char_traitsIcEENS_9allocatorIcEEEENS4_IS6_EEE22__construct_one_at_endB7v160006IJS6_EEEvDpOT_, symObjAddr: 0x3AB0, symBinAddr: 0x100005254, symSize: 0x90 }
  - { offsetInCU: 0x1CA20, offset: 0x1CA20, size: 0x8, addend: 0x0, symName: __ZNSt3__16vectorINS_12basic_stringIcNS_11char_traitsIcEENS_9allocatorIcEEEENS4_IS6_EEE21__push_back_slow_pathIS6_EEvOT_, symObjAddr: 0x3B40, symBinAddr: 0x1000052E4, symSize: 0xD8 }
  - { offsetInCU: 0x1CA7E, offset: 0x1CA7E, size: 0x8, addend: 0x0, symName: __ZNSt3__16vectorINS_12basic_stringIcNS_11char_traitsIcEENS_9allocatorIcEEEENS4_IS6_EEED2B7v160006Ev, symObjAddr: 0x3C18, symBinAddr: 0x1000053BC, symSize: 0x44 }
  - { offsetInCU: 0x1CAA8, offset: 0x1CAA8, size: 0x8, addend: 0x0, symName: __ZNSt3__16vectorINS_12basic_stringIcNS_11char_traitsIcEENS_9allocatorIcEEEENS4_IS6_EEE16__destroy_vectorC1ERS8_, symObjAddr: 0x3C5C, symBinAddr: 0x100005400, symSize: 0x34 }
  - { offsetInCU: 0x1CAE1, offset: 0x1CAE1, size: 0x8, addend: 0x0, symName: __ZNSt3__16vectorINS_12basic_stringIcNS_11char_traitsIcEENS_9allocatorIcEEEENS4_IS6_EEE16__destroy_vectorclB7v160006Ev, symObjAddr: 0x3C90, symBinAddr: 0x100005434, symSize: 0x9C }
  - { offsetInCU: 0x1CB07, offset: 0x1CB07, size: 0x8, addend: 0x0, symName: __ZNSt3__16vectorINS_12basic_stringIcNS_11char_traitsIcEENS_9allocatorIcEEEENS4_IS6_EEE16__destroy_vectorC2ERS8_, symObjAddr: 0x3D2C, symBinAddr: 0x1000054D0, symSize: 0x20 }
  - { offsetInCU: 0x1CB40, offset: 0x1CB40, size: 0x8, addend: 0x0, symName: __ZNSt3__16vectorINS_12basic_stringIcNS_11char_traitsIcEENS_9allocatorIcEEEENS4_IS6_EEE7__clearB7v160006Ev, symObjAddr: 0x3D5C, symBinAddr: 0x100005500, symSize: 0x28 }
  - { offsetInCU: 0x1CB66, offset: 0x1CB66, size: 0x8, addend: 0x0, symName: __ZNSt3__16vectorINS_12basic_stringIcNS_11char_traitsIcEENS_9allocatorIcEEEENS4_IS6_EEE22__base_destruct_at_endB7v160006EPS6_, symObjAddr: 0x3D84, symBinAddr: 0x100005528, symSize: 0x8C }
  - { offsetInCU: 0x1CBAA, offset: 0x1CBAA, size: 0x8, addend: 0x0, symName: __ZNSt3__112basic_stringIcNS_11char_traitsIcEENS_9allocatorIcEEEC2B7v160006IDnEEPKc, symObjAddr: 0x3E10, symBinAddr: 0x1000055B4, symSize: 0x60 }
  - { offsetInCU: 0x1CBE8, offset: 0x1CBE8, size: 0x8, addend: 0x0, symName: __ZNSt3__111char_traitsIcE6lengthEPKc, symObjAddr: 0x3E70, symBinAddr: 0x100005614, symSize: 0x34 }
  - { offsetInCU: 0x1CC0B, offset: 0x1CC0B, size: 0x8, addend: 0x0, symName: __ZN8SolutionC2ENSt3__112basic_stringIcNS0_11char_traitsIcEENS0_9allocatorIcEEEE, symObjAddr: 0x3EC8, symBinAddr: 0x10000566C, symSize: 0x9C }
  - { offsetInCU: 0x1CC44, offset: 0x1CC44, size: 0x8, addend: 0x0, symName: __ZNSt3__113basic_fstreamIcNS_11char_traitsIcEEEC1Ev, symObjAddr: 0x3F64, symBinAddr: 0x100005708, symSize: 0x100 }
  - { offsetInCU: 0x1CC70, offset: 0x1CC70, size: 0x8, addend: 0x0, symName: __ZNSt3__113basic_fstreamIcNS_11char_traitsIcEEE4openERKNS_12basic_stringIcS2_NS_9allocatorIcEEEEj, symObjAddr: 0x4064, symBinAddr: 0x100005808, symSize: 0x84 }
  - { offsetInCU: 0x1CCB6, offset: 0x1CCB6, size: 0x8, addend: 0x0, symName: __ZN8Solution5parseEv, symObjAddr: 0x40E8, symBinAddr: 0x10000588C, symSize: 0x104 }
  - { offsetInCU: 0x1CCEA, offset: 0x1CCEA, size: 0x8, addend: 0x0, symName: __ZNSt3__113basic_fstreamIcNS_11char_traitsIcEEE5closeEv, symObjAddr: 0x41EC, symBinAddr: 0x100005990, symSize: 0x58 }
  - { offsetInCU: 0x1CD17, offset: 0x1CD17, size: 0x8, addend: 0x0, symName: __ZNSt3__113basic_fstreamIcNS_11char_traitsIcEEED1Ev, symObjAddr: 0x4244, symBinAddr: 0x1000059E8, symSize: 0x40 }
  - { offsetInCU: 0x1CD43, offset: 0x1CD43, size: 0x8, addend: 0x0, symName: __ZNSt3__19basic_iosIcNS_11char_traitsIcEEEC2B7v160006Ev, symObjAddr: 0x4284, symBinAddr: 0x100005A28, symSize: 0x44 }
  - { offsetInCU: 0x1CD6D, offset: 0x1CD6D, size: 0x8, addend: 0x0, symName: __ZNSt3__114basic_iostreamIcNS_11char_traitsIcEEEC2B7v160006EPNS_15basic_streambufIcS2_EE, symObjAddr: 0x42C8, symBinAddr: 0x100005A6C, symSize: 0xAC }
  - { offsetInCU: 0x1CDB3, offset: 0x1CDB3, size: 0x8, addend: 0x0, symName: __ZNSt3__113basic_fstreamIcNS_11char_traitsIcEEED0Ev, symObjAddr: 0x4374, symBinAddr: 0x100005B18, symSize: 0x30 }
  - { offsetInCU: 0x1CDDF, offset: 0x1CDDF, size: 0x8, addend: 0x0, symName: __ZThn16_NSt3__113basic_fstreamIcNS_11char_traitsIcEEED1Ev, symObjAddr: 0x43A4, symBinAddr: 0x100005B48, symSize: 0x1C }
  - { offsetInCU: 0x1CDF5, offset: 0x1CDF5, size: 0x8, addend: 0x0, symName: __ZThn16_NSt3__113basic_fstreamIcNS_11char_traitsIcEEED0Ev, symObjAddr: 0x43C0, symBinAddr: 0x100005B64, symSize: 0x18 }
  - { offsetInCU: 0x1CE0B, offset: 0x1CE0B, size: 0x8, addend: 0x0, symName: __ZTv0_n24_NSt3__113basic_fstreamIcNS_11char_traitsIcEEED1Ev, symObjAddr: 0x43D8, symBinAddr: 0x100005B7C, symSize: 0x28 }
  - { offsetInCU: 0x1CE21, offset: 0x1CE21, size: 0x8, addend: 0x0, symName: __ZTv0_n24_NSt3__113basic_fstreamIcNS_11char_traitsIcEEED0Ev, symObjAddr: 0x4400, symBinAddr: 0x100005BA4, symSize: 0x20 }
  - { offsetInCU: 0x1CE37, offset: 0x1CE37, size: 0x8, addend: 0x0, symName: __ZNSt3__18ios_baseC2B7v160006Ev, symObjAddr: 0x4420, symBinAddr: 0x100005BC4, symSize: 0x24 }
  - { offsetInCU: 0x1CE61, offset: 0x1CE61, size: 0x8, addend: 0x0, symName: __ZNSt3__113basic_istreamIcNS_11char_traitsIcEEEC2B7v160006EPNS_15basic_streambufIcS2_EE, symObjAddr: 0x4444, symBinAddr: 0x100005BE8, symSize: 0x64 }
  - { offsetInCU: 0x1CEA6, offset: 0x1CEA6, size: 0x8, addend: 0x0, symName: __ZNSt3__113basic_ostreamIcNS_11char_traitsIcEEEC2B7v160006Ev, symObjAddr: 0x44A8, symBinAddr: 0x100005C4C, symSize: 0x34 }
  - { offsetInCU: 0x1CEDD, offset: 0x1CEDD, size: 0x8, addend: 0x0, symName: __ZNSt3__19basic_iosIcNS_11char_traitsIcEEE4initB7v160006EPNS_15basic_streambufIcS2_EE, symObjAddr: 0x44DC, symBinAddr: 0x100005C80, symSize: 0x44 }
  - { offsetInCU: 0x1CF14, offset: 0x1CF14, size: 0x8, addend: 0x0, symName: __ZNSt3__111char_traitsIcE3eofEv, symObjAddr: 0x4520, symBinAddr: 0x100005CC4, symSize: 0x8 }
  - { offsetInCU: 0x1CF28, offset: 0x1CF28, size: 0x8, addend: 0x0, symName: __ZNSt3__113basic_filebufIcNS_11char_traitsIcEEE4openERKNS_12basic_stringIcS2_NS_9allocatorIcEEEEj, symObjAddr: 0x4528, symBinAddr: 0x100005CCC, symSize: 0x44 }
  - { offsetInCU: 0x1CF6C, offset: 0x1CF6C, size: 0x8, addend: 0x0, symName: __ZNSt3__19basic_iosIcNS_11char_traitsIcEEE5clearB7v160006Ej, symObjAddr: 0x456C, symBinAddr: 0x100005D10, symSize: 0x2C }
  - { offsetInCU: 0x1CFA1, offset: 0x1CFA1, size: 0x8, addend: 0x0, symName: __ZNSt3__19basic_iosIcNS_11char_traitsIcEEE8setstateB7v160006Ej, symObjAddr: 0x4598, symBinAddr: 0x100005D3C, symSize: 0x2C }
  - { offsetInCU: 0x1CFD6, offset: 0x1CFD6, size: 0x8, addend: 0x0, symName: __ZNKSt3__112basic_stringIcNS_11char_traitsIcEENS_9allocatorIcEEE5c_strB7v160006Ev, symObjAddr: 0x45C4, symBinAddr: 0x100005D68, symSize: 0x24 }
  - { offsetInCU: 0x1CFFC, offset: 0x1CFFC, size: 0x8, addend: 0x0, symName: __ZNSt3__18ios_base8setstateB7v160006Ej, symObjAddr: 0x45E8, symBinAddr: 0x100005D8C, symSize: 0x34 }
  - { offsetInCU: 0x1D033, offset: 0x1D033, size: 0x8, addend: 0x0, symName: __ZNSt3__16vectorINS_12basic_stringIcNS_11char_traitsIcEENS_9allocatorIcEEEENS4_IS6_EEEaSB7v160006EOS8_, symObjAddr: 0x4678, symBinAddr: 0x100005E1C, symSize: 0x34 }
  - { offsetInCU: 0x1D06A, offset: 0x1D06A, size: 0x8, addend: 0x0, symName: __ZNKSt3__19basic_iosIcNS_11char_traitsIcEEE5widenB7v160006Ec, symObjAddr: 0x48E4, symBinAddr: 0x100006088, symSize: 0x84 }
  - { offsetInCU: 0x1D0C2, offset: 0x1D0C2, size: 0x8, addend: 0x0, symName: __ZNKSt3__113basic_istreamIcNS_11char_traitsIcEEE6sentrycvbB7v160006Ev, symObjAddr: 0x4968, symBinAddr: 0x10000610C, symSize: 0x1C }
  - { offsetInCU: 0x1D0E8, offset: 0x1D0E8, size: 0x8, addend: 0x0, symName: __ZNSt3__112basic_stringIcNS_11char_traitsIcEENS_9allocatorIcEEE5clearB7v160006Ev, symObjAddr: 0x4984, symBinAddr: 0x100006128, symSize: 0x88 }
  - { offsetInCU: 0x1D110, offset: 0x1D110, size: 0x8, addend: 0x0, symName: __ZNKSt3__19basic_iosIcNS_11char_traitsIcEEE5rdbufB7v160006Ev, symObjAddr: 0x4A0C, symBinAddr: 0x1000061B0, symSize: 0x24 }
  - { offsetInCU: 0x1D138, offset: 0x1D138, size: 0x8, addend: 0x0, symName: __ZNSt3__115basic_streambufIcNS_11char_traitsIcEEE6sbumpcB7v160006Ev, symObjAddr: 0x4A30, symBinAddr: 0x1000061D4, symSize: 0x78 }
  - { offsetInCU: 0x1D15E, offset: 0x1D15E, size: 0x8, addend: 0x0, symName: __ZNSt3__111char_traitsIcE11eq_int_typeEii, symObjAddr: 0x4AA8, symBinAddr: 0x10000624C, symSize: 0x28 }
  - { offsetInCU: 0x1D18F, offset: 0x1D18F, size: 0x8, addend: 0x0, symName: __ZNSt3__111char_traitsIcE12to_char_typeEi, symObjAddr: 0x4AD0, symBinAddr: 0x100006274, symSize: 0x18 }
  - { offsetInCU: 0x1D1B2, offset: 0x1D1B2, size: 0x8, addend: 0x0, symName: __ZNSt3__111char_traitsIcE2eqEcc, symObjAddr: 0x4AE8, symBinAddr: 0x10000628C, symSize: 0x28 }
  - { offsetInCU: 0x1D1E3, offset: 0x1D1E3, size: 0x8, addend: 0x0, symName: __ZNKSt3__112basic_stringIcNS_11char_traitsIcEENS_9allocatorIcEEE8max_sizeB7v160006Ev, symObjAddr: 0x4B10, symBinAddr: 0x1000062B4, symSize: 0xAC }
  - { offsetInCU: 0x1D235, offset: 0x1D235, size: 0x8, addend: 0x0, symName: __ZNSt3__18ios_base18__setstate_nothrowB7v160006Ej, symObjAddr: 0x4BBC, symBinAddr: 0x100006360, symSize: 0x64 }
  - { offsetInCU: 0x1D26A, offset: 0x1D26A, size: 0x8, addend: 0x0, symName: __ZNKSt3__19basic_iosIcNS_11char_traitsIcEEE10exceptionsB7v160006Ev, symObjAddr: 0x4C20, symBinAddr: 0x1000063C4, symSize: 0x24 }
  - { offsetInCU: 0x1D290, offset: 0x1D290, size: 0x8, addend: 0x0, symName: __ZNSt3__112basic_stringIcNS_11char_traitsIcEENS_9allocatorIcEEE15__set_long_sizeB7v160006Em, symObjAddr: 0x4C54, symBinAddr: 0x1000063F8, symSize: 0x38 }
  - { offsetInCU: 0x1D2C5, offset: 0x1D2C5, size: 0x8, addend: 0x0, symName: __ZNKSt3__18ios_base5rdbufB7v160006Ev, symObjAddr: 0x4C8C, symBinAddr: 0x100006430, symSize: 0x18 }
  - { offsetInCU: 0x1D2EB, offset: 0x1D2EB, size: 0x8, addend: 0x0, symName: __ZNSt3__111char_traitsIcE11to_int_typeEc, symObjAddr: 0x4CA4, symBinAddr: 0x100006448, symSize: 0x14 }
  - { offsetInCU: 0x1D319, offset: 0x1D319, size: 0x8, addend: 0x0, symName: __ZNSt3__116allocator_traitsINS_9allocatorIcEEE8max_sizeB7v160006IS2_vvEEmRKS2_, symObjAddr: 0x4CB8, symBinAddr: 0x10000645C, symSize: 0x28 }
  - { offsetInCU: 0x1D345, offset: 0x1D345, size: 0x8, addend: 0x0, symName: __ZNKSt3__112basic_stringIcNS_11char_traitsIcEENS_9allocatorIcEEE7__allocB7v160006Ev, symObjAddr: 0x4CE0, symBinAddr: 0x100006484, symSize: 0x24 }
  - { offsetInCU: 0x1D36B, offset: 0x1D36B, size: 0x8, addend: 0x0, symName: __ZNKSt3__117__compressed_pairINS_12basic_stringIcNS_11char_traitsIcEENS_9allocatorIcEEE5__repES5_E6secondB7v160006Ev, symObjAddr: 0x4D04, symBinAddr: 0x1000064A8, symSize: 0x24 }
  - { offsetInCU: 0x1D391, offset: 0x1D391, size: 0x8, addend: 0x0, symName: __ZNKSt3__122__compressed_pair_elemINS_9allocatorIcEELi1ELb1EE5__getB7v160006Ev, symObjAddr: 0x4D28, symBinAddr: 0x1000064CC, symSize: 0x14 }
  - { offsetInCU: 0x1D3B7, offset: 0x1D3B7, size: 0x8, addend: 0x0, symName: __ZNKSt3__18ios_base10exceptionsB7v160006Ev, symObjAddr: 0x4D3C, symBinAddr: 0x1000064E0, symSize: 0x18 }
  - { offsetInCU: 0x1D416, offset: 0x1D416, size: 0x8, addend: 0x0, symName: __ZNKSt3__15ctypeIcE5widenB7v160006Ec, symObjAddr: 0x4D80, symBinAddr: 0x100006524, symSize: 0x38 }
  - { offsetInCU: 0x1D44B, offset: 0x1D44B, size: 0x8, addend: 0x0, symName: __ZNSt3__16vectorINS_12basic_stringIcNS_11char_traitsIcEENS_9allocatorIcEEEENS4_IS6_EEE13__move_assignERS8_NS_17integral_constantIbLb1EEE, symObjAddr: 0x4DB8, symBinAddr: 0x10000655C, symSize: 0xAC }
  - { offsetInCU: 0x1D48E, offset: 0x1D48E, size: 0x8, addend: 0x0, symName: __ZNSt3__16vectorINS_12basic_stringIcNS_11char_traitsIcEENS_9allocatorIcEEEENS4_IS6_EEE13__vdeallocateEv, symObjAddr: 0x4E64, symBinAddr: 0x100006608, symSize: 0x8C }
  - { offsetInCU: 0x1D4B6, offset: 0x1D4B6, size: 0x8, addend: 0x0, symName: __ZNSt3__16vectorINS_12basic_stringIcNS_11char_traitsIcEENS_9allocatorIcEEEENS4_IS6_EEE19__move_assign_allocB7v160006ERS8_, symObjAddr: 0x4EF0, symBinAddr: 0x100006694, symSize: 0x2C }
  - { offsetInCU: 0x1D4EB, offset: 0x1D4EB, size: 0x8, addend: 0x0, symName: __ZNSt3__16vectorINS_12basic_stringIcNS_11char_traitsIcEENS_9allocatorIcEEEENS4_IS6_EEE5clearB7v160006Ev, symObjAddr: 0x4F30, symBinAddr: 0x1000066D4, symSize: 0x4C }
  - { offsetInCU: 0x1D520, offset: 0x1D520, size: 0x8, addend: 0x0, symName: __ZNKSt3__16vectorINS_12basic_stringIcNS_11char_traitsIcEENS_9allocatorIcEEEENS4_IS6_EEE17__annotate_shrinkB7v160006Em, symObjAddr: 0x4F7C, symBinAddr: 0x100006720, symSize: 0xD0 }
  - { offsetInCU: 0x1D555, offset: 0x1D555, size: 0x8, addend: 0x0, symName: __ZNSt3__16vectorINS_12basic_stringIcNS_11char_traitsIcEENS_9allocatorIcEEEENS4_IS6_EEE19__move_assign_allocB7v160006ERS8_NS_17integral_constantIbLb1EEE, symObjAddr: 0x504C, symBinAddr: 0x1000067F0, symSize: 0x38 }
  - { offsetInCU: 0x1D596, offset: 0x1D596, size: 0x8, addend: 0x0, symName: __ZNSt3__113basic_fstreamIcNS_11char_traitsIcEEED2Ev, symObjAddr: 0x5084, symBinAddr: 0x100006828, symSize: 0x6C }
  - { offsetInCU: 0x1D5CF, offset: 0x1D5CF, size: 0x8, addend: 0x0, symName: __ZNSt3__16vectorINS_12basic_stringIcNS_11char_traitsIcEENS_9allocatorIcEEEENS4_IS6_EEE5beginB7v160006Ev, symObjAddr: 0x50F0, symBinAddr: 0x100006894, symSize: 0x30 }
  - { offsetInCU: 0x1D5F7, offset: 0x1D5F7, size: 0x8, addend: 0x0, symName: __ZNSt3__16vectorINS_12basic_stringIcNS_11char_traitsIcEENS_9allocatorIcEEEENS4_IS6_EEE3endB7v160006Ev, symObjAddr: 0x5120, symBinAddr: 0x1000068C4, symSize: 0x30 }
  - { offsetInCU: 0x1D61F, offset: 0x1D61F, size: 0x8, addend: 0x0, symName: __ZNKSt3__111__wrap_iterIPNS_12basic_stringIcNS_11char_traitsIcEENS_9allocatorIcEEEEEdeB7v160006Ev, symObjAddr: 0x5184, symBinAddr: 0x100006928, symSize: 0x18 }
  - { offsetInCU: 0x1D645, offset: 0x1D645, size: 0x8, addend: 0x0, symName: __ZN8Solution4hashENSt3__112basic_stringIcNS0_11char_traitsIcEENS0_9allocatorIcEEEERx, symObjAddr: 0x519C, symBinAddr: 0x100006940, symSize: 0xC0 }
  - { offsetInCU: 0x1D6D9, offset: 0x1D6D9, size: 0x8, addend: 0x0, symName: __ZNSt3__111__wrap_iterIPNS_12basic_stringIcNS_11char_traitsIcEENS_9allocatorIcEEEEEppB7v160006Ev, symObjAddr: 0x525C, symBinAddr: 0x100006A00, symSize: 0x20 }
  - { offsetInCU: 0x1D6FF, offset: 0x1D6FF, size: 0x8, addend: 0x0, symName: __ZNSt3__16vectorINS_12basic_stringIcNS_11char_traitsIcEENS_9allocatorIcEEEENS4_IS6_EEE11__make_iterB7v160006EPS6_, symObjAddr: 0x527C, symBinAddr: 0x100006A20, symSize: 0x34 }
  - { offsetInCU: 0x1D734, offset: 0x1D734, size: 0x8, addend: 0x0, symName: __ZNSt3__111__wrap_iterIPNS_12basic_stringIcNS_11char_traitsIcEENS_9allocatorIcEEEEEC1B7v160006EPKvS7_, symObjAddr: 0x52B0, symBinAddr: 0x100006A54, symSize: 0x3C }
  - { offsetInCU: 0x1D77A, offset: 0x1D77A, size: 0x8, addend: 0x0, symName: __ZNSt3__111__wrap_iterIPNS_12basic_stringIcNS_11char_traitsIcEENS_9allocatorIcEEEEEC2B7v160006EPKvS7_, symObjAddr: 0x52EC, symBinAddr: 0x100006A90, symSize: 0x24 }
  - { offsetInCU: 0x1D7C0, offset: 0x1D7C0, size: 0x8, addend: 0x0, symName: __ZNKSt3__111__wrap_iterIPNS_12basic_stringIcNS_11char_traitsIcEENS_9allocatorIcEEEEE4baseB7v160006Ev, symObjAddr: 0x5358, symBinAddr: 0x100006AFC, symSize: 0x18 }
  - { offsetInCU: 0x1D7E6, offset: 0x1D7E6, size: 0x8, addend: 0x0, symName: __ZNSt3__112basic_stringIcNS_11char_traitsIcEENS_9allocatorIcEEE5beginB7v160006Ev, symObjAddr: 0x5370, symBinAddr: 0x100006B14, symSize: 0x4C }
  - { offsetInCU: 0x1D80C, offset: 0x1D80C, size: 0x8, addend: 0x0, symName: __ZNSt3__112basic_stringIcNS_11char_traitsIcEENS_9allocatorIcEEE3endB7v160006Ev, symObjAddr: 0x53BC, symBinAddr: 0x100006B60, symSize: 0x54 }
  - { offsetInCU: 0x1D832, offset: 0x1D832, size: 0x8, addend: 0x0, symName: __ZNKSt3__111__wrap_iterIPcEdeB7v160006Ev, symObjAddr: 0x5444, symBinAddr: 0x100006BE8, symSize: 0x18 }
  - { offsetInCU: 0x1D858, offset: 0x1D858, size: 0x8, addend: 0x0, symName: __ZNSt3__111__wrap_iterIPcEppB7v160006Ev, symObjAddr: 0x545C, symBinAddr: 0x100006C00, symSize: 0x20 }
  - { offsetInCU: 0x1D87E, offset: 0x1D87E, size: 0x8, addend: 0x0, symName: __ZNSt3__112basic_stringIcNS_11char_traitsIcEENS_9allocatorIcEEE15__make_iteratorB7v160006EPc, symObjAddr: 0x547C, symBinAddr: 0x100006C20, symSize: 0x34 }
  - { offsetInCU: 0x1D8B3, offset: 0x1D8B3, size: 0x8, addend: 0x0, symName: __ZNSt3__112basic_stringIcNS_11char_traitsIcEENS_9allocatorIcEEE13__get_pointerB7v160006Ev, symObjAddr: 0x54B0, symBinAddr: 0x100006C54, symSize: 0x54 }
  - { offsetInCU: 0x1D8D9, offset: 0x1D8D9, size: 0x8, addend: 0x0, symName: __ZNSt3__111__wrap_iterIPcEC1B7v160006EPKvS1_, symObjAddr: 0x5504, symBinAddr: 0x100006CA8, symSize: 0x3C }
  - { offsetInCU: 0x1D91F, offset: 0x1D91F, size: 0x8, addend: 0x0, symName: __ZNSt3__111__wrap_iterIPcEC2B7v160006EPKvS1_, symObjAddr: 0x5540, symBinAddr: 0x100006CE4, symSize: 0x24 }
  - { offsetInCU: 0x1D965, offset: 0x1D965, size: 0x8, addend: 0x0, symName: __ZNKSt3__111__wrap_iterIPcE4baseB7v160006Ev, symObjAddr: 0x55AC, symBinAddr: 0x100006D50, symSize: 0x18 }
  - { offsetInCU: 0x1D98B, offset: 0x1D98B, size: 0x8, addend: 0x0, symName: __ZNSt3__16vectorINS0_I4LensNS_9allocatorIS1_EEEENS2_IS4_EEEC1Em, symObjAddr: 0x55C4, symBinAddr: 0x100006D68, symSize: 0x34 }
  - { offsetInCU: 0x1D9C6, offset: 0x1D9C6, size: 0x8, addend: 0x0, symName: __ZN4LensC1ENSt3__112basic_stringIcNS0_11char_traitsIcEENS0_9allocatorIcEEEEi, symObjAddr: 0x55F8, symBinAddr: 0x100006D9C, symSize: 0x3C }
  - { offsetInCU: 0x1DA0D, offset: 0x1DA0D, size: 0x8, addend: 0x0, symName: __ZN4Lens7getHashEv, symObjAddr: 0x5634, symBinAddr: 0x100006DD8, symSize: 0x18 }
  - { offsetInCU: 0x1DA33, offset: 0x1DA33, size: 0x8, addend: 0x0, symName: __ZNSt3__16vectorINS0_I4LensNS_9allocatorIS1_EEEENS2_IS4_EEEixB7v160006Em, symObjAddr: 0x564C, symBinAddr: 0x100006DF0, symSize: 0x2C }
  - { offsetInCU: 0x1DA6A, offset: 0x1DA6A, size: 0x8, addend: 0x0, symName: __ZNKSt3__16vectorI4LensNS_9allocatorIS1_EEE4sizeB7v160006Ev, symObjAddr: 0x5678, symBinAddr: 0x100006E1C, symSize: 0x28 }
  - { offsetInCU: 0x1DA90, offset: 0x1DA90, size: 0x8, addend: 0x0, symName: __ZNSt3__16vectorI4LensNS_9allocatorIS1_EEEixB7v160006Em, symObjAddr: 0x57E8, symBinAddr: 0x100006F8C, symSize: 0x2C }
  - { offsetInCU: 0x1DAC7, offset: 0x1DAC7, size: 0x8, addend: 0x0, symName: __ZN4Lens8getLabelEv, symObjAddr: 0x5814, symBinAddr: 0x100006FB8, symSize: 0x3C }
  - { offsetInCU: 0x1DAED, offset: 0x1DAED, size: 0x8, addend: 0x0, symName: __ZNSt3__16vectorI4LensNS_9allocatorIS1_EEE5eraseB7v160006ENS_11__wrap_iterIPKS1_EE, symObjAddr: 0x5850, symBinAddr: 0x100006FF4, symSize: 0xAC }
  - { offsetInCU: 0x1DB42, offset: 0x1DB42, size: 0x8, addend: 0x0, symName: __ZNSt3__16vectorI4LensNS_9allocatorIS1_EEE5beginB7v160006Ev, symObjAddr: 0x58FC, symBinAddr: 0x1000070A0, symSize: 0x30 }
  - { offsetInCU: 0x1DB6A, offset: 0x1DB6A, size: 0x8, addend: 0x0, symName: __ZNKSt3__111__wrap_iterIP4LensEplB7v160006El, symObjAddr: 0x592C, symBinAddr: 0x1000070D0, symSize: 0x3C }
  - { offsetInCU: 0x1DBB7, offset: 0x1DBB7, size: 0x8, addend: 0x0, symName: __ZNSt3__111__wrap_iterIPK4LensEC1B7v160006IPS1_EERKNS0_IT_EEPNS_9enable_ifIXsr14is_convertibleIS7_S3_EE5valueEvE4typeE, symObjAddr: 0x5968, symBinAddr: 0x10000710C, symSize: 0x3C }
  - { offsetInCU: 0x1DC02, offset: 0x1DC02, size: 0x8, addend: 0x0, symName: __ZN4LensD1Ev, symObjAddr: 0x59A4, symBinAddr: 0x100007148, symSize: 0x2C }
  - { offsetInCU: 0x1DC2E, offset: 0x1DC2E, size: 0x8, addend: 0x0, symName: __ZNSt3__16vectorINS_12basic_stringIcNS_11char_traitsIcEENS_9allocatorIcEEEENS4_IS6_EEEixB7v160006Em, symObjAddr: 0x59D0, symBinAddr: 0x100007174, symSize: 0x2C }
  - { offsetInCU: 0x1DC65, offset: 0x1DC65, size: 0x8, addend: 0x0, symName: __ZN4Lens14setFocalLengthEi, symObjAddr: 0x59FC, symBinAddr: 0x1000071A0, symSize: 0x20 }
  - { offsetInCU: 0x1DC99, offset: 0x1DC99, size: 0x8, addend: 0x0, symName: __ZNSt3__16vectorI4LensNS_9allocatorIS1_EEE9push_backB7v160006ERKS1_, symObjAddr: 0x5A1C, symBinAddr: 0x1000071C0, symSize: 0x6C }
  - { offsetInCU: 0x1DCD0, offset: 0x1DCD0, size: 0x8, addend: 0x0, symName: __ZN4Lens14getFocalLengthEv, symObjAddr: 0x5A88, symBinAddr: 0x10000722C, symSize: 0x18 }
  - { offsetInCU: 0x1DCF6, offset: 0x1DCF6, size: 0x8, addend: 0x0, symName: __ZNSt3__16vectorINS0_I4LensNS_9allocatorIS1_EEEENS2_IS4_EEED1B7v160006Ev, symObjAddr: 0x5AA0, symBinAddr: 0x100007244, symSize: 0x2C }
  - { offsetInCU: 0x1DD20, offset: 0x1DD20, size: 0x8, addend: 0x0, symName: __ZNSt3__16vectorINS0_I4LensNS_9allocatorIS1_EEEENS2_IS4_EEEC2Em, symObjAddr: 0x5ACC, symBinAddr: 0x100007270, symSize: 0xE0 }
  - { offsetInCU: 0x1DD70, offset: 0x1DD70, size: 0x8, addend: 0x0, symName: __ZNSt3__117__compressed_pairIPNS_6vectorI4LensNS_9allocatorIS2_EEEENS3_IS5_EEEC1B7v160006IDnNS_18__default_init_tagEEEOT_OT0_, symObjAddr: 0x5BAC, symBinAddr: 0x100007350, symSize: 0x3C }
  - { offsetInCU: 0x1DDC8, offset: 0x1DDC8, size: 0x8, addend: 0x0, symName: __ZNSt3__16vectorINS0_I4LensNS_9allocatorIS1_EEEENS2_IS4_EEE16__destroy_vectorC1ERS6_, symObjAddr: 0x5C28, symBinAddr: 0x1000073CC, symSize: 0x34 }
  - { offsetInCU: 0x1DE01, offset: 0x1DE01, size: 0x8, addend: 0x0, symName: __ZNSt3__16vectorINS0_I4LensNS_9allocatorIS1_EEEENS2_IS4_EEE11__vallocateB7v160006Em, symObjAddr: 0x5C6C, symBinAddr: 0x100007410, symSize: 0xB4 }
  - { offsetInCU: 0x1DE45, offset: 0x1DE45, size: 0x8, addend: 0x0, symName: __ZNSt3__16vectorINS0_I4LensNS_9allocatorIS1_EEEENS2_IS4_EEE18__construct_at_endEm, symObjAddr: 0x5D20, symBinAddr: 0x1000074C4, symSize: 0xC8 }
  - { offsetInCU: 0x1DEB7, offset: 0x1DEB7, size: 0x8, addend: 0x0, symName: __ZNSt3__128__exception_guard_exceptionsINS_6vectorINS1_I4LensNS_9allocatorIS2_EEEENS3_IS5_EEE16__destroy_vectorEE10__completeB7v160006Ev, symObjAddr: 0x5DE8, symBinAddr: 0x10000758C, symSize: 0x1C }
  - { offsetInCU: 0x1DEDD, offset: 0x1DEDD, size: 0x8, addend: 0x0, symName: __ZNSt3__128__exception_guard_exceptionsINS_6vectorINS1_I4LensNS_9allocatorIS2_EEEENS3_IS5_EEE16__destroy_vectorEED1B7v160006Ev, symObjAddr: 0x5E04, symBinAddr: 0x1000075A8, symSize: 0x2C }
  - { offsetInCU: 0x1DF07, offset: 0x1DF07, size: 0x8, addend: 0x0, symName: __ZNSt3__117__compressed_pairIPNS_6vectorI4LensNS_9allocatorIS2_EEEENS3_IS5_EEEC2B7v160006IDnNS_18__default_init_tagEEEOT_OT0_, symObjAddr: 0x5E30, symBinAddr: 0x1000075D4, symSize: 0x40 }
  - { offsetInCU: 0x1DF5F, offset: 0x1DF5F, size: 0x8, addend: 0x0, symName: __ZNSt3__122__compressed_pair_elemIPNS_6vectorI4LensNS_9allocatorIS2_EEEELi0ELb0EEC2B7v160006IDnvEEOT_, symObjAddr: 0x5E70, symBinAddr: 0x100007614, symSize: 0x1C }
  - { offsetInCU: 0x1DFA1, offset: 0x1DFA1, size: 0x8, addend: 0x0, symName: __ZNSt3__122__compressed_pair_elemINS_9allocatorINS_6vectorI4LensNS1_IS3_EEEEEELi1ELb1EEC2B7v160006ENS_18__default_init_tagE, symObjAddr: 0x5E8C, symBinAddr: 0x100007630, symSize: 0x2C }
  - { offsetInCU: 0x1DFD5, offset: 0x1DFD5, size: 0x8, addend: 0x0, symName: __ZNSt3__19allocatorINS_6vectorI4LensNS0_IS2_EEEEEC2B7v160006Ev, symObjAddr: 0x5EB8, symBinAddr: 0x10000765C, symSize: 0x2C }
  - { offsetInCU: 0x1DFFF, offset: 0x1DFFF, size: 0x8, addend: 0x0, symName: __ZNSt3__116__non_trivial_ifILb1ENS_9allocatorINS_6vectorI4LensNS1_IS3_EEEEEEEC2B7v160006Ev, symObjAddr: 0x5EE4, symBinAddr: 0x100007688, symSize: 0x14 }
  - { offsetInCU: 0x1E029, offset: 0x1E029, size: 0x8, addend: 0x0, symName: __ZNSt3__128__exception_guard_exceptionsINS_6vectorINS1_I4LensNS_9allocatorIS2_EEEENS3_IS5_EEE16__destroy_vectorEEC1B7v160006ES8_, symObjAddr: 0x5EF8, symBinAddr: 0x10000769C, symSize: 0x34 }
  - { offsetInCU: 0x1E061, offset: 0x1E061, size: 0x8, addend: 0x0, symName: __ZNSt3__128__exception_guard_exceptionsINS_6vectorINS1_I4LensNS_9allocatorIS2_EEEENS3_IS5_EEE16__destroy_vectorEEC2B7v160006ES8_, symObjAddr: 0x5F2C, symBinAddr: 0x1000076D0, symSize: 0x24 }
  - { offsetInCU: 0x1E099, offset: 0x1E099, size: 0x8, addend: 0x0, symName: __ZNSt3__16vectorINS0_I4LensNS_9allocatorIS1_EEEENS2_IS4_EEE16__destroy_vectorC2ERS6_, symObjAddr: 0x5F50, symBinAddr: 0x1000076F4, symSize: 0x20 }
  - { offsetInCU: 0x1E0D2, offset: 0x1E0D2, size: 0x8, addend: 0x0, symName: __ZNKSt3__16vectorINS0_I4LensNS_9allocatorIS1_EEEENS2_IS4_EEE8max_sizeEv, symObjAddr: 0x5F70, symBinAddr: 0x100007714, symSize: 0x60 }
  - { offsetInCU: 0x1E0FA, offset: 0x1E0FA, size: 0x8, addend: 0x0, symName: __ZNKSt3__16vectorINS0_I4LensNS_9allocatorIS1_EEEENS2_IS4_EEE20__throw_length_errorB7v160006Ev, symObjAddr: 0x5FD0, symBinAddr: 0x100007774, symSize: 0x1C }
  - { offsetInCU: 0x1E120, offset: 0x1E120, size: 0x8, addend: 0x0, symName: __ZNSt3__16vectorINS0_I4LensNS_9allocatorIS1_EEEENS2_IS4_EEE7__allocB7v160006Ev, symObjAddr: 0x602C, symBinAddr: 0x1000077D0, symSize: 0x28 }
  - { offsetInCU: 0x1E146, offset: 0x1E146, size: 0x8, addend: 0x0, symName: __ZNSt3__16vectorINS0_I4LensNS_9allocatorIS1_EEEENS2_IS4_EEE9__end_capB7v160006Ev, symObjAddr: 0x6054, symBinAddr: 0x1000077F8, symSize: 0x28 }
  - { offsetInCU: 0x1E16C, offset: 0x1E16C, size: 0x8, addend: 0x0, symName: __ZNKSt3__16vectorINS0_I4LensNS_9allocatorIS1_EEEENS2_IS4_EEE14__annotate_newB7v160006Em, symObjAddr: 0x607C, symBinAddr: 0x100007820, symSize: 0xC8 }
  - { offsetInCU: 0x1E1AC, offset: 0x1E1AC, size: 0x8, addend: 0x0, symName: __ZNSt3__116allocator_traitsINS_9allocatorINS_6vectorI4LensNS1_IS3_EEEEEEE8max_sizeB7v160006IS6_vvEEmRKS6_, symObjAddr: 0x6144, symBinAddr: 0x1000078E8, symSize: 0x28 }
  - { offsetInCU: 0x1E1D8, offset: 0x1E1D8, size: 0x8, addend: 0x0, symName: __ZNKSt3__16vectorINS0_I4LensNS_9allocatorIS1_EEEENS2_IS4_EEE7__allocB7v160006Ev, symObjAddr: 0x616C, symBinAddr: 0x100007910, symSize: 0x28 }
  - { offsetInCU: 0x1E1FE, offset: 0x1E1FE, size: 0x8, addend: 0x0, symName: __ZNKSt3__117__compressed_pairIPNS_6vectorI4LensNS_9allocatorIS2_EEEENS3_IS5_EEE6secondB7v160006Ev, symObjAddr: 0x6194, symBinAddr: 0x100007938, symSize: 0x24 }
  - { offsetInCU: 0x1E224, offset: 0x1E224, size: 0x8, addend: 0x0, symName: __ZNKSt3__122__compressed_pair_elemINS_9allocatorINS_6vectorI4LensNS1_IS3_EEEEEELi1ELb1EE5__getB7v160006Ev, symObjAddr: 0x61B8, symBinAddr: 0x10000795C, symSize: 0x14 }
  - { offsetInCU: 0x1E24A, offset: 0x1E24A, size: 0x8, addend: 0x0, symName: __ZNSt3__19allocatorINS_6vectorI4LensNS0_IS2_EEEEE8allocateB7v160006Em, symObjAddr: 0x61CC, symBinAddr: 0x100007970, symSize: 0x5C }
  - { offsetInCU: 0x1E27E, offset: 0x1E27E, size: 0x8, addend: 0x0, symName: __ZNSt3__117__compressed_pairIPNS_6vectorI4LensNS_9allocatorIS2_EEEENS3_IS5_EEE6secondB7v160006Ev, symObjAddr: 0x6228, symBinAddr: 0x1000079CC, symSize: 0x24 }
  - { offsetInCU: 0x1E2A4, offset: 0x1E2A4, size: 0x8, addend: 0x0, symName: __ZNSt3__122__compressed_pair_elemINS_9allocatorINS_6vectorI4LensNS1_IS3_EEEEEELi1ELb1EE5__getB7v160006Ev, symObjAddr: 0x624C, symBinAddr: 0x1000079F0, symSize: 0x14 }
  - { offsetInCU: 0x1E2CA, offset: 0x1E2CA, size: 0x8, addend: 0x0, symName: __ZNSt3__117__compressed_pairIPNS_6vectorI4LensNS_9allocatorIS2_EEEENS3_IS5_EEE5firstB7v160006Ev, symObjAddr: 0x6260, symBinAddr: 0x100007A04, symSize: 0x24 }
  - { offsetInCU: 0x1E2F0, offset: 0x1E2F0, size: 0x8, addend: 0x0, symName: __ZNSt3__122__compressed_pair_elemIPNS_6vectorI4LensNS_9allocatorIS2_EEEELi0ELb0EE5__getB7v160006Ev, symObjAddr: 0x6284, symBinAddr: 0x100007A28, symSize: 0x14 }
  - { offsetInCU: 0x1E316, offset: 0x1E316, size: 0x8, addend: 0x0, symName: __ZNKSt3__16vectorINS0_I4LensNS_9allocatorIS1_EEEENS2_IS4_EEE31__annotate_contiguous_containerB7v160006EPKvS8_S8_S8_, symObjAddr: 0x6298, symBinAddr: 0x100007A3C, symSize: 0x20 }
  - { offsetInCU: 0x1E36C, offset: 0x1E36C, size: 0x8, addend: 0x0, symName: __ZNKSt3__16vectorINS0_I4LensNS_9allocatorIS1_EEEENS2_IS4_EEE4dataB7v160006Ev, symObjAddr: 0x62B8, symBinAddr: 0x100007A5C, symSize: 0x28 }
  - { offsetInCU: 0x1E392, offset: 0x1E392, size: 0x8, addend: 0x0, symName: __ZNKSt3__16vectorINS0_I4LensNS_9allocatorIS1_EEEENS2_IS4_EEE8capacityB7v160006Ev, symObjAddr: 0x62E0, symBinAddr: 0x100007A84, symSize: 0x40 }
  - { offsetInCU: 0x1E3B8, offset: 0x1E3B8, size: 0x8, addend: 0x0, symName: __ZNKSt3__16vectorINS0_I4LensNS_9allocatorIS1_EEEENS2_IS4_EEE9__end_capB7v160006Ev, symObjAddr: 0x6334, symBinAddr: 0x100007AD8, symSize: 0x28 }
  - { offsetInCU: 0x1E3DE, offset: 0x1E3DE, size: 0x8, addend: 0x0, symName: __ZNKSt3__117__compressed_pairIPNS_6vectorI4LensNS_9allocatorIS2_EEEENS3_IS5_EEE5firstB7v160006Ev, symObjAddr: 0x635C, symBinAddr: 0x100007B00, symSize: 0x24 }
  - { offsetInCU: 0x1E404, offset: 0x1E404, size: 0x8, addend: 0x0, symName: __ZNKSt3__122__compressed_pair_elemIPNS_6vectorI4LensNS_9allocatorIS2_EEEELi0ELb0EE5__getB7v160006Ev, symObjAddr: 0x6380, symBinAddr: 0x100007B24, symSize: 0x14 }
  - { offsetInCU: 0x1E445, offset: 0x1E445, size: 0x8, addend: 0x0, symName: __ZNSt3__16vectorINS0_I4LensNS_9allocatorIS1_EEEENS2_IS4_EEE21_ConstructTransactionC1B7v160006ERS6_m, symObjAddr: 0x6394, symBinAddr: 0x100007B38, symSize: 0x3C }
  - { offsetInCU: 0x1E48D, offset: 0x1E48D, size: 0x8, addend: 0x0, symName: __ZNSt3__116allocator_traitsINS_9allocatorINS_6vectorI4LensNS1_IS3_EEEEEEE9constructB7v160006IS5_JEvvEEvRS6_PT_DpOT0_, symObjAddr: 0x63D0, symBinAddr: 0x100007B74, symSize: 0x28 }
  - { offsetInCU: 0x1E4CD, offset: 0x1E4CD, size: 0x8, addend: 0x0, symName: __ZNSt3__16vectorINS0_I4LensNS_9allocatorIS1_EEEENS2_IS4_EEE21_ConstructTransactionD1B7v160006Ev, symObjAddr: 0x63F8, symBinAddr: 0x100007B9C, symSize: 0x2C }
  - { offsetInCU: 0x1E4F7, offset: 0x1E4F7, size: 0x8, addend: 0x0, symName: __ZNSt3__16vectorINS0_I4LensNS_9allocatorIS1_EEEENS2_IS4_EEE21_ConstructTransactionC2B7v160006ERS6_m, symObjAddr: 0x6424, symBinAddr: 0x100007BC8, symSize: 0x4C }
  - { offsetInCU: 0x1E53F, offset: 0x1E53F, size: 0x8, addend: 0x0, symName: __ZNSt3__16vectorI4LensNS_9allocatorIS1_EEEC1B7v160006Ev, symObjAddr: 0x64A4, symBinAddr: 0x100007C48, symSize: 0x2C }
  - { offsetInCU: 0x1E569, offset: 0x1E569, size: 0x8, addend: 0x0, symName: __ZNSt3__16vectorI4LensNS_9allocatorIS1_EEEC2B7v160006Ev, symObjAddr: 0x64D0, symBinAddr: 0x100007C74, symSize: 0x58 }
  - { offsetInCU: 0x1E593, offset: 0x1E593, size: 0x8, addend: 0x0, symName: __ZNSt3__117__compressed_pairIP4LensNS_9allocatorIS1_EEEC1B7v160006IDnNS_18__default_init_tagEEEOT_OT0_, symObjAddr: 0x6528, symBinAddr: 0x100007CCC, symSize: 0x3C }
  - { offsetInCU: 0x1E5EB, offset: 0x1E5EB, size: 0x8, addend: 0x0, symName: __ZNSt3__117__compressed_pairIP4LensNS_9allocatorIS1_EEEC2B7v160006IDnNS_18__default_init_tagEEEOT_OT0_, symObjAddr: 0x6574, symBinAddr: 0x100007D18, symSize: 0x40 }
  - { offsetInCU: 0x1E643, offset: 0x1E643, size: 0x8, addend: 0x0, symName: __ZNSt3__122__compressed_pair_elemIP4LensLi0ELb0EEC2B7v160006IDnvEEOT_, symObjAddr: 0x65B4, symBinAddr: 0x100007D58, symSize: 0x1C }
  - { offsetInCU: 0x1E685, offset: 0x1E685, size: 0x8, addend: 0x0, symName: __ZNSt3__122__compressed_pair_elemINS_9allocatorI4LensEELi1ELb1EEC2B7v160006ENS_18__default_init_tagE, symObjAddr: 0x65D0, symBinAddr: 0x100007D74, symSize: 0x2C }
  - { offsetInCU: 0x1E6B9, offset: 0x1E6B9, size: 0x8, addend: 0x0, symName: __ZNSt3__19allocatorI4LensEC2B7v160006Ev, symObjAddr: 0x65FC, symBinAddr: 0x100007DA0, symSize: 0x2C }
  - { offsetInCU: 0x1E6E3, offset: 0x1E6E3, size: 0x8, addend: 0x0, symName: __ZNSt3__116__non_trivial_ifILb1ENS_9allocatorI4LensEEEC2B7v160006Ev, symObjAddr: 0x6628, symBinAddr: 0x100007DCC, symSize: 0x14 }
  - { offsetInCU: 0x1E70D, offset: 0x1E70D, size: 0x8, addend: 0x0, symName: __ZNSt3__16vectorINS0_I4LensNS_9allocatorIS1_EEEENS2_IS4_EEE21_ConstructTransactionD2B7v160006Ev, symObjAddr: 0x663C, symBinAddr: 0x100007DE0, symSize: 0x20 }
  - { offsetInCU: 0x1E737, offset: 0x1E737, size: 0x8, addend: 0x0, symName: __ZNSt3__128__exception_guard_exceptionsINS_6vectorINS1_I4LensNS_9allocatorIS2_EEEENS3_IS5_EEE16__destroy_vectorEED2B7v160006Ev, symObjAddr: 0x665C, symBinAddr: 0x100007E00, symSize: 0x50 }
  - { offsetInCU: 0x1E761, offset: 0x1E761, size: 0x8, addend: 0x0, symName: __ZNSt3__16vectorINS0_I4LensNS_9allocatorIS1_EEEENS2_IS4_EEE16__destroy_vectorclB7v160006Ev, symObjAddr: 0x66AC, symBinAddr: 0x100007E50, symSize: 0x9C }
  - { offsetInCU: 0x1E787, offset: 0x1E787, size: 0x8, addend: 0x0, symName: __ZNKSt3__16vectorINS0_I4LensNS_9allocatorIS1_EEEENS2_IS4_EEE17__annotate_deleteB7v160006Ev, symObjAddr: 0x6748, symBinAddr: 0x100007EEC, symSize: 0xD4 }
  - { offsetInCU: 0x1E7AD, offset: 0x1E7AD, size: 0x8, addend: 0x0, symName: __ZNSt3__16vectorINS0_I4LensNS_9allocatorIS1_EEEENS2_IS4_EEE7__clearB7v160006Ev, symObjAddr: 0x682C, symBinAddr: 0x100007FD0, symSize: 0x28 }
  - { offsetInCU: 0x1E7D3, offset: 0x1E7D3, size: 0x8, addend: 0x0, symName: __ZNSt3__116allocator_traitsINS_9allocatorINS_6vectorI4LensNS1_IS3_EEEEEEE10deallocateB7v160006ERS6_PS5_m, symObjAddr: 0x6854, symBinAddr: 0x100007FF8, symSize: 0x34 }
  - { offsetInCU: 0x1E815, offset: 0x1E815, size: 0x8, addend: 0x0, symName: __ZNKSt3__16vectorINS0_I4LensNS_9allocatorIS1_EEEENS2_IS4_EEE4sizeB7v160006Ev, symObjAddr: 0x6888, symBinAddr: 0x10000802C, symSize: 0x28 }
  - { offsetInCU: 0x1E83B, offset: 0x1E83B, size: 0x8, addend: 0x0, symName: __ZNSt3__16vectorINS0_I4LensNS_9allocatorIS1_EEEENS2_IS4_EEE22__base_destruct_at_endB7v160006EPS4_, symObjAddr: 0x68B0, symBinAddr: 0x100008054, symSize: 0x8C }
  - { offsetInCU: 0x1E87F, offset: 0x1E87F, size: 0x8, addend: 0x0, symName: __ZNSt3__116allocator_traitsINS_9allocatorINS_6vectorI4LensNS1_IS3_EEEEEEE7destroyB7v160006IS5_vvEEvRS6_PT_, symObjAddr: 0x693C, symBinAddr: 0x1000080E0, symSize: 0x28 }
  - { offsetInCU: 0x1E8BA, offset: 0x1E8BA, size: 0x8, addend: 0x0, symName: __ZNSt3__16vectorI4LensNS_9allocatorIS1_EEED1B7v160006Ev, symObjAddr: 0x69AC, symBinAddr: 0x100008150, symSize: 0x2C }
  - { offsetInCU: 0x1E8E4, offset: 0x1E8E4, size: 0x8, addend: 0x0, symName: __ZNSt3__16vectorI4LensNS_9allocatorIS1_EEED2B7v160006Ev, symObjAddr: 0x69D8, symBinAddr: 0x10000817C, symSize: 0x44 }
  - { offsetInCU: 0x1E90E, offset: 0x1E90E, size: 0x8, addend: 0x0, symName: __ZNSt3__16vectorI4LensNS_9allocatorIS1_EEE16__destroy_vectorC1ERS4_, symObjAddr: 0x6A1C, symBinAddr: 0x1000081C0, symSize: 0x34 }
  - { offsetInCU: 0x1E947, offset: 0x1E947, size: 0x8, addend: 0x0, symName: __ZNSt3__16vectorI4LensNS_9allocatorIS1_EEE16__destroy_vectorclB7v160006Ev, symObjAddr: 0x6A50, symBinAddr: 0x1000081F4, symSize: 0x9C }
  - { offsetInCU: 0x1E96D, offset: 0x1E96D, size: 0x8, addend: 0x0, symName: __ZNSt3__16vectorI4LensNS_9allocatorIS1_EEE16__destroy_vectorC2ERS4_, symObjAddr: 0x6AEC, symBinAddr: 0x100008290, symSize: 0x20 }
  - { offsetInCU: 0x1E9A6, offset: 0x1E9A6, size: 0x8, addend: 0x0, symName: __ZNKSt3__16vectorI4LensNS_9allocatorIS1_EEE17__annotate_deleteB7v160006Ev, symObjAddr: 0x6B0C, symBinAddr: 0x1000082B0, symSize: 0xD4 }
  - { offsetInCU: 0x1E9CC, offset: 0x1E9CC, size: 0x8, addend: 0x0, symName: __ZNSt3__16vectorI4LensNS_9allocatorIS1_EEE7__clearB7v160006Ev, symObjAddr: 0x6BF0, symBinAddr: 0x100008394, symSize: 0x28 }
  - { offsetInCU: 0x1E9F2, offset: 0x1E9F2, size: 0x8, addend: 0x0, symName: __ZNSt3__116allocator_traitsINS_9allocatorI4LensEEE10deallocateB7v160006ERS3_PS2_m, symObjAddr: 0x6C18, symBinAddr: 0x1000083BC, symSize: 0x34 }
  - { offsetInCU: 0x1EA34, offset: 0x1EA34, size: 0x8, addend: 0x0, symName: __ZNSt3__16vectorI4LensNS_9allocatorIS1_EEE7__allocB7v160006Ev, symObjAddr: 0x6C4C, symBinAddr: 0x1000083F0, symSize: 0x28 }
  - { offsetInCU: 0x1EA5A, offset: 0x1EA5A, size: 0x8, addend: 0x0, symName: __ZNKSt3__16vectorI4LensNS_9allocatorIS1_EEE8capacityB7v160006Ev, symObjAddr: 0x6C74, symBinAddr: 0x100008418, symSize: 0x40 }
  - { offsetInCU: 0x1EA80, offset: 0x1EA80, size: 0x8, addend: 0x0, symName: __ZNKSt3__16vectorI4LensNS_9allocatorIS1_EEE31__annotate_contiguous_containerB7v160006EPKvS6_S6_S6_, symObjAddr: 0x6CB4, symBinAddr: 0x100008458, symSize: 0x20 }
  - { offsetInCU: 0x1EAD6, offset: 0x1EAD6, size: 0x8, addend: 0x0, symName: __ZNKSt3__16vectorI4LensNS_9allocatorIS1_EEE4dataB7v160006Ev, symObjAddr: 0x6CD4, symBinAddr: 0x100008478, symSize: 0x28 }
  - { offsetInCU: 0x1EAFC, offset: 0x1EAFC, size: 0x8, addend: 0x0, symName: __ZNSt3__16vectorI4LensNS_9allocatorIS1_EEE22__base_destruct_at_endB7v160006EPS1_, symObjAddr: 0x6D10, symBinAddr: 0x1000084B4, symSize: 0x8C }
  - { offsetInCU: 0x1EB40, offset: 0x1EB40, size: 0x8, addend: 0x0, symName: __ZNSt3__116allocator_traitsINS_9allocatorI4LensEEE7destroyB7v160006IS2_vvEEvRS3_PT_, symObjAddr: 0x6D9C, symBinAddr: 0x100008540, symSize: 0x28 }
  - { offsetInCU: 0x1EB7B, offset: 0x1EB7B, size: 0x8, addend: 0x0, symName: __ZNSt3__19allocatorI4LensE10deallocateB7v160006EPS1_m, symObjAddr: 0x6E0C, symBinAddr: 0x1000085B0, symSize: 0x44 }
  - { offsetInCU: 0x1EBBD, offset: 0x1EBBD, size: 0x8, addend: 0x0, symName: __ZNSt3__117__compressed_pairIP4LensNS_9allocatorIS1_EEE6secondB7v160006Ev, symObjAddr: 0x6E50, symBinAddr: 0x1000085F4, symSize: 0x24 }
  - { offsetInCU: 0x1EBE3, offset: 0x1EBE3, size: 0x8, addend: 0x0, symName: __ZNSt3__122__compressed_pair_elemINS_9allocatorI4LensEELi1ELb1EE5__getB7v160006Ev, symObjAddr: 0x6E74, symBinAddr: 0x100008618, symSize: 0x14 }
  - { offsetInCU: 0x1EC09, offset: 0x1EC09, size: 0x8, addend: 0x0, symName: __ZNKSt3__16vectorI4LensNS_9allocatorIS1_EEE9__end_capB7v160006Ev, symObjAddr: 0x6E88, symBinAddr: 0x10000862C, symSize: 0x28 }
  - { offsetInCU: 0x1EC2F, offset: 0x1EC2F, size: 0x8, addend: 0x0, symName: __ZNKSt3__117__compressed_pairIP4LensNS_9allocatorIS1_EEE5firstB7v160006Ev, symObjAddr: 0x6EB0, symBinAddr: 0x100008654, symSize: 0x24 }
  - { offsetInCU: 0x1EC55, offset: 0x1EC55, size: 0x8, addend: 0x0, symName: __ZNKSt3__122__compressed_pair_elemIP4LensLi0ELb0EE5__getB7v160006Ev, symObjAddr: 0x6ED4, symBinAddr: 0x100008678, symSize: 0x14 }
  - { offsetInCU: 0x1EC7B, offset: 0x1EC7B, size: 0x8, addend: 0x0, symName: __ZNSt3__19allocatorINS_6vectorI4LensNS0_IS2_EEEEE10deallocateB7v160006EPS4_m, symObjAddr: 0x6EE8, symBinAddr: 0x10000868C, symSize: 0x44 }
  - { offsetInCU: 0x1ECBD, offset: 0x1ECBD, size: 0x8, addend: 0x0, symName: __ZN4LensC2ENSt3__112basic_stringIcNS0_11char_traitsIcEENS0_9allocatorIcEEEEi, symObjAddr: 0x6F2C, symBinAddr: 0x1000086D0, symSize: 0x98 }
  - { offsetInCU: 0x1ED04, offset: 0x1ED04, size: 0x8, addend: 0x0, symName: __ZN4Lens13calculateHashEv, symObjAddr: 0x6FC4, symBinAddr: 0x100008768, symSize: 0xB8 }
  - { offsetInCU: 0x1ED89, offset: 0x1ED89, size: 0x8, addend: 0x0, symName: __ZNKSt3__16vectorI4LensNS_9allocatorIS1_EEE6cbeginB7v160006Ev, symObjAddr: 0x70C4, symBinAddr: 0x100008868, symSize: 0x2C }
  - { offsetInCU: 0x1EDAF, offset: 0x1EDAF, size: 0x8, addend: 0x0, symName: __ZNSt3__16vectorI4LensNS_9allocatorIS1_EEE17__destruct_at_endB7v160006EPS1_, symObjAddr: 0x70F0, symBinAddr: 0x100008894, symSize: 0x60 }
  - { offsetInCU: 0x1EDF3, offset: 0x1EDF3, size: 0x8, addend: 0x0, symName: __ZNSt3__16vectorI4LensNS_9allocatorIS1_EEE27__invalidate_iterators_pastB7v160006EPS1_, symObjAddr: 0x7190, symBinAddr: 0x100008934, symSize: 0x14 }
  - { offsetInCU: 0x1EE2A, offset: 0x1EE2A, size: 0x8, addend: 0x0, symName: __ZNSt3__16vectorI4LensNS_9allocatorIS1_EEE11__make_iterB7v160006EPS1_, symObjAddr: 0x71A4, symBinAddr: 0x100008948, symSize: 0x34 }
  - { offsetInCU: 0x1EE5F, offset: 0x1EE5F, size: 0x8, addend: 0x0, symName: __ZNKSt3__111__wrap_iterIPK4LensE4baseB7v160006Ev, symObjAddr: 0x71D8, symBinAddr: 0x10000897C, symSize: 0x18 }
  - { offsetInCU: 0x1EE85, offset: 0x1EE85, size: 0x8, addend: 0x0, symName: __ZNKSt3__16vectorI4LensNS_9allocatorIS1_EEE5beginB7v160006Ev, symObjAddr: 0x71F0, symBinAddr: 0x100008994, symSize: 0x30 }
  - { offsetInCU: 0x1EEAD, offset: 0x1EEAD, size: 0x8, addend: 0x0, symName: __ZNKSt3__16vectorI4LensNS_9allocatorIS1_EEE11__make_iterB7v160006EPKS1_, symObjAddr: 0x7220, symBinAddr: 0x1000089C4, symSize: 0x34 }
  - { offsetInCU: 0x1EEE2, offset: 0x1EEE2, size: 0x8, addend: 0x0, symName: __ZNSt3__111__wrap_iterIPK4LensEC1B7v160006EPKvS3_, symObjAddr: 0x7254, symBinAddr: 0x1000089F8, symSize: 0x3C }
  - { offsetInCU: 0x1EF28, offset: 0x1EF28, size: 0x8, addend: 0x0, symName: __ZNSt3__111__wrap_iterIPK4LensEC2B7v160006EPKvS3_, symObjAddr: 0x7290, symBinAddr: 0x100008A34, symSize: 0x24 }
  - { offsetInCU: 0x1EF6E, offset: 0x1EF6E, size: 0x8, addend: 0x0, symName: __ZNKSt3__16vectorI4LensNS_9allocatorIS1_EEE17__annotate_shrinkB7v160006Em, symObjAddr: 0x72B4, symBinAddr: 0x100008A58, symSize: 0xD0 }
  - { offsetInCU: 0x1EFC9, offset: 0x1EFC9, size: 0x8, addend: 0x0, symName: __ZNKSt3__111__move_loopINS_17_ClassicAlgPolicyEEclB7v160006IP4LensS5_S5_EENS_4pairIT_T1_EES7_T0_S8_, symObjAddr: 0x74FC, symBinAddr: 0x100008CA0, symSize: 0x90 }
  - { offsetInCU: 0x1F034, offset: 0x1F034, size: 0x8, addend: 0x0, symName: __ZNSt3__119__unwrap_range_implIP4LensS2_E8__unwrapB7v160006ES2_S2_, symObjAddr: 0x7650, symBinAddr: 0x100008DF4, symSize: 0x58 }
  - { offsetInCU: 0x1F06B, offset: 0x1F06B, size: 0x8, addend: 0x0, symName: __ZNSt3__14pairIP4LensS2_EC1B7v160006IS2_S2_LPv0EEEOT_OT0_, symObjAddr: 0x76A8, symBinAddr: 0x100008E4C, symSize: 0x3C }
  - { offsetInCU: 0x1F0C9, offset: 0x1F0C9, size: 0x8, addend: 0x0, symName: __ZNSt3__14pairIP4LensS2_EC2B7v160006IS2_S2_LPv0EEEOT_OT0_, symObjAddr: 0x76E4, symBinAddr: 0x100008E88, symSize: 0x34 }
  - { offsetInCU: 0x1F12D, offset: 0x1F12D, size: 0x8, addend: 0x0, symName: __ZNSt3__18_IterOpsINS_17_ClassicAlgPolicyEE11__iter_moveB7v160006IRP4LensEENS_9enable_ifIXsr12is_referenceIDTdeclsr3stdE7declvalIRT_EEEEE5valueEDTclsr3stdE4movedeclsr3stdE7declvalIS9_EEEEE4typeEOS8_, symObjAddr: 0x7718, symBinAddr: 0x100008EBC, symSize: 0x28 }
  - { offsetInCU: 0x1F159, offset: 0x1F159, size: 0x8, addend: 0x0, symName: __ZN4LensaSEOS_, symObjAddr: 0x7740, symBinAddr: 0x100008EE4, symSize: 0x54 }
  - { offsetInCU: 0x1F18A, offset: 0x1F18A, size: 0x8, addend: 0x0, symName: __ZNSt3__18_IterOpsINS_17_ClassicAlgPolicyEE25__validate_iter_referenceB7v160006IRP4LensEEvv, symObjAddr: 0x7794, symBinAddr: 0x100008F38, symSize: 0x4 }
  - { offsetInCU: 0x1F1A8, offset: 0x1F1A8, size: 0x8, addend: 0x0, symName: __ZNSt3__118__unwrap_iter_implIP4LensLb1EE8__unwrapB7v160006ES2_, symObjAddr: 0x7798, symBinAddr: 0x100008F3C, symSize: 0x24 }
  - { offsetInCU: 0x1F1CB, offset: 0x1F1CB, size: 0x8, addend: 0x0, symName: __ZNSt3__119__unwrap_range_implIP4LensS2_E8__rewrapB7v160006ES2_S2_, symObjAddr: 0x77BC, symBinAddr: 0x100008F60, symSize: 0x2C }
  - { offsetInCU: 0x1F1FC, offset: 0x1F1FC, size: 0x8, addend: 0x0, symName: __ZNSt3__118__unwrap_iter_implIP4LensLb1EE8__rewrapB7v160006ES2_S2_, symObjAddr: 0x77E8, symBinAddr: 0x100008F8C, symSize: 0x58 }
  - { offsetInCU: 0x1F22D, offset: 0x1F22D, size: 0x8, addend: 0x0, symName: __ZNSt3__111__wrap_iterIP4LensEC1B7v160006EPKvS2_, symObjAddr: 0x7840, symBinAddr: 0x100008FE4, symSize: 0x3C }
  - { offsetInCU: 0x1F273, offset: 0x1F273, size: 0x8, addend: 0x0, symName: __ZNSt3__111__wrap_iterIP4LensEC2B7v160006EPKvS2_, symObjAddr: 0x787C, symBinAddr: 0x100009020, symSize: 0x24 }
  - { offsetInCU: 0x1F2B9, offset: 0x1F2B9, size: 0x8, addend: 0x0, symName: __ZNSt3__111__wrap_iterIP4LensEpLB7v160006El, symObjAddr: 0x78A0, symBinAddr: 0x100009044, symSize: 0x30 }
  - { offsetInCU: 0x1F2ED, offset: 0x1F2ED, size: 0x8, addend: 0x0, symName: __ZNSt3__111__wrap_iterIPK4LensEC2B7v160006IPS1_EERKNS0_IT_EEPNS_9enable_ifIXsr14is_convertibleIS7_S3_EE5valueEvE4typeE, symObjAddr: 0x78D0, symBinAddr: 0x100009074, symSize: 0x40 }
  - { offsetInCU: 0x1F338, offset: 0x1F338, size: 0x8, addend: 0x0, symName: __ZNKSt3__111__wrap_iterIP4LensE4baseB7v160006Ev, symObjAddr: 0x7910, symBinAddr: 0x1000090B4, symSize: 0x18 }
  - { offsetInCU: 0x1F35E, offset: 0x1F35E, size: 0x8, addend: 0x0, symName: __ZN4LensD2Ev, symObjAddr: 0x7928, symBinAddr: 0x1000090CC, symSize: 0x30 }
  - { offsetInCU: 0x1F38A, offset: 0x1F38A, size: 0x8, addend: 0x0, symName: __ZNSt3__16vectorI4LensNS_9allocatorIS1_EEE9__end_capB7v160006Ev, symObjAddr: 0x7958, symBinAddr: 0x1000090FC, symSize: 0x28 }
  - { offsetInCU: 0x1F3B0, offset: 0x1F3B0, size: 0x8, addend: 0x0, symName: __ZNSt3__16vectorI4LensNS_9allocatorIS1_EEE22__construct_one_at_endB7v160006IJRKS1_EEEvDpOT_, symObjAddr: 0x7980, symBinAddr: 0x100009124, symSize: 0x90 }
  - { offsetInCU: 0x1F3FF, offset: 0x1F3FF, size: 0x8, addend: 0x0, symName: __ZNSt3__16vectorI4LensNS_9allocatorIS1_EEE21__push_back_slow_pathIRKS1_EEvOT_, symObjAddr: 0x7A10, symBinAddr: 0x1000091B4, symSize: 0xD8 }
  - { offsetInCU: 0x1F45D, offset: 0x1F45D, size: 0x8, addend: 0x0, symName: __ZNSt3__117__compressed_pairIP4LensNS_9allocatorIS1_EEE5firstB7v160006Ev, symObjAddr: 0x7AE8, symBinAddr: 0x10000928C, symSize: 0x24 }
  - { offsetInCU: 0x1F483, offset: 0x1F483, size: 0x8, addend: 0x0, symName: __ZNSt3__122__compressed_pair_elemIP4LensLi0ELb0EE5__getB7v160006Ev, symObjAddr: 0x7B0C, symBinAddr: 0x1000092B0, symSize: 0x14 }
  - { offsetInCU: 0x1F4C4, offset: 0x1F4C4, size: 0x8, addend: 0x0, symName: __ZNSt3__16vectorI4LensNS_9allocatorIS1_EEE21_ConstructTransactionC1B7v160006ERS4_m, symObjAddr: 0x7B20, symBinAddr: 0x1000092C4, symSize: 0x3C }
  - { offsetInCU: 0x1F50C, offset: 0x1F50C, size: 0x8, addend: 0x0, symName: __ZNSt3__116allocator_traitsINS_9allocatorI4LensEEE9constructB7v160006IS2_JRKS2_EvvEEvRS3_PT_DpOT0_, symObjAddr: 0x7B5C, symBinAddr: 0x100009300, symSize: 0x30 }
  - { offsetInCU: 0x1F561, offset: 0x1F561, size: 0x8, addend: 0x0, symName: __ZNSt3__16vectorI4LensNS_9allocatorIS1_EEE21_ConstructTransactionD1B7v160006Ev, symObjAddr: 0x7B8C, symBinAddr: 0x100009330, symSize: 0x2C }
  - { offsetInCU: 0x1F58B, offset: 0x1F58B, size: 0x8, addend: 0x0, symName: __ZNSt3__16vectorI4LensNS_9allocatorIS1_EEE21_ConstructTransactionC2B7v160006ERS4_m, symObjAddr: 0x7BB8, symBinAddr: 0x10000935C, symSize: 0x4C }
  - { offsetInCU: 0x1F5D3, offset: 0x1F5D3, size: 0x8, addend: 0x0, symName: __ZN4LensC1ERKS_, symObjAddr: 0x7C40, symBinAddr: 0x1000093E4, symSize: 0x34 }
  - { offsetInCU: 0x1F608, offset: 0x1F608, size: 0x8, addend: 0x0, symName: __ZN4LensC2ERKS_, symObjAddr: 0x7C74, symBinAddr: 0x100009418, symSize: 0x54 }
  - { offsetInCU: 0x1F63D, offset: 0x1F63D, size: 0x8, addend: 0x0, symName: __ZNSt3__16vectorI4LensNS_9allocatorIS1_EEE21_ConstructTransactionD2B7v160006Ev, symObjAddr: 0x7CC8, symBinAddr: 0x10000946C, symSize: 0x20 }
  - { offsetInCU: 0x1F667, offset: 0x1F667, size: 0x8, addend: 0x0, symName: __ZNKSt3__16vectorI4LensNS_9allocatorIS1_EEE11__recommendB7v160006Em, symObjAddr: 0x7CE8, symBinAddr: 0x10000948C, symSize: 0xB4 }
  - { offsetInCU: 0x1F6BC, offset: 0x1F6BC, size: 0x8, addend: 0x0, symName: __ZNSt3__114__split_bufferI4LensRNS_9allocatorIS1_EEEC1EmmS4_, symObjAddr: 0x7D9C, symBinAddr: 0x100009540, symSize: 0x44 }
  - { offsetInCU: 0x1F712, offset: 0x1F712, size: 0x8, addend: 0x0, symName: __ZNSt3__114__split_bufferI4LensRNS_9allocatorIS1_EEED1Ev, symObjAddr: 0x7EF8, symBinAddr: 0x10000969C, symSize: 0x2C }
  - { offsetInCU: 0x1F73E, offset: 0x1F73E, size: 0x8, addend: 0x0, symName: __ZNKSt3__16vectorI4LensNS_9allocatorIS1_EEE8max_sizeEv, symObjAddr: 0x7F24, symBinAddr: 0x1000096C8, symSize: 0x60 }
  - { offsetInCU: 0x1F766, offset: 0x1F766, size: 0x8, addend: 0x0, symName: __ZNKSt3__16vectorI4LensNS_9allocatorIS1_EEE20__throw_length_errorB7v160006Ev, symObjAddr: 0x7F84, symBinAddr: 0x100009728, symSize: 0x1C }
  - { offsetInCU: 0x1F797, offset: 0x1F797, size: 0x8, addend: 0x0, symName: __ZNSt3__116allocator_traitsINS_9allocatorI4LensEEE8max_sizeB7v160006IS3_vvEEmRKS3_, symObjAddr: 0x7FA0, symBinAddr: 0x100009744, symSize: 0x28 }
  - { offsetInCU: 0x1F7C3, offset: 0x1F7C3, size: 0x8, addend: 0x0, symName: __ZNKSt3__16vectorI4LensNS_9allocatorIS1_EEE7__allocB7v160006Ev, symObjAddr: 0x7FC8, symBinAddr: 0x10000976C, symSize: 0x28 }
  - { offsetInCU: 0x1F7E9, offset: 0x1F7E9, size: 0x8, addend: 0x0, symName: __ZNKSt3__117__compressed_pairIP4LensNS_9allocatorIS1_EEE6secondB7v160006Ev, symObjAddr: 0x7FF0, symBinAddr: 0x100009794, symSize: 0x24 }
  - { offsetInCU: 0x1F80F, offset: 0x1F80F, size: 0x8, addend: 0x0, symName: __ZNKSt3__122__compressed_pair_elemINS_9allocatorI4LensEELi1ELb1EE5__getB7v160006Ev, symObjAddr: 0x8014, symBinAddr: 0x1000097B8, symSize: 0x14 }
  - { offsetInCU: 0x1F835, offset: 0x1F835, size: 0x8, addend: 0x0, symName: __ZNSt3__114__split_bufferI4LensRNS_9allocatorIS1_EEEC2EmmS4_, symObjAddr: 0x8028, symBinAddr: 0x1000097CC, symSize: 0xE0 }
  - { offsetInCU: 0x1F8A8, offset: 0x1F8A8, size: 0x8, addend: 0x0, symName: __ZNSt3__117__compressed_pairIP4LensRNS_9allocatorIS1_EEEC1B7v160006IDnS5_EEOT_OT0_, symObjAddr: 0x8108, symBinAddr: 0x1000098AC, symSize: 0x3C }
  - { offsetInCU: 0x1F900, offset: 0x1F900, size: 0x8, addend: 0x0, symName: __ZNSt3__114__split_bufferI4LensRNS_9allocatorIS1_EEE7__allocB7v160006Ev, symObjAddr: 0x8184, symBinAddr: 0x100009928, symSize: 0x28 }
  - { offsetInCU: 0x1F926, offset: 0x1F926, size: 0x8, addend: 0x0, symName: __ZNSt3__114__split_bufferI4LensRNS_9allocatorIS1_EEE9__end_capB7v160006Ev, symObjAddr: 0x81AC, symBinAddr: 0x100009950, symSize: 0x28 }
  - { offsetInCU: 0x1F94C, offset: 0x1F94C, size: 0x8, addend: 0x0, symName: __ZNSt3__117__compressed_pairIP4LensRNS_9allocatorIS1_EEEC2B7v160006IDnS5_EEOT_OT0_, symObjAddr: 0x81D4, symBinAddr: 0x100009978, symSize: 0x48 }
  - { offsetInCU: 0x1F9A4, offset: 0x1F9A4, size: 0x8, addend: 0x0, symName: __ZNSt3__122__compressed_pair_elemIRNS_9allocatorI4LensEELi1ELb0EEC2B7v160006IS4_vEEOT_, symObjAddr: 0x821C, symBinAddr: 0x1000099C0, symSize: 0x20 }
  - { offsetInCU: 0x1F9E6, offset: 0x1F9E6, size: 0x8, addend: 0x0, symName: __ZNSt3__19allocatorI4LensE8allocateB7v160006Em, symObjAddr: 0x823C, symBinAddr: 0x1000099E0, symSize: 0x5C }
  - { offsetInCU: 0x1FA1A, offset: 0x1FA1A, size: 0x8, addend: 0x0, symName: __ZNSt3__117__compressed_pairIP4LensRNS_9allocatorIS1_EEE6secondB7v160006Ev, symObjAddr: 0x8298, symBinAddr: 0x100009A3C, symSize: 0x28 }
  - { offsetInCU: 0x1FA40, offset: 0x1FA40, size: 0x8, addend: 0x0, symName: __ZNSt3__122__compressed_pair_elemIRNS_9allocatorI4LensEELi1ELb0EE5__getB7v160006Ev, symObjAddr: 0x82C0, symBinAddr: 0x100009A64, symSize: 0x18 }
  - { offsetInCU: 0x1FA66, offset: 0x1FA66, size: 0x8, addend: 0x0, symName: __ZNSt3__117__compressed_pairIP4LensRNS_9allocatorIS1_EEE5firstB7v160006Ev, symObjAddr: 0x82D8, symBinAddr: 0x100009A7C, symSize: 0x24 }
  - { offsetInCU: 0x1FA8C, offset: 0x1FA8C, size: 0x8, addend: 0x0, symName: __ZNSt3__116reverse_iteratorIP4LensEC1B7v160006ES2_, symObjAddr: 0x8428, symBinAddr: 0x100009BCC, symSize: 0x34 }
  - { offsetInCU: 0x1FAC4, offset: 0x1FAC4, size: 0x8, addend: 0x0, symName: __ZNKSt3__116reverse_iteratorIP4LensE4baseB7v160006Ev, symObjAddr: 0x845C, symBinAddr: 0x100009C00, symSize: 0x18 }
  - { offsetInCU: 0x1FAEA, offset: 0x1FAEA, size: 0x8, addend: 0x0, symName: __ZNKSt3__16vectorI4LensNS_9allocatorIS1_EEE14__annotate_newB7v160006Em, symObjAddr: 0x84B0, symBinAddr: 0x100009C54, symSize: 0xC8 }
  - { offsetInCU: 0x1FB1F, offset: 0x1FB1F, size: 0x8, addend: 0x0, symName: __ZNSt3__129_AllocatorDestroyRangeReverseINS_9allocatorI4LensEENS_16reverse_iteratorIPS2_EEEC1B7v160006ERS3_RS6_S9_, symObjAddr: 0x85D4, symBinAddr: 0x100009D78, symSize: 0x44 }
  - { offsetInCU: 0x1FB76, offset: 0x1FB76, size: 0x8, addend: 0x0, symName: __ZNSt3__116allocator_traitsINS_9allocatorI4LensEEE9constructB7v160006IS2_JS2_EvvEEvRS3_PT_DpOT0_, symObjAddr: 0x8660, symBinAddr: 0x100009E04, symSize: 0x30 }
  - { offsetInCU: 0x1FBCB, offset: 0x1FBCB, size: 0x8, addend: 0x0, symName: __ZNKSt3__116reverse_iteratorIP4LensEdeB7v160006Ev, symObjAddr: 0x86B4, symBinAddr: 0x100009E58, symSize: 0x28 }
  - { offsetInCU: 0x1FBFF, offset: 0x1FBFF, size: 0x8, addend: 0x0, symName: __ZNSt3__116reverse_iteratorIP4LensEppB7v160006Ev, symObjAddr: 0x86DC, symBinAddr: 0x100009E80, symSize: 0x20 }
  - { offsetInCU: 0x1FC25, offset: 0x1FC25, size: 0x8, addend: 0x0, symName: __ZNSt3__128__exception_guard_exceptionsINS_29_AllocatorDestroyRangeReverseINS_9allocatorI4LensEENS_16reverse_iteratorIPS3_EEEEE10__completeB7v160006Ev, symObjAddr: 0x86FC, symBinAddr: 0x100009EA0, symSize: 0x1C }
  - { offsetInCU: 0x1FC4B, offset: 0x1FC4B, size: 0x8, addend: 0x0, symName: __ZNSt3__128__exception_guard_exceptionsINS_29_AllocatorDestroyRangeReverseINS_9allocatorI4LensEENS_16reverse_iteratorIPS3_EEEEED1B7v160006Ev, symObjAddr: 0x8718, symBinAddr: 0x100009EBC, symSize: 0x2C }
  - { offsetInCU: 0x1FC75, offset: 0x1FC75, size: 0x8, addend: 0x0, symName: __ZNSt3__128__exception_guard_exceptionsINS_29_AllocatorDestroyRangeReverseINS_9allocatorI4LensEENS_16reverse_iteratorIPS3_EEEEEC1B7v160006ES8_, symObjAddr: 0x8744, symBinAddr: 0x100009EE8, symSize: 0x34 }
  - { offsetInCU: 0x1FCAE, offset: 0x1FCAE, size: 0x8, addend: 0x0, symName: __ZNSt3__128__exception_guard_exceptionsINS_29_AllocatorDestroyRangeReverseINS_9allocatorI4LensEENS_16reverse_iteratorIPS3_EEEEEC2B7v160006ES8_, symObjAddr: 0x8778, symBinAddr: 0x100009F1C, symSize: 0x30 }
  - { offsetInCU: 0x1FCE7, offset: 0x1FCE7, size: 0x8, addend: 0x0, symName: __ZNSt3__129_AllocatorDestroyRangeReverseINS_9allocatorI4LensEENS_16reverse_iteratorIPS2_EEEC2B7v160006ERS3_RS6_S9_, symObjAddr: 0x87A8, symBinAddr: 0x100009F4C, symSize: 0x38 }
  - { offsetInCU: 0x1FD3E, offset: 0x1FD3E, size: 0x8, addend: 0x0, symName: __ZN4LensC1EOS_, symObjAddr: 0x881C, symBinAddr: 0x100009FC0, symSize: 0x34 }
  - { offsetInCU: 0x1FD73, offset: 0x1FD73, size: 0x8, addend: 0x0, symName: __ZN4LensC2EOS_, symObjAddr: 0x8850, symBinAddr: 0x100009FF4, symSize: 0x54 }
  - { offsetInCU: 0x1FDAE, offset: 0x1FDAE, size: 0x8, addend: 0x0, symName: __ZNSt3__119__to_address_helperINS_16reverse_iteratorIP4LensEEvE6__callB7v160006ERKS4_, symObjAddr: 0x88A4, symBinAddr: 0x10000A048, symSize: 0x38 }
  - { offsetInCU: 0x1FDD1, offset: 0x1FDD1, size: 0x8, addend: 0x0, symName: __ZNKSt3__116reverse_iteratorIP4LensEptB7v160006Ev, symObjAddr: 0x88DC, symBinAddr: 0x10000A080, symSize: 0x2C }
  - { offsetInCU: 0x1FDF7, offset: 0x1FDF7, size: 0x8, addend: 0x0, symName: __ZNSt3__128__exception_guard_exceptionsINS_29_AllocatorDestroyRangeReverseINS_9allocatorI4LensEENS_16reverse_iteratorIPS3_EEEEED2B7v160006Ev, symObjAddr: 0x89D8, symBinAddr: 0x10000A17C, symSize: 0x50 }
  - { offsetInCU: 0x1FE21, offset: 0x1FE21, size: 0x8, addend: 0x0, symName: __ZNKSt3__129_AllocatorDestroyRangeReverseINS_9allocatorI4LensEENS_16reverse_iteratorIPS2_EEEclB7v160006Ev, symObjAddr: 0x8A28, symBinAddr: 0x10000A1CC, symSize: 0xB4 }
  - { offsetInCU: 0x1FE48, offset: 0x1FE48, size: 0x8, addend: 0x0, symName: __ZNSt3__116reverse_iteratorINS0_IP4LensEEEC1B7v160006ES3_, symObjAddr: 0x8B4C, symBinAddr: 0x10000A2F0, symSize: 0x3C }
  - { offsetInCU: 0x1FE80, offset: 0x1FE80, size: 0x8, addend: 0x0, symName: __ZNSt3__116reverse_iteratorINS0_IP4LensEEEppB7v160006Ev, symObjAddr: 0x8C0C, symBinAddr: 0x10000A3B0, symSize: 0x30 }
  - { offsetInCU: 0x1FEA6, offset: 0x1FEA6, size: 0x8, addend: 0x0, symName: __ZNKSt3__116reverse_iteratorINS0_IP4LensEEE4baseB7v160006Ev, symObjAddr: 0x8C3C, symBinAddr: 0x10000A3E0, symSize: 0x24 }
  - { offsetInCU: 0x1FED2, offset: 0x1FED2, size: 0x8, addend: 0x0, symName: __ZNSt3__119__to_address_helperINS_16reverse_iteratorINS1_IP4LensEEEEvE6__callB7v160006ERKS5_, symObjAddr: 0x8C60, symBinAddr: 0x10000A404, symSize: 0x38 }
  - { offsetInCU: 0x1FEF5, offset: 0x1FEF5, size: 0x8, addend: 0x0, symName: __ZNKSt3__116reverse_iteratorINS0_IP4LensEEEptB7v160006Ev, symObjAddr: 0x8C98, symBinAddr: 0x10000A43C, symSize: 0x4C }
  - { offsetInCU: 0x1FF1B, offset: 0x1FF1B, size: 0x8, addend: 0x0, symName: __ZNSt3__116reverse_iteratorIP4LensEpLB7v160006El, symObjAddr: 0x8DC0, symBinAddr: 0x10000A564, symSize: 0x30 }
  - { offsetInCU: 0x1FF4F, offset: 0x1FF4F, size: 0x8, addend: 0x0, symName: __ZNSt3__116reverse_iteratorIP4LensEmmB7v160006Ev, symObjAddr: 0x8DF0, symBinAddr: 0x10000A594, symSize: 0x20 }
  - { offsetInCU: 0x1FF75, offset: 0x1FF75, size: 0x8, addend: 0x0, symName: __ZNSt3__116reverse_iteratorINS0_IP4LensEEEC2B7v160006ES3_, symObjAddr: 0x8E10, symBinAddr: 0x10000A5B4, symSize: 0x2C }
  - { offsetInCU: 0x1FFAD, offset: 0x1FFAD, size: 0x8, addend: 0x0, symName: __ZNSt3__116reverse_iteratorIP4LensEC2B7v160006ES2_, symObjAddr: 0x8E3C, symBinAddr: 0x10000A5E0, symSize: 0x28 }
  - { offsetInCU: 0x1FFE5, offset: 0x1FFE5, size: 0x8, addend: 0x0, symName: __ZNSt3__114__split_bufferI4LensRNS_9allocatorIS1_EEED2Ev, symObjAddr: 0x8E64, symBinAddr: 0x10000A608, symSize: 0x8C }
  - { offsetInCU: 0x20011, offset: 0x20011, size: 0x8, addend: 0x0, symName: __ZNSt3__114__split_bufferI4LensRNS_9allocatorIS1_EEE5clearB7v160006Ev, symObjAddr: 0x8EF0, symBinAddr: 0x10000A694, symSize: 0x28 }
  - { offsetInCU: 0x20037, offset: 0x20037, size: 0x8, addend: 0x0, symName: __ZNKSt3__114__split_bufferI4LensRNS_9allocatorIS1_EEE8capacityB7v160006Ev, symObjAddr: 0x8F18, symBinAddr: 0x10000A6BC, symSize: 0x40 }
  - { offsetInCU: 0x2005D, offset: 0x2005D, size: 0x8, addend: 0x0, symName: __ZNSt3__114__split_bufferI4LensRNS_9allocatorIS1_EEE17__destruct_at_endB7v160006EPS1_, symObjAddr: 0x8F58, symBinAddr: 0x10000A6FC, symSize: 0x2C }
  - { offsetInCU: 0x20091, offset: 0x20091, size: 0x8, addend: 0x0, symName: __ZNSt3__114__split_bufferI4LensRNS_9allocatorIS1_EEE17__destruct_at_endB7v160006EPS1_NS_17integral_constantIbLb0EEE, symObjAddr: 0x8F84, symBinAddr: 0x10000A728, symSize: 0x80 }
  - { offsetInCU: 0x200D1, offset: 0x200D1, size: 0x8, addend: 0x0, symName: __ZNKSt3__114__split_bufferI4LensRNS_9allocatorIS1_EEE9__end_capB7v160006Ev, symObjAddr: 0x9004, symBinAddr: 0x10000A7A8, symSize: 0x28 }
  - { offsetInCU: 0x200F7, offset: 0x200F7, size: 0x8, addend: 0x0, symName: __ZNKSt3__117__compressed_pairIP4LensRNS_9allocatorIS1_EEE5firstB7v160006Ev, symObjAddr: 0x902C, symBinAddr: 0x10000A7D0, symSize: 0x24 }
  - { offsetInCU: 0x2011D, offset: 0x2011D, size: 0x8, addend: 0x0, symName: __ZNSt3__16vectorINS0_I4LensNS_9allocatorIS1_EEEENS2_IS4_EEED2B7v160006Ev, symObjAddr: 0x9050, symBinAddr: 0x10000A7F4, symSize: 0x44 }
  - { offsetInCU: 0x20147, offset: 0x20147, size: 0x8, addend: 0x0, symName: __ZN8SolutionD2Ev, symObjAddr: 0x9094, symBinAddr: 0x10000A838, symSize: 0x38 }
  - { offsetInCU: 0x20194, offset: 0x20194, size: 0x8, addend: 0x0, symName: __ZNKSt3__113basic_ostreamIcNS_11char_traitsIcEEE6sentrycvbB7v160006Ev, symObjAddr: 0x92B8, symBinAddr: 0x10000AA5C, symSize: 0x1C }
  - { offsetInCU: 0x201BA, offset: 0x201BA, size: 0x8, addend: 0x0, symName: __ZNSt3__119ostreambuf_iteratorIcNS_11char_traitsIcEEEC1B7v160006ERNS_13basic_ostreamIcS2_EE, symObjAddr: 0x9514, symBinAddr: 0x10000ACB8, symSize: 0x34 }
  - { offsetInCU: 0x201F2, offset: 0x201F2, size: 0x8, addend: 0x0, symName: __ZNKSt3__18ios_base5flagsB7v160006Ev, symObjAddr: 0x9548, symBinAddr: 0x10000ACEC, symSize: 0x18 }
  - { offsetInCU: 0x2021A, offset: 0x2021A, size: 0x8, addend: 0x0, symName: __ZNKSt3__19basic_iosIcNS_11char_traitsIcEEE4fillB7v160006Ev, symObjAddr: 0x9560, symBinAddr: 0x10000AD04, symSize: 0x64 }
  - { offsetInCU: 0x20242, offset: 0x20242, size: 0x8, addend: 0x0, symName: __ZNKSt3__119ostreambuf_iteratorIcNS_11char_traitsIcEEE6failedB7v160006Ev, symObjAddr: 0x95C4, symBinAddr: 0x10000AD68, symSize: 0x24 }
  - { offsetInCU: 0x20268, offset: 0x20268, size: 0x8, addend: 0x0, symName: __ZNKSt3__18ios_base5widthB7v160006Ev, symObjAddr: 0x95E8, symBinAddr: 0x10000AD8C, symSize: 0x18 }
  - { offsetInCU: 0x20290, offset: 0x20290, size: 0x8, addend: 0x0, symName: __ZNSt3__115basic_streambufIcNS_11char_traitsIcEEE5sputnB7v160006EPKcl, symObjAddr: 0x9600, symBinAddr: 0x10000ADA4, symSize: 0x3C }
  - { offsetInCU: 0x202D2, offset: 0x202D2, size: 0x8, addend: 0x0, symName: __ZNSt3__112basic_stringIcNS_11char_traitsIcEENS_9allocatorIcEEEC1B7v160006Emc, symObjAddr: 0x963C, symBinAddr: 0x10000ADE0, symSize: 0x3C }
  - { offsetInCU: 0x2031A, offset: 0x2031A, size: 0x8, addend: 0x0, symName: __ZNSt3__112basic_stringIcNS_11char_traitsIcEENS_9allocatorIcEEE4dataB7v160006Ev, symObjAddr: 0x9678, symBinAddr: 0x10000AE1C, symSize: 0x28 }
  - { offsetInCU: 0x20340, offset: 0x20340, size: 0x8, addend: 0x0, symName: __ZNSt3__18ios_base5widthB7v160006El, symObjAddr: 0x96A0, symBinAddr: 0x10000AE44, symSize: 0x2C }
  - { offsetInCU: 0x20386, offset: 0x20386, size: 0x8, addend: 0x0, symName: __ZNSt3__112basic_stringIcNS_11char_traitsIcEENS_9allocatorIcEEEC2B7v160006Emc, symObjAddr: 0x96CC, symBinAddr: 0x10000AE70, symSize: 0x54 }
  - { offsetInCU: 0x203CE, offset: 0x203CE, size: 0x8, addend: 0x0, symName: __ZNSt3__119ostreambuf_iteratorIcNS_11char_traitsIcEEEC2B7v160006ERNS_13basic_ostreamIcS2_EE, symObjAddr: 0x9734, symBinAddr: 0x10000AED8, symSize: 0x54 }
...
