---
triple:          'arm64-apple-darwin'
binary-path:     '/Users/matteokinkela/Documents/advent-of-code/2023/day-17/solution'
relocations:
  - { offsetInCU: 0x3F, offset: 0x3F, size: 0x8, addend: 0x0, symName: _dx, symObjAddr: 0x1027C, symBinAddr: 0x100018000, symSize: 0x0 }
  - { offsetInCU: 0x6E, offset: 0x6E, size: 0x8, addend: 0x0, symName: _dy, symObjAddr: 0x1028C, symBinAddr: 0x100018010, symSize: 0x0 }
  - { offsetInCU: 0x93, offset: 0x93, size: 0x8, addend: 0x0, symName: __ZNSt3__115strong_ordering5equalE, symObjAddr: 0x1053F, symBinAddr: 0x1000133DC, symSize: 0x0 }
  - { offsetInCU: 0x266, offset: 0x266, size: 0x8, addend: 0x0, symName: __ZNSt3__117__synth_three_wayB7v160006E, symObjAddr: 0x10540, symBinAddr: 0x1000133DD, symSize: 0x0 }
  - { offsetInCU: 0x120CC, offset: 0x120CC, size: 0x8, addend: 0x0, symName: __ZNSt3__17advanceB7v160006IPNS_12basic_stringIcNS_11char_traitsIcEENS_9allocatorIcEEEEllvEEvRT_T0_, symObjAddr: 0x3B04, symBinAddr: 0x100006784, symSize: 0x50 }
  - { offsetInCU: 0x1234C, offset: 0x1234C, size: 0x8, addend: 0x0, symName: __ZNSt3__17advanceB7v160006INS_16reverse_iteratorIPNS_12basic_stringIcNS_11char_traitsIcEENS_9allocatorIcEEEEEEllvEEvRT_T0_, symObjAddr: 0x3F74, symBinAddr: 0x100006BF4, symSize: 0x50 }
  - { offsetInCU: 0x14801, offset: 0x14801, size: 0x8, addend: 0x0, symName: __ZNSt3__17advanceB7v160006IPillvEEvRT_T0_, symObjAddr: 0x7128, symBinAddr: 0x100009DA8, symSize: 0x50 }
  - { offsetInCU: 0x15C40, offset: 0x15C40, size: 0x8, addend: 0x0, symName: __ZNSt3__17advanceB7v160006IPNS_6vectorIiNS_9allocatorIiEEEEllvEEvRT_T0_, symObjAddr: 0x8774, symBinAddr: 0x10000B3F4, symSize: 0x50 }
  - { offsetInCU: 0x16FB6, offset: 0x16FB6, size: 0x8, addend: 0x0, symName: __ZNSt3__17advanceB7v160006IPNS_6vectorINS1_IiNS_9allocatorIiEEEENS2_IS4_EEEEllvEEvRT_T0_, symObjAddr: 0x9DC8, symBinAddr: 0x10000CA48, symSize: 0x50 }
  - { offsetInCU: 0x1906F, offset: 0x1906F, size: 0x8, addend: 0x0, symName: __ZNSt3__17advanceB7v160006IPNS_5tupleIJiiii9DirectionEEEllvEEvRT_T0_, symObjAddr: 0xB4D0, symBinAddr: 0x10000E150, symSize: 0x50 }
  - { offsetInCU: 0x192EF, offset: 0x192EF, size: 0x8, addend: 0x0, symName: __ZNSt3__17advanceB7v160006INS_16reverse_iteratorIPNS_5tupleIJiiii9DirectionEEEEEllvEEvRT_T0_, symObjAddr: 0xB918, symBinAddr: 0x10000E598, symSize: 0x50 }
  - { offsetInCU: 0x193A0, offset: 0x193A0, size: 0x8, addend: 0x0, symName: __ZNSt3__117__floyd_sift_downB7v160006INS_17_ClassicAlgPolicyERNS_4lessINS_5tupleIJiiii9DirectionEEEEENS_11__wrap_iterIPS5_EEEET1_SB_OT0_NS_15iterator_traitsISB_E15difference_typeE, symObjAddr: 0xCBEC, symBinAddr: 0x10000F86C, symSize: 0x148 }
  - { offsetInCU: 0x19792, offset: 0x19792, size: 0x8, addend: 0x0, symName: __ZNSt3__17advanceB7v160006IPNS_5tupleIJiii9DirectionEEEllvEEvRT_T0_, symObjAddr: 0xE284, symBinAddr: 0x100010F04, symSize: 0x50 }
  - { offsetInCU: 0x19A12, offset: 0x19A12, size: 0x8, addend: 0x0, symName: __ZNSt3__17advanceB7v160006INS_16reverse_iteratorIPNS_5tupleIJiii9DirectionEEEEEllvEEvRT_T0_, symObjAddr: 0xE6C4, symBinAddr: 0x100011344, symSize: 0x50 }
  - { offsetInCU: 0x19A7D, offset: 0x19A7D, size: 0x8, addend: 0x0, symName: __ZNSt3__124__put_character_sequenceB7v160006IcNS_11char_traitsIcEEEERNS_13basic_ostreamIT_T0_EES7_PKS4_m, symObjAddr: 0xF474, symBinAddr: 0x1000120F4, symSize: 0x1EC }
  - { offsetInCU: 0x1AAF4, offset: 0x1AAF4, size: 0x8, addend: 0x0, symName: __ZNSt3__1lsB7v160006INS_11char_traitsIcEEEERNS_13basic_ostreamIcT_EES6_PKc, symObjAddr: 0x3C8, symBinAddr: 0x100003048, symSize: 0x48 }
  - { offsetInCU: 0x1AB3A, offset: 0x1AB3A, size: 0x8, addend: 0x0, symName: __ZNSt3__14endlB7v160006IcNS_11char_traitsIcEEEERNS_13basic_ostreamIT_T0_EES7_, symObjAddr: 0xDB0, symBinAddr: 0x100003A30, symSize: 0x58 }
  - { offsetInCU: 0x1AB7A, offset: 0x1AB7A, size: 0x8, addend: 0x0, symName: __ZNSt3__1lsB7v160006IcNS_11char_traitsIcEENS_9allocatorIcEEEERNS_13basic_ostreamIT_T0_EES9_RKNS_12basic_stringIS6_S7_T1_EE, symObjAddr: 0xE08, symBinAddr: 0x100003A88, symSize: 0x4C }
  - { offsetInCU: 0x1ABD2, offset: 0x1ABD2, size: 0x8, addend: 0x0, symName: __ZNSt3__119__debug_db_insert_cB7v160006INS_12basic_stringIcNS_11char_traitsIcEENS_9allocatorIcEEEEEEvPT_, symObjAddr: 0xF8C, symBinAddr: 0x100003C0C, symSize: 0x10 }
  - { offsetInCU: 0x1AC03, offset: 0x1AC03, size: 0x8, addend: 0x0, symName: __ZNSt3__118__constexpr_strlenB7v160006EPKc, symObjAddr: 0x1058, symBinAddr: 0x100003CD8, symSize: 0x24 }
  - { offsetInCU: 0x1AC2F, offset: 0x1AC2F, size: 0x8, addend: 0x0, symName: __ZNSt3__119__debug_db_insert_cB7v160006INS_6vectorINS_12basic_stringIcNS_11char_traitsIcEENS_9allocatorIcEEEENS5_IS7_EEEEEEvPT_, symObjAddr: 0x177C, symBinAddr: 0x1000043FC, symSize: 0x10 }
  - { offsetInCU: 0x1AC60, offset: 0x1AC60, size: 0x8, addend: 0x0, symName: __ZNSt3__112__to_addressB7v160006IKcEEPT_S3_, symObjAddr: 0x193C, symBinAddr: 0x1000045BC, symSize: 0x14 }
  - { offsetInCU: 0x1ACC8, offset: 0x1ACC8, size: 0x8, addend: 0x0, symName: __ZNSt3__17getlineB7v160006IcNS_11char_traitsIcEENS_9allocatorIcEEEERNS_13basic_istreamIT_T0_EES9_RNS_12basic_stringIS6_S7_T1_EE, symObjAddr: 0x1AD8, symBinAddr: 0x100004758, symSize: 0x5C }
  - { offsetInCU: 0x1AD20, offset: 0x1AD20, size: 0x8, addend: 0x0, symName: __ZNSt3__17getlineB7v160006IcNS_11char_traitsIcEENS_9allocatorIcEEEERNS_13basic_istreamIT_T0_EES9_RNS_12basic_stringIS6_S7_T1_EES6_, symObjAddr: 0x1C94, symBinAddr: 0x100004914, symSize: 0x238 }
  - { offsetInCU: 0x1ADDE, offset: 0x1ADDE, size: 0x8, addend: 0x0, symName: __ZNSt3__125__debug_db_invalidate_allB7v160006INS_12basic_stringIcNS_11char_traitsIcEENS_9allocatorIcEEEEEEvPT_, symObjAddr: 0x2280, symBinAddr: 0x100004F00, symSize: 0x10 }
  - { offsetInCU: 0x1AFFB, offset: 0x1AFFB, size: 0x8, addend: 0x0, symName: __ZNSt3__19use_facetB7v160006INS_5ctypeIcEEEERKT_RKNS_6localeE, symObjAddr: 0x2508, symBinAddr: 0x100005188, symSize: 0x2C }
  - { offsetInCU: 0x1B4CA, offset: 0x1B4CA, size: 0x8, addend: 0x0, symName: __ZNSt3__112__to_addressB7v160006INS_12basic_stringIcNS_11char_traitsIcEENS_9allocatorIcEEEEEEPT_S8_, symObjAddr: 0x2818, symBinAddr: 0x100005498, symSize: 0x14 }
  - { offsetInCU: 0x1B524, offset: 0x1B524, size: 0x8, addend: 0x0, symName: __ZNSt3__112construct_atB7v160006INS_12basic_stringIcNS_11char_traitsIcEENS_9allocatorIcEEEEJRKS6_EPS6_EEPT_SB_DpOT0_, symObjAddr: 0x28A4, symBinAddr: 0x100005524, symSize: 0x3C }
  - { offsetInCU: 0x1B594, offset: 0x1B594, size: 0x8, addend: 0x0, symName: __ZNSt3__13maxB7v160006ImEERKT_S3_S3_, symObjAddr: 0x2C58, symBinAddr: 0x1000058D8, symSize: 0x2C }
  - { offsetInCU: 0x1B5D7, offset: 0x1B5D7, size: 0x8, addend: 0x0, symName: __ZNSt3__13minB7v160006ImEERKT_S3_S3_, symObjAddr: 0x2C84, symBinAddr: 0x100005904, symSize: 0x2C }
  - { offsetInCU: 0x1B804, offset: 0x1B804, size: 0x8, addend: 0x0, symName: __ZNSt3__13minB7v160006ImNS_6__lessImmEEEERKT_S5_S5_T0_, symObjAddr: 0x2D14, symBinAddr: 0x100005994, symSize: 0x54 }
  - { offsetInCU: 0x1B899, offset: 0x1B899, size: 0x8, addend: 0x0, symName: __ZNSt3__120__throw_length_errorB7v160006EPKc, symObjAddr: 0x2DDC, symBinAddr: 0x100005A5C, symSize: 0x64 }
  - { offsetInCU: 0x1B8C1, offset: 0x1B8C1, size: 0x8, addend: 0x0, symName: __ZNSt3__13maxB7v160006ImNS_6__lessImmEEEERKT_S5_S5_T0_, symObjAddr: 0x2F20, symBinAddr: 0x100005BA0, symSize: 0x54 }
  - { offsetInCU: 0x1B91B, offset: 0x1B91B, size: 0x8, addend: 0x0, symName: __ZNSt3__119__allocate_at_leastB7v160006INS_9allocatorINS_12basic_stringIcNS_11char_traitsIcEENS1_IcEEEEEEEENS_19__allocation_resultINS_16allocator_traitsIT_E7pointerEEERSA_m, symObjAddr: 0x3090, symBinAddr: 0x100005D10, symSize: 0x40 }
  - { offsetInCU: 0x1B95E, offset: 0x1B95E, size: 0x8, addend: 0x0, symName: __ZNSt3__117__libcpp_allocateB7v160006Emm, symObjAddr: 0x3218, symBinAddr: 0x100005E98, symSize: 0x60 }
  - { offsetInCU: 0x1B9B8, offset: 0x1B9B8, size: 0x8, addend: 0x0, symName: __ZNSt3__124__is_overaligned_for_newB7v160006Em, symObjAddr: 0x3278, symBinAddr: 0x100005EF8, symSize: 0x20 }
  - { offsetInCU: 0x1B9E6, offset: 0x1B9E6, size: 0x8, addend: 0x0, symName: __ZNSt3__121__libcpp_operator_newB7v160006IJmSt11align_val_tEEEPvDpT_, symObjAddr: 0x3298, symBinAddr: 0x100005F18, symSize: 0x2C }
  - { offsetInCU: 0x1BA33, offset: 0x1BA33, size: 0x8, addend: 0x0, symName: __ZNSt3__121__libcpp_operator_newB7v160006IJmEEEPvDpT_, symObjAddr: 0x32C4, symBinAddr: 0x100005F44, symSize: 0x24 }
  - { offsetInCU: 0x1BA6C, offset: 0x1BA6C, size: 0x8, addend: 0x0, symName: __ZNSt3__142__uninitialized_allocator_move_if_noexceptB7v160006INS_9allocatorINS_12basic_stringIcNS_11char_traitsIcEENS1_IcEEEEEENS_16reverse_iteratorIPS6_EESA_SA_EET2_RT_T0_T1_SB_, symObjAddr: 0x3420, symBinAddr: 0x1000060A0, symSize: 0x12C }
  - { offsetInCU: 0x1BB0C, offset: 0x1BB0C, size: 0x8, addend: 0x0, symName: __ZNSt3__14swapB7v160006IPNS_12basic_stringIcNS_11char_traitsIcEENS_9allocatorIcEEEEEENS_9enable_ifIXaasr21is_move_constructibleIT_EE5valuesr18is_move_assignableIS9_EE5valueEvE4typeERS9_SC_, symObjAddr: 0x3598, symBinAddr: 0x100006218, symSize: 0x3C }
  - { offsetInCU: 0x1BB5D, offset: 0x1BB5D, size: 0x8, addend: 0x0, symName: __ZNSt3__125__debug_db_invalidate_allB7v160006INS_6vectorINS_12basic_stringIcNS_11char_traitsIcEENS_9allocatorIcEEEENS5_IS7_EEEEEEvPT_, symObjAddr: 0x369C, symBinAddr: 0x10000631C, symSize: 0x10 }
  - { offsetInCU: 0x1BB8E, offset: 0x1BB8E, size: 0x8, addend: 0x0, symName: __ZNSt3__122__make_exception_guardB7v160006INS_29_AllocatorDestroyRangeReverseINS_9allocatorINS_12basic_stringIcNS_11char_traitsIcEENS2_IcEEEEEENS_16reverse_iteratorIPS7_EEEEEENS_28__exception_guard_exceptionsIT_EESE_, symObjAddr: 0x36F4, symBinAddr: 0x100006374, symSize: 0x4C }
  - { offsetInCU: 0x1BBC4, offset: 0x1BBC4, size: 0x8, addend: 0x0, symName: __ZNSt3__1neB7v160006IPNS_12basic_stringIcNS_11char_traitsIcEENS_9allocatorIcEEEES7_EEbRKNS_16reverse_iteratorIT_EERKNS8_IT0_EE, symObjAddr: 0x3784, symBinAddr: 0x100006404, symSize: 0x48 }
  - { offsetInCU: 0x1BC10, offset: 0x1BC10, size: 0x8, addend: 0x0, symName: __ZNSt3__112__to_addressB7v160006INS_16reverse_iteratorIPNS_12basic_stringIcNS_11char_traitsIcEENS_9allocatorIcEEEEEEvEENS_5decayIDTclsr19__to_address_helperIT_EE6__callclsr3stdE7declvalIRKSB_EEEEE4typeESD_, symObjAddr: 0x37FC, symBinAddr: 0x10000647C, symSize: 0x24 }
  - { offsetInCU: 0x1BC46, offset: 0x1BC46, size: 0x8, addend: 0x0, symName: __ZNSt3__112construct_atB7v160006INS_12basic_stringIcNS_11char_traitsIcEENS_9allocatorIcEEEEJS6_EPS6_EEPT_S9_DpOT0_, symObjAddr: 0x394C, symBinAddr: 0x1000065CC, symSize: 0x3C }
  - { offsetInCU: 0x1BCB6, offset: 0x1BCB6, size: 0x8, addend: 0x0, symName: __ZNSt3__115__debug_db_swapB7v160006INS_12basic_stringIcNS_11char_traitsIcEENS_9allocatorIcEEEEEEvPT_S8_, symObjAddr: 0x3A3C, symBinAddr: 0x1000066BC, symSize: 0x14 }
  - { offsetInCU: 0x1BD1E, offset: 0x1BD1E, size: 0x8, addend: 0x0, symName: __ZNSt3__14prevB7v160006IPNS_12basic_stringIcNS_11char_traitsIcEENS_9allocatorIcEEEEEENS_9enable_ifIXsr25__is_cpp17_input_iteratorIT_EE5valueES9_E4typeES9_NS_15iterator_traitsIS9_E15difference_typeE, symObjAddr: 0x3AB4, symBinAddr: 0x100006734, symSize: 0x50 }
  - { offsetInCU: 0x1BD61, offset: 0x1BD61, size: 0x8, addend: 0x0, symName: __ZNSt3__121__convert_to_integralB7v160006El, symObjAddr: 0x3B54, symBinAddr: 0x1000067D4, symSize: 0x14 }
  - { offsetInCU: 0x1BD8D, offset: 0x1BD8D, size: 0x8, addend: 0x0, symName: __ZNSt3__19__advanceB7v160006IPNS_12basic_stringIcNS_11char_traitsIcEENS_9allocatorIcEEEEEEvRT_NS_15iterator_traitsIS8_E15difference_typeENS_26random_access_iterator_tagE, symObjAddr: 0x3B68, symBinAddr: 0x1000067E8, symSize: 0x30 }
  - { offsetInCU: 0x1BDD6, offset: 0x1BDD6, size: 0x8, addend: 0x0, symName: __ZNSt3__119__allocator_destroyB7v160006INS_9allocatorINS_12basic_stringIcNS_11char_traitsIcEENS1_IcEEEEEENS_16reverse_iteratorINS8_IPS6_EEEESB_EEvRT_T0_T1_, symObjAddr: 0x3C9C, symBinAddr: 0x10000691C, symSize: 0x70 }
  - { offsetInCU: 0x1BE3B, offset: 0x1BE3B, size: 0x8, addend: 0x0, symName: __ZNSt3__1neB7v160006INS_16reverse_iteratorIPNS_12basic_stringIcNS_11char_traitsIcEENS_9allocatorIcEEEEEES9_EEbRKNS1_IT_EERKNS1_IT0_EE, symObjAddr: 0x3D48, symBinAddr: 0x1000069C8, symSize: 0x60 }
  - { offsetInCU: 0x1BE87, offset: 0x1BE87, size: 0x8, addend: 0x0, symName: __ZNSt3__112__to_addressB7v160006INS_16reverse_iteratorINS1_IPNS_12basic_stringIcNS_11char_traitsIcEENS_9allocatorIcEEEEEEEEvEENS_5decayIDTclsr19__to_address_helperIT_EE6__callclsr3stdE7declvalIRKSC_EEEEE4typeESE_, symObjAddr: 0x3DD0, symBinAddr: 0x100006A50, symSize: 0x24 }
  - { offsetInCU: 0x1BEBD, offset: 0x1BEBD, size: 0x8, addend: 0x0, symName: __ZNSt3__110destroy_atB7v160006INS_12basic_stringIcNS_11char_traitsIcEENS_9allocatorIcEEEELi0EEEvPT_, symObjAddr: 0x3E48, symBinAddr: 0x100006AC8, symSize: 0x24 }
  - { offsetInCU: 0x1BEF4, offset: 0x1BEF4, size: 0x8, addend: 0x0, symName: __ZNSt3__112__destroy_atB7v160006INS_12basic_stringIcNS_11char_traitsIcEENS_9allocatorIcEEEELi0EEEvPT_, symObjAddr: 0x3E6C, symBinAddr: 0x100006AEC, symSize: 0x24 }
  - { offsetInCU: 0x1BF54, offset: 0x1BF54, size: 0x8, addend: 0x0, symName: __ZNSt3__14prevB7v160006INS_16reverse_iteratorIPNS_12basic_stringIcNS_11char_traitsIcEENS_9allocatorIcEEEEEEEENS_9enable_ifIXsr25__is_cpp17_input_iteratorIT_EE5valueESB_E4typeESB_NS_15iterator_traitsISB_E15difference_typeE, symObjAddr: 0x3F14, symBinAddr: 0x100006B94, symSize: 0x60 }
  - { offsetInCU: 0x1BF97, offset: 0x1BF97, size: 0x8, addend: 0x0, symName: __ZNSt3__19__advanceB7v160006INS_16reverse_iteratorIPNS_12basic_stringIcNS_11char_traitsIcEENS_9allocatorIcEEEEEEEEvRT_NS_15iterator_traitsISA_E15difference_typeENS_26random_access_iterator_tagE, symObjAddr: 0x3FC4, symBinAddr: 0x100006C44, symSize: 0x2C }
  - { offsetInCU: 0x1BFE0, offset: 0x1BFE0, size: 0x8, addend: 0x0, symName: __ZNSt3__119__libcpp_deallocateB7v160006EPvmm, symObjAddr: 0x42AC, symBinAddr: 0x100006F2C, symSize: 0x60 }
  - { offsetInCU: 0x1C045, offset: 0x1C045, size: 0x8, addend: 0x0, symName: __ZNSt3__127__do_deallocate_handle_sizeB7v160006IJSt11align_val_tEEEvPvmDpT_, symObjAddr: 0x430C, symBinAddr: 0x100006F8C, symSize: 0x30 }
  - { offsetInCU: 0x1C098, offset: 0x1C098, size: 0x8, addend: 0x0, symName: __ZNSt3__127__do_deallocate_handle_sizeB7v160006IJEEEvPvmDpT_, symObjAddr: 0x433C, symBinAddr: 0x100006FBC, symSize: 0x28 }
  - { offsetInCU: 0x1C0D6, offset: 0x1C0D6, size: 0x8, addend: 0x0, symName: __ZNSt3__124__libcpp_operator_deleteB7v160006IJPvSt11align_val_tEEEvDpT_, symObjAddr: 0x4364, symBinAddr: 0x100006FE4, symSize: 0x2C }
  - { offsetInCU: 0x1C11F, offset: 0x1C11F, size: 0x8, addend: 0x0, symName: __ZNSt3__124__libcpp_operator_deleteB7v160006IJPvEEEvDpT_, symObjAddr: 0x4390, symBinAddr: 0x100007010, symSize: 0x24 }
  - { offsetInCU: 0x1C154, offset: 0x1C154, size: 0x8, addend: 0x0, symName: __ZNSt3__118__debug_db_erase_cB7v160006INS_6vectorINS_12basic_stringIcNS_11char_traitsIcEENS_9allocatorIcEEEENS5_IS7_EEEEEEvPT_, symObjAddr: 0x4534, symBinAddr: 0x1000071B4, symSize: 0x10 }
  - { offsetInCU: 0x1C3EA, offset: 0x1C3EA, size: 0x8, addend: 0x0, symName: __ZNSt3__110make_tupleB7v160006IJiiiiR9DirectionEEENS_5tupleIJDpNS_18__unwrap_ref_decayIT_E4typeEEEEDpOS5_, symObjAddr: 0x48C0, symBinAddr: 0x100007540, symSize: 0x50 }
  - { offsetInCU: 0x1C473, offset: 0x1C473, size: 0x8, addend: 0x0, symName: __ZNSt3__13getB7v160006ILm0EJiiii9DirectionEEEONS_13tuple_elementIXT_ENS_5tupleIJDpT0_EEEE4typeEOS6_, symObjAddr: 0x4A04, symBinAddr: 0x100007684, symSize: 0x24 }
  - { offsetInCU: 0x1C4CA, offset: 0x1C4CA, size: 0x8, addend: 0x0, symName: __ZNSt3__13getB7v160006ILm1EJiiii9DirectionEEEONS_13tuple_elementIXT_ENS_5tupleIJDpT0_EEEE4typeEOS6_, symObjAddr: 0x4A28, symBinAddr: 0x1000076A8, symSize: 0x28 }
  - { offsetInCU: 0x1C521, offset: 0x1C521, size: 0x8, addend: 0x0, symName: __ZNSt3__13getB7v160006ILm2EJiiii9DirectionEEEONS_13tuple_elementIXT_ENS_5tupleIJDpT0_EEEE4typeEOS6_, symObjAddr: 0x4A50, symBinAddr: 0x1000076D0, symSize: 0x28 }
  - { offsetInCU: 0x1C578, offset: 0x1C578, size: 0x8, addend: 0x0, symName: __ZNSt3__13getB7v160006ILm3EJiiii9DirectionEEEONS_13tuple_elementIXT_ENS_5tupleIJDpT0_EEEE4typeEOS6_, symObjAddr: 0x4A78, symBinAddr: 0x1000076F8, symSize: 0x28 }
  - { offsetInCU: 0x1C5CF, offset: 0x1C5CF, size: 0x8, addend: 0x0, symName: __ZNSt3__13getB7v160006ILm4EJiiii9DirectionEEEONS_13tuple_elementIXT_ENS_5tupleIJDpT0_EEEE4typeEOS6_, symObjAddr: 0x4AA0, symBinAddr: 0x100007720, symSize: 0x28 }
  - { offsetInCU: 0x1C626, offset: 0x1C626, size: 0x8, addend: 0x0, symName: __ZNSt3__1neB7v160006IPNS_5tupleIJiii9DirectionEEEEEbRKNS_11__wrap_iterIT_EES9_, symObjAddr: 0x4DD0, symBinAddr: 0x100007A50, symSize: 0x34 }
  - { offsetInCU: 0x1C669, offset: 0x1C669, size: 0x8, addend: 0x0, symName: __ZNSt3__13getB7v160006ILm0EJiii9DirectionEEEONS_13tuple_elementIXT_ENS_5tupleIJDpT0_EEEE4typeEOS6_, symObjAddr: 0x4E1C, symBinAddr: 0x100007A9C, symSize: 0x24 }
  - { offsetInCU: 0x1C6BB, offset: 0x1C6BB, size: 0x8, addend: 0x0, symName: __ZNSt3__13getB7v160006ILm1EJiii9DirectionEEEONS_13tuple_elementIXT_ENS_5tupleIJDpT0_EEEE4typeEOS6_, symObjAddr: 0x4E40, symBinAddr: 0x100007AC0, symSize: 0x28 }
  - { offsetInCU: 0x1C70D, offset: 0x1C70D, size: 0x8, addend: 0x0, symName: __ZNSt3__13getB7v160006ILm2EJiii9DirectionEEEONS_13tuple_elementIXT_ENS_5tupleIJDpT0_EEEE4typeEOS6_, symObjAddr: 0x4E68, symBinAddr: 0x100007AE8, symSize: 0x28 }
  - { offsetInCU: 0x1C75F, offset: 0x1C75F, size: 0x8, addend: 0x0, symName: __ZNSt3__13getB7v160006ILm3EJiii9DirectionEEEONS_13tuple_elementIXT_ENS_5tupleIJDpT0_EEEE4typeEOS6_, symObjAddr: 0x4E90, symBinAddr: 0x100007B10, symSize: 0x28 }
  - { offsetInCU: 0x1C7B1, offset: 0x1C7B1, size: 0x8, addend: 0x0, symName: __ZNSt3__13minB7v160006IiEERKT_S3_S3_, symObjAddr: 0x4FC0, symBinAddr: 0x100007C40, symSize: 0x2C }
  - { offsetInCU: 0x1C7F4, offset: 0x1C7F4, size: 0x8, addend: 0x0, symName: __ZNSt3__119__debug_db_insert_cB7v160006INS_6vectorINS_5tupleIJiiii9DirectionEEENS_9allocatorIS4_EEEEEEvPT_, symObjAddr: 0x5130, symBinAddr: 0x100007DB0, symSize: 0x10 }
  - { offsetInCU: 0x1C825, offset: 0x1C825, size: 0x8, addend: 0x0, symName: __ZNSt3__122__make_exception_guardB7v160006INS_6vectorIiNS_9allocatorIiEEE16__destroy_vectorEEENS_28__exception_guard_exceptionsIT_EES7_, symObjAddr: 0x532C, symBinAddr: 0x100007FAC, symSize: 0x40 }
  - { offsetInCU: 0x1C85A, offset: 0x1C85A, size: 0x8, addend: 0x0, symName: __ZNSt3__119__debug_db_insert_cB7v160006INS_6vectorIiNS_9allocatorIiEEEEEEvPT_, symObjAddr: 0x53A0, symBinAddr: 0x100008020, symSize: 0x10 }
  - { offsetInCU: 0x1C88B, offset: 0x1C88B, size: 0x8, addend: 0x0, symName: __ZNSt3__119__allocate_at_leastB7v160006INS_9allocatorIiEEEENS_19__allocation_resultINS_16allocator_traitsIT_E7pointerEEERS5_m, symObjAddr: 0x5730, symBinAddr: 0x1000083B0, symSize: 0x40 }
  - { offsetInCU: 0x1C8CE, offset: 0x1C8CE, size: 0x8, addend: 0x0, symName: __ZNSt3__112__to_addressB7v160006IiEEPT_S2_, symObjAddr: 0x5A44, symBinAddr: 0x1000086C4, symSize: 0x14 }
  - { offsetInCU: 0x1C928, offset: 0x1C928, size: 0x8, addend: 0x0, symName: __ZNSt3__112construct_atB7v160006IiJRKiEPiEEPT_S5_DpOT0_, symObjAddr: 0x5B94, symBinAddr: 0x100008814, symSize: 0x2C }
  - { offsetInCU: 0x1C998, offset: 0x1C998, size: 0x8, addend: 0x0, symName: __ZNSt3__118__debug_db_erase_cB7v160006INS_6vectorIiNS_9allocatorIiEEEEEEvPT_, symObjAddr: 0x5D84, symBinAddr: 0x100008A04, symSize: 0x10 }
  - { offsetInCU: 0x1C9C9, offset: 0x1C9C9, size: 0x8, addend: 0x0, symName: __ZNSt3__110destroy_atB7v160006IiLi0EEEvPT_, symObjAddr: 0x5ECC, symBinAddr: 0x100008B4C, symSize: 0x24 }
  - { offsetInCU: 0x1CA00, offset: 0x1CA00, size: 0x8, addend: 0x0, symName: __ZNSt3__112__destroy_atB7v160006IiLi0EEEvPT_, symObjAddr: 0x5EF0, symBinAddr: 0x100008B70, symSize: 0x10 }
  - { offsetInCU: 0x1CA37, offset: 0x1CA37, size: 0x8, addend: 0x0, symName: __ZNSt3__122__make_exception_guardB7v160006INS_6vectorINS1_IiNS_9allocatorIiEEEENS2_IS4_EEE16__destroy_vectorEEENS_28__exception_guard_exceptionsIT_EES9_, symObjAddr: 0x6064, symBinAddr: 0x100008CE4, symSize: 0x40 }
  - { offsetInCU: 0x1CA6C, offset: 0x1CA6C, size: 0x8, addend: 0x0, symName: __ZNSt3__119__debug_db_insert_cB7v160006INS_6vectorINS1_IiNS_9allocatorIiEEEENS2_IS4_EEEEEEvPT_, symObjAddr: 0x60D8, symBinAddr: 0x100008D58, symSize: 0x10 }
  - { offsetInCU: 0x1CA9D, offset: 0x1CA9D, size: 0x8, addend: 0x0, symName: __ZNSt3__119__allocate_at_leastB7v160006INS_9allocatorINS_6vectorIiNS1_IiEEEEEEEENS_19__allocation_resultINS_16allocator_traitsIT_E7pointerEEERS8_m, symObjAddr: 0x6470, symBinAddr: 0x1000090F0, symSize: 0x40 }
  - { offsetInCU: 0x1CAE0, offset: 0x1CAE0, size: 0x8, addend: 0x0, symName: __ZNSt3__112__to_addressB7v160006INS_6vectorIiNS_9allocatorIiEEEEEEPT_S6_, symObjAddr: 0x67A4, symBinAddr: 0x100009424, symSize: 0x14 }
  - { offsetInCU: 0x1CB3A, offset: 0x1CB3A, size: 0x8, addend: 0x0, symName: __ZNSt3__112construct_atB7v160006INS_6vectorIiNS_9allocatorIiEEEEJRKS4_EPS4_EEPT_S9_DpOT0_, symObjAddr: 0x68FC, symBinAddr: 0x10000957C, symSize: 0x3C }
  - { offsetInCU: 0x1CBAA, offset: 0x1CBAA, size: 0x8, addend: 0x0, symName: __ZNSt3__130__uninitialized_allocator_copyB7v160006INS_9allocatorIiEEPiS3_S3_EET2_RT_T0_T1_S4_, symObjAddr: 0x6BB0, symBinAddr: 0x100009830, symSize: 0xF4 }
  - { offsetInCU: 0x1CC48, offset: 0x1CC48, size: 0x8, addend: 0x0, symName: __ZNSt3__122__make_exception_guardB7v160006INS_29_AllocatorDestroyRangeReverseINS_9allocatorIiEEPiEEEENS_28__exception_guard_exceptionsIT_EES7_, symObjAddr: 0x6CA4, symBinAddr: 0x100009924, symSize: 0x4C }
  - { offsetInCU: 0x1CC7E, offset: 0x1CC7E, size: 0x8, addend: 0x0, symName: __ZNSt3__112construct_atB7v160006IiJRiEPiEEPT_S4_DpOT0_, symObjAddr: 0x6E48, symBinAddr: 0x100009AC8, symSize: 0x2C }
  - { offsetInCU: 0x1CCEE, offset: 0x1CCEE, size: 0x8, addend: 0x0, symName: __ZNSt3__119__allocator_destroyB7v160006INS_9allocatorIiEENS_16reverse_iteratorIPiEES5_EEvRT_T0_T1_, symObjAddr: 0x6F2C, symBinAddr: 0x100009BAC, symSize: 0x70 }
  - { offsetInCU: 0x1CD51, offset: 0x1CD51, size: 0x8, addend: 0x0, symName: __ZNSt3__1neB7v160006IPiS1_EEbRKNS_16reverse_iteratorIT_EERKNS2_IT0_EE, symObjAddr: 0x6FD0, symBinAddr: 0x100009C50, symSize: 0x48 }
  - { offsetInCU: 0x1CD9D, offset: 0x1CD9D, size: 0x8, addend: 0x0, symName: __ZNSt3__112__to_addressB7v160006INS_16reverse_iteratorIPiEEvEENS_5decayIDTclsr19__to_address_helperIT_EE6__callclsr3stdE7declvalIRKS5_EEEEE4typeES7_, symObjAddr: 0x7018, symBinAddr: 0x100009C98, symSize: 0x24 }
  - { offsetInCU: 0x1CDFC, offset: 0x1CDFC, size: 0x8, addend: 0x0, symName: __ZNSt3__14prevB7v160006IPiEENS_9enable_ifIXsr25__is_cpp17_input_iteratorIT_EE5valueES3_E4typeES3_NS_15iterator_traitsIS3_E15difference_typeE, symObjAddr: 0x70D8, symBinAddr: 0x100009D58, symSize: 0x50 }
  - { offsetInCU: 0x1CE3F, offset: 0x1CE3F, size: 0x8, addend: 0x0, symName: __ZNSt3__19__advanceB7v160006IPiEEvRT_NS_15iterator_traitsIS2_E15difference_typeENS_26random_access_iterator_tagE, symObjAddr: 0x7178, symBinAddr: 0x100009DF8, symSize: 0x28 }
  - { offsetInCU: 0x1CE88, offset: 0x1CE88, size: 0x8, addend: 0x0, symName: __ZNSt3__118__debug_db_erase_cB7v160006INS_6vectorINS1_IiNS_9allocatorIiEEEENS2_IS4_EEEEEEvPT_, symObjAddr: 0x73A8, symBinAddr: 0x10000A028, symSize: 0x10 }
  - { offsetInCU: 0x1CEB9, offset: 0x1CEB9, size: 0x8, addend: 0x0, symName: __ZNSt3__110destroy_atB7v160006INS_6vectorIiNS_9allocatorIiEEEELi0EEEvPT_, symObjAddr: 0x74F0, symBinAddr: 0x10000A170, symSize: 0x24 }
  - { offsetInCU: 0x1CEF0, offset: 0x1CEF0, size: 0x8, addend: 0x0, symName: __ZNSt3__112__destroy_atB7v160006INS_6vectorIiNS_9allocatorIiEEEELi0EEEvPT_, symObjAddr: 0x7514, symBinAddr: 0x10000A194, symSize: 0x24 }
  - { offsetInCU: 0x1CF27, offset: 0x1CF27, size: 0x8, addend: 0x0, symName: __ZNSt3__122__make_exception_guardB7v160006INS_6vectorINS1_INS1_IiNS_9allocatorIiEEEENS2_IS4_EEEENS2_IS6_EEE16__destroy_vectorEEENS_28__exception_guard_exceptionsIT_EESB_, symObjAddr: 0x76A0, symBinAddr: 0x10000A320, symSize: 0x40 }
  - { offsetInCU: 0x1CF5C, offset: 0x1CF5C, size: 0x8, addend: 0x0, symName: __ZNSt3__119__debug_db_insert_cB7v160006INS_6vectorINS1_INS1_IiNS_9allocatorIiEEEENS2_IS4_EEEENS2_IS6_EEEEEEvPT_, symObjAddr: 0x7714, symBinAddr: 0x10000A394, symSize: 0x10 }
  - { offsetInCU: 0x1CF8D, offset: 0x1CF8D, size: 0x8, addend: 0x0, symName: __ZNSt3__119__allocate_at_leastB7v160006INS_9allocatorINS_6vectorINS2_IiNS1_IiEEEENS1_IS4_EEEEEEEENS_19__allocation_resultINS_16allocator_traitsIT_E7pointerEEERSA_m, symObjAddr: 0x7AAC, symBinAddr: 0x10000A72C, symSize: 0x40 }
  - { offsetInCU: 0x1CFD0, offset: 0x1CFD0, size: 0x8, addend: 0x0, symName: __ZNSt3__112__to_addressB7v160006INS_6vectorINS1_IiNS_9allocatorIiEEEENS2_IS4_EEEEEEPT_S8_, symObjAddr: 0x7DE0, symBinAddr: 0x10000AA60, symSize: 0x14 }
  - { offsetInCU: 0x1D02A, offset: 0x1D02A, size: 0x8, addend: 0x0, symName: __ZNSt3__112construct_atB7v160006INS_6vectorINS1_IiNS_9allocatorIiEEEENS2_IS4_EEEEJRKS6_EPS6_EEPT_SB_DpOT0_, symObjAddr: 0x7F38, symBinAddr: 0x10000ABB8, symSize: 0x3C }
  - { offsetInCU: 0x1D09A, offset: 0x1D09A, size: 0x8, addend: 0x0, symName: __ZNSt3__130__uninitialized_allocator_copyB7v160006INS_9allocatorINS_6vectorIiNS1_IiEEEEEEPS4_S6_S6_EET2_RT_T0_T1_S7_, symObjAddr: 0x81EC, symBinAddr: 0x10000AE6C, symSize: 0xF4 }
  - { offsetInCU: 0x1D138, offset: 0x1D138, size: 0x8, addend: 0x0, symName: __ZNSt3__122__make_exception_guardB7v160006INS_29_AllocatorDestroyRangeReverseINS_9allocatorINS_6vectorIiNS2_IiEEEEEEPS5_EEEENS_28__exception_guard_exceptionsIT_EESA_, symObjAddr: 0x82E0, symBinAddr: 0x10000AF60, symSize: 0x4C }
  - { offsetInCU: 0x1D16E, offset: 0x1D16E, size: 0x8, addend: 0x0, symName: __ZNSt3__112construct_atB7v160006INS_6vectorIiNS_9allocatorIiEEEEJRS4_EPS4_EEPT_S8_DpOT0_, symObjAddr: 0x8484, symBinAddr: 0x10000B104, symSize: 0x3C }
  - { offsetInCU: 0x1D1DE, offset: 0x1D1DE, size: 0x8, addend: 0x0, symName: __ZNSt3__119__allocator_destroyB7v160006INS_9allocatorINS_6vectorIiNS1_IiEEEEEENS_16reverse_iteratorIPS4_EES8_EEvRT_T0_T1_, symObjAddr: 0x8578, symBinAddr: 0x10000B1F8, symSize: 0x70 }
  - { offsetInCU: 0x1D241, offset: 0x1D241, size: 0x8, addend: 0x0, symName: __ZNSt3__1neB7v160006IPNS_6vectorIiNS_9allocatorIiEEEES5_EEbRKNS_16reverse_iteratorIT_EERKNS6_IT0_EE, symObjAddr: 0x861C, symBinAddr: 0x10000B29C, symSize: 0x48 }
  - { offsetInCU: 0x1D28D, offset: 0x1D28D, size: 0x8, addend: 0x0, symName: __ZNSt3__112__to_addressB7v160006INS_16reverse_iteratorIPNS_6vectorIiNS_9allocatorIiEEEEEEvEENS_5decayIDTclsr19__to_address_helperIT_EE6__callclsr3stdE7declvalIRKS9_EEEEE4typeESB_, symObjAddr: 0x8664, symBinAddr: 0x10000B2E4, symSize: 0x24 }
  - { offsetInCU: 0x1D2EC, offset: 0x1D2EC, size: 0x8, addend: 0x0, symName: __ZNSt3__14prevB7v160006IPNS_6vectorIiNS_9allocatorIiEEEEEENS_9enable_ifIXsr25__is_cpp17_input_iteratorIT_EE5valueES7_E4typeES7_NS_15iterator_traitsIS7_E15difference_typeE, symObjAddr: 0x8724, symBinAddr: 0x10000B3A4, symSize: 0x50 }
  - { offsetInCU: 0x1D32F, offset: 0x1D32F, size: 0x8, addend: 0x0, symName: __ZNSt3__19__advanceB7v160006IPNS_6vectorIiNS_9allocatorIiEEEEEEvRT_NS_15iterator_traitsIS6_E15difference_typeENS_26random_access_iterator_tagE, symObjAddr: 0x87C4, symBinAddr: 0x10000B444, symSize: 0x30 }
  - { offsetInCU: 0x1D378, offset: 0x1D378, size: 0x8, addend: 0x0, symName: __ZNSt3__118__debug_db_erase_cB7v160006INS_6vectorINS1_INS1_IiNS_9allocatorIiEEEENS2_IS4_EEEENS2_IS6_EEEEEEvPT_, symObjAddr: 0x89FC, symBinAddr: 0x10000B67C, symSize: 0x10 }
  - { offsetInCU: 0x1D3A9, offset: 0x1D3A9, size: 0x8, addend: 0x0, symName: __ZNSt3__110destroy_atB7v160006INS_6vectorINS1_IiNS_9allocatorIiEEEENS2_IS4_EEEELi0EEEvPT_, symObjAddr: 0x8B44, symBinAddr: 0x10000B7C4, symSize: 0x24 }
  - { offsetInCU: 0x1D3E0, offset: 0x1D3E0, size: 0x8, addend: 0x0, symName: __ZNSt3__112__destroy_atB7v160006INS_6vectorINS1_IiNS_9allocatorIiEEEENS2_IS4_EEEELi0EEEvPT_, symObjAddr: 0x8B68, symBinAddr: 0x10000B7E8, symSize: 0x24 }
  - { offsetInCU: 0x1D417, offset: 0x1D417, size: 0x8, addend: 0x0, symName: __ZNSt3__122__make_exception_guardB7v160006INS_6vectorINS1_INS1_INS1_IiNS_9allocatorIiEEEENS2_IS4_EEEENS2_IS6_EEEENS2_IS8_EEE16__destroy_vectorEEENS_28__exception_guard_exceptionsIT_EESD_, symObjAddr: 0x8CF4, symBinAddr: 0x10000B974, symSize: 0x40 }
  - { offsetInCU: 0x1D44C, offset: 0x1D44C, size: 0x8, addend: 0x0, symName: __ZNSt3__119__debug_db_insert_cB7v160006INS_6vectorINS1_INS1_INS1_IiNS_9allocatorIiEEEENS2_IS4_EEEENS2_IS6_EEEENS2_IS8_EEEEEEvPT_, symObjAddr: 0x8D68, symBinAddr: 0x10000B9E8, symSize: 0x10 }
  - { offsetInCU: 0x1D47D, offset: 0x1D47D, size: 0x8, addend: 0x0, symName: __ZNSt3__119__allocate_at_leastB7v160006INS_9allocatorINS_6vectorINS2_INS2_IiNS1_IiEEEENS1_IS4_EEEENS1_IS6_EEEEEEEENS_19__allocation_resultINS_16allocator_traitsIT_E7pointerEEERSC_m, symObjAddr: 0x9100, symBinAddr: 0x10000BD80, symSize: 0x40 }
  - { offsetInCU: 0x1D4C0, offset: 0x1D4C0, size: 0x8, addend: 0x0, symName: __ZNSt3__112__to_addressB7v160006INS_6vectorINS1_INS1_IiNS_9allocatorIiEEEENS2_IS4_EEEENS2_IS6_EEEEEEPT_SA_, symObjAddr: 0x9434, symBinAddr: 0x10000C0B4, symSize: 0x14 }
  - { offsetInCU: 0x1D51A, offset: 0x1D51A, size: 0x8, addend: 0x0, symName: __ZNSt3__112construct_atB7v160006INS_6vectorINS1_INS1_IiNS_9allocatorIiEEEENS2_IS4_EEEENS2_IS6_EEEEJRKS8_EPS8_EEPT_SD_DpOT0_, symObjAddr: 0x958C, symBinAddr: 0x10000C20C, symSize: 0x3C }
  - { offsetInCU: 0x1D58A, offset: 0x1D58A, size: 0x8, addend: 0x0, symName: __ZNSt3__130__uninitialized_allocator_copyB7v160006INS_9allocatorINS_6vectorINS2_IiNS1_IiEEEENS1_IS4_EEEEEEPS6_S8_S8_EET2_RT_T0_T1_S9_, symObjAddr: 0x9840, symBinAddr: 0x10000C4C0, symSize: 0xF4 }
  - { offsetInCU: 0x1D628, offset: 0x1D628, size: 0x8, addend: 0x0, symName: __ZNSt3__122__make_exception_guardB7v160006INS_29_AllocatorDestroyRangeReverseINS_9allocatorINS_6vectorINS3_IiNS2_IiEEEENS2_IS5_EEEEEEPS7_EEEENS_28__exception_guard_exceptionsIT_EESC_, symObjAddr: 0x9934, symBinAddr: 0x10000C5B4, symSize: 0x4C }
  - { offsetInCU: 0x1D65E, offset: 0x1D65E, size: 0x8, addend: 0x0, symName: __ZNSt3__112construct_atB7v160006INS_6vectorINS1_IiNS_9allocatorIiEEEENS2_IS4_EEEEJRS6_EPS6_EEPT_SA_DpOT0_, symObjAddr: 0x9AD8, symBinAddr: 0x10000C758, symSize: 0x3C }
  - { offsetInCU: 0x1D6CE, offset: 0x1D6CE, size: 0x8, addend: 0x0, symName: __ZNSt3__119__allocator_destroyB7v160006INS_9allocatorINS_6vectorINS2_IiNS1_IiEEEENS1_IS4_EEEEEENS_16reverse_iteratorIPS6_EESA_EEvRT_T0_T1_, symObjAddr: 0x9BCC, symBinAddr: 0x10000C84C, symSize: 0x70 }
  - { offsetInCU: 0x1D731, offset: 0x1D731, size: 0x8, addend: 0x0, symName: __ZNSt3__1neB7v160006IPNS_6vectorINS1_IiNS_9allocatorIiEEEENS2_IS4_EEEES7_EEbRKNS_16reverse_iteratorIT_EERKNS8_IT0_EE, symObjAddr: 0x9C70, symBinAddr: 0x10000C8F0, symSize: 0x48 }
  - { offsetInCU: 0x1D77D, offset: 0x1D77D, size: 0x8, addend: 0x0, symName: __ZNSt3__112__to_addressB7v160006INS_16reverse_iteratorIPNS_6vectorINS2_IiNS_9allocatorIiEEEENS3_IS5_EEEEEEvEENS_5decayIDTclsr19__to_address_helperIT_EE6__callclsr3stdE7declvalIRKSB_EEEEE4typeESD_, symObjAddr: 0x9CB8, symBinAddr: 0x10000C938, symSize: 0x24 }
  - { offsetInCU: 0x1D7DC, offset: 0x1D7DC, size: 0x8, addend: 0x0, symName: __ZNSt3__14prevB7v160006IPNS_6vectorINS1_IiNS_9allocatorIiEEEENS2_IS4_EEEEEENS_9enable_ifIXsr25__is_cpp17_input_iteratorIT_EE5valueES9_E4typeES9_NS_15iterator_traitsIS9_E15difference_typeE, symObjAddr: 0x9D78, symBinAddr: 0x10000C9F8, symSize: 0x50 }
  - { offsetInCU: 0x1D81F, offset: 0x1D81F, size: 0x8, addend: 0x0, symName: __ZNSt3__19__advanceB7v160006IPNS_6vectorINS1_IiNS_9allocatorIiEEEENS2_IS4_EEEEEEvRT_NS_15iterator_traitsIS8_E15difference_typeENS_26random_access_iterator_tagE, symObjAddr: 0x9E18, symBinAddr: 0x10000CA98, symSize: 0x30 }
  - { offsetInCU: 0x1D868, offset: 0x1D868, size: 0x8, addend: 0x0, symName: __ZNSt3__118__debug_db_erase_cB7v160006INS_6vectorINS1_INS1_INS1_IiNS_9allocatorIiEEEENS2_IS4_EEEENS2_IS6_EEEENS2_IS8_EEEEEEvPT_, symObjAddr: 0xA050, symBinAddr: 0x10000CCD0, symSize: 0x10 }
  - { offsetInCU: 0x1D899, offset: 0x1D899, size: 0x8, addend: 0x0, symName: __ZNSt3__110destroy_atB7v160006INS_6vectorINS1_INS1_IiNS_9allocatorIiEEEENS2_IS4_EEEENS2_IS6_EEEELi0EEEvPT_, symObjAddr: 0xA198, symBinAddr: 0x10000CE18, symSize: 0x24 }
  - { offsetInCU: 0x1D8D0, offset: 0x1D8D0, size: 0x8, addend: 0x0, symName: __ZNSt3__112__destroy_atB7v160006INS_6vectorINS1_INS1_IiNS_9allocatorIiEEEENS2_IS4_EEEENS2_IS6_EEEELi0EEEvPT_, symObjAddr: 0xA1BC, symBinAddr: 0x10000CE3C, symSize: 0x24 }
  - { offsetInCU: 0x1D907, offset: 0x1D907, size: 0x8, addend: 0x0, symName: __ZNSt3__19push_heapB7v160006INS_11__wrap_iterIPNS_5tupleIJiiii9DirectionEEEEENS_4lessIS4_EEEEvT_S9_T0_, symObjAddr: 0xA35C, symBinAddr: 0x10000CFDC, symSize: 0x40 }
  - { offsetInCU: 0x1D95D, offset: 0x1D95D, size: 0x8, addend: 0x0, symName: __ZNSt3__112__to_addressB7v160006INS_5tupleIJiiii9DirectionEEEEEPT_S5_, symObjAddr: 0xA658, symBinAddr: 0x10000D2D8, symSize: 0x14 }
  - { offsetInCU: 0x1D9B7, offset: 0x1D9B7, size: 0x8, addend: 0x0, symName: __ZNSt3__112construct_atB7v160006INS_5tupleIJiiii9DirectionEEEJS3_EPS3_EEPT_S6_DpOT0_, symObjAddr: 0xA6E4, symBinAddr: 0x10000D364, symSize: 0x34 }
  - { offsetInCU: 0x1DA27, offset: 0x1DA27, size: 0x8, addend: 0x0, symName: __ZNSt3__119__allocate_at_leastB7v160006INS_9allocatorINS_5tupleIJiiii9DirectionEEEEEEENS_19__allocation_resultINS_16allocator_traitsIT_E7pointerEEERS8_m, symObjAddr: 0xAC94, symBinAddr: 0x10000D914, symSize: 0x40 }
  - { offsetInCU: 0x1DA6A, offset: 0x1DA6A, size: 0x8, addend: 0x0, symName: __ZNSt3__142__uninitialized_allocator_move_if_noexceptB7v160006INS_9allocatorINS_5tupleIJiiii9DirectionEEEEENS_16reverse_iteratorIPS4_EES8_S8_EET2_RT_T0_T1_S9_, symObjAddr: 0xAF20, symBinAddr: 0x10000DBA0, symSize: 0x12C }
  - { offsetInCU: 0x1DB0A, offset: 0x1DB0A, size: 0x8, addend: 0x0, symName: __ZNSt3__14swapB7v160006IPNS_5tupleIJiiii9DirectionEEEEENS_9enable_ifIXaasr21is_move_constructibleIT_EE5valuesr18is_move_assignableIS6_EE5valueEvE4typeERS6_S9_, symObjAddr: 0xB098, symBinAddr: 0x10000DD18, symSize: 0x3C }
  - { offsetInCU: 0x1DB5B, offset: 0x1DB5B, size: 0x8, addend: 0x0, symName: __ZNSt3__125__debug_db_invalidate_allB7v160006INS_6vectorINS_5tupleIJiiii9DirectionEEENS_9allocatorIS4_EEEEEEvPT_, symObjAddr: 0xB19C, symBinAddr: 0x10000DE1C, symSize: 0x10 }
  - { offsetInCU: 0x1DB8C, offset: 0x1DB8C, size: 0x8, addend: 0x0, symName: __ZNSt3__122__make_exception_guardB7v160006INS_29_AllocatorDestroyRangeReverseINS_9allocatorINS_5tupleIJiiii9DirectionEEEEENS_16reverse_iteratorIPS5_EEEEEENS_28__exception_guard_exceptionsIT_EESC_, symObjAddr: 0xB1F4, symBinAddr: 0x10000DE74, symSize: 0x4C }
  - { offsetInCU: 0x1DBC2, offset: 0x1DBC2, size: 0x8, addend: 0x0, symName: __ZNSt3__1neB7v160006IPNS_5tupleIJiiii9DirectionEEES4_EEbRKNS_16reverse_iteratorIT_EERKNS5_IT0_EE, symObjAddr: 0xB284, symBinAddr: 0x10000DF04, symSize: 0x48 }
  - { offsetInCU: 0x1DC0E, offset: 0x1DC0E, size: 0x8, addend: 0x0, symName: __ZNSt3__112__to_addressB7v160006INS_16reverse_iteratorIPNS_5tupleIJiiii9DirectionEEEEEvEENS_5decayIDTclsr19__to_address_helperIT_EE6__callclsr3stdE7declvalIRKS8_EEEEE4typeESA_, symObjAddr: 0xB2CC, symBinAddr: 0x10000DF4C, symSize: 0x24 }
  - { offsetInCU: 0x1DC6D, offset: 0x1DC6D, size: 0x8, addend: 0x0, symName: __ZNSt3__14prevB7v160006IPNS_5tupleIJiiii9DirectionEEEEENS_9enable_ifIXsr25__is_cpp17_input_iteratorIT_EE5valueES6_E4typeES6_NS_15iterator_traitsIS6_E15difference_typeE, symObjAddr: 0xB480, symBinAddr: 0x10000E100, symSize: 0x50 }
  - { offsetInCU: 0x1DCB0, offset: 0x1DCB0, size: 0x8, addend: 0x0, symName: __ZNSt3__19__advanceB7v160006IPNS_5tupleIJiiii9DirectionEEEEEvRT_NS_15iterator_traitsIS5_E15difference_typeENS_26random_access_iterator_tagE, symObjAddr: 0xB520, symBinAddr: 0x10000E1A0, symSize: 0x30 }
  - { offsetInCU: 0x1DCF9, offset: 0x1DCF9, size: 0x8, addend: 0x0, symName: __ZNSt3__119__allocator_destroyB7v160006INS_9allocatorINS_5tupleIJiiii9DirectionEEEEENS_16reverse_iteratorINS6_IPS4_EEEES9_EEvRT_T0_T1_, symObjAddr: 0xB654, symBinAddr: 0x10000E2D4, symSize: 0x70 }
  - { offsetInCU: 0x1DD5E, offset: 0x1DD5E, size: 0x8, addend: 0x0, symName: __ZNSt3__1neB7v160006INS_16reverse_iteratorIPNS_5tupleIJiiii9DirectionEEEEES6_EEbRKNS1_IT_EERKNS1_IT0_EE, symObjAddr: 0xB700, symBinAddr: 0x10000E380, symSize: 0x60 }
  - { offsetInCU: 0x1DDAA, offset: 0x1DDAA, size: 0x8, addend: 0x0, symName: __ZNSt3__112__to_addressB7v160006INS_16reverse_iteratorINS1_IPNS_5tupleIJiiii9DirectionEEEEEEEvEENS_5decayIDTclsr19__to_address_helperIT_EE6__callclsr3stdE7declvalIRKS9_EEEEE4typeESB_, symObjAddr: 0xB788, symBinAddr: 0x10000E408, symSize: 0x24 }
  - { offsetInCU: 0x1DDE0, offset: 0x1DDE0, size: 0x8, addend: 0x0, symName: __ZNSt3__110destroy_atB7v160006INS_5tupleIJiiii9DirectionEEELi0EEEvPT_, symObjAddr: 0xB800, symBinAddr: 0x10000E480, symSize: 0x24 }
  - { offsetInCU: 0x1DE17, offset: 0x1DE17, size: 0x8, addend: 0x0, symName: __ZNSt3__112__destroy_atB7v160006INS_5tupleIJiiii9DirectionEEELi0EEEvPT_, symObjAddr: 0xB824, symBinAddr: 0x10000E4A4, symSize: 0x10 }
  - { offsetInCU: 0x1DE77, offset: 0x1DE77, size: 0x8, addend: 0x0, symName: __ZNSt3__14prevB7v160006INS_16reverse_iteratorIPNS_5tupleIJiiii9DirectionEEEEEEENS_9enable_ifIXsr25__is_cpp17_input_iteratorIT_EE5valueES8_E4typeES8_NS_15iterator_traitsIS8_E15difference_typeE, symObjAddr: 0xB8B8, symBinAddr: 0x10000E538, symSize: 0x60 }
  - { offsetInCU: 0x1DEBA, offset: 0x1DEBA, size: 0x8, addend: 0x0, symName: __ZNSt3__19__advanceB7v160006INS_16reverse_iteratorIPNS_5tupleIJiiii9DirectionEEEEEEEvRT_NS_15iterator_traitsIS7_E15difference_typeENS_26random_access_iterator_tagE, symObjAddr: 0xB968, symBinAddr: 0x10000E5E8, symSize: 0x2C }
  - { offsetInCU: 0x1DF03, offset: 0x1DF03, size: 0x8, addend: 0x0, symName: __ZNSt3__111__push_heapB7v160006INS_17_ClassicAlgPolicyENS_11__wrap_iterIPNS_5tupleIJiiii9DirectionEEEEENS_4lessIS5_EEEEvT0_SA_RT1_, symObjAddr: 0xBC9C, symBinAddr: 0x10000E91C, symSize: 0x5C }
  - { offsetInCU: 0x1DF70, offset: 0x1DF70, size: 0x8, addend: 0x0, symName: __ZNSt3__1miB7v160006IPNS_5tupleIJiiii9DirectionEEES4_EEDTmicldtfp_4baseEcldtfp0_4baseEERKNS_11__wrap_iterIT_EERKNS6_IT0_EE, symObjAddr: 0xBCF8, symBinAddr: 0x10000E978, symSize: 0x48 }
  - { offsetInCU: 0x1DFBC, offset: 0x1DFBC, size: 0x8, addend: 0x0, symName: __ZNSt3__19__sift_upB7v160006INS_17_ClassicAlgPolicyERNS_4lessINS_5tupleIJiiii9DirectionEEEEENS_11__wrap_iterIPS5_EEEEvT1_SB_OT0_NS_15iterator_traitsISB_E15difference_typeE, symObjAddr: 0xBD40, symBinAddr: 0x10000E9C0, symSize: 0x164 }
  - { offsetInCU: 0x1E0DF, offset: 0x1E0DF, size: 0x8, addend: 0x0, symName: __ZNSt3__1ltB7v160006ENS_15strong_orderingENS_20_CmpUnspecifiedParamE, symObjAddr: 0xC014, symBinAddr: 0x10000EC94, symSize: 0x24 }
  - { offsetInCU: 0x1E118, offset: 0x1E118, size: 0x8, addend: 0x0, symName: __ZNSt3__1ssB7v160006IJiiii9DirectionEJiiiiS1_EEENS_26common_comparison_categoryIJDpDTclL_ZNS_17__synth_three_wayB7v160006EEclsr3stdE7declvalIRT_EEclsr3stdE7declvalIRT0_EEEEEE4typeERKNS_5tupleIJDpS3_EEERKNSB_IJDpS5_EEE, symObjAddr: 0xC038, symBinAddr: 0x10000ECB8, symSize: 0x34 }
  - { offsetInCU: 0x1E1AF, offset: 0x1E1AF, size: 0x8, addend: 0x0, symName: __ZNSt3__125__tuple_compare_three_wayB7v160006IJiiii9DirectionEJiiiiS1_EJLm0ELm1ELm2ELm3ELm4EEEEDaRKNS_5tupleIJDpT_EEERKNS3_IJDpT0_EEENS_16integer_sequenceImJXspT1_EEEE, symObjAddr: 0xC0A0, symBinAddr: 0x10000ED20, symSize: 0x210 }
  - { offsetInCU: 0x1E268, offset: 0x1E268, size: 0x8, addend: 0x0, symName: __ZNSt3__13getB7v160006ILm0EJiiii9DirectionEEERKNS_13tuple_elementIXT_ENS_5tupleIJDpT0_EEEE4typeERKS6_, symObjAddr: 0xC310, symBinAddr: 0x10000EF90, symSize: 0x24 }
  - { offsetInCU: 0x1E2BF, offset: 0x1E2BF, size: 0x8, addend: 0x0, symName: __ZNSt3__1eqB7v160006ENS_15strong_orderingENS_20_CmpUnspecifiedParamE, symObjAddr: 0xC334, symBinAddr: 0x10000EFB4, symSize: 0x24 }
  - { offsetInCU: 0x1E2F5, offset: 0x1E2F5, size: 0x8, addend: 0x0, symName: __ZNSt3__13getB7v160006ILm1EJiiii9DirectionEEERKNS_13tuple_elementIXT_ENS_5tupleIJDpT0_EEEE4typeERKS6_, symObjAddr: 0xC358, symBinAddr: 0x10000EFD8, symSize: 0x28 }
  - { offsetInCU: 0x1E34C, offset: 0x1E34C, size: 0x8, addend: 0x0, symName: __ZNSt3__13getB7v160006ILm2EJiiii9DirectionEEERKNS_13tuple_elementIXT_ENS_5tupleIJDpT0_EEEE4typeERKS6_, symObjAddr: 0xC380, symBinAddr: 0x10000F000, symSize: 0x28 }
  - { offsetInCU: 0x1E3A3, offset: 0x1E3A3, size: 0x8, addend: 0x0, symName: __ZNSt3__13getB7v160006ILm3EJiiii9DirectionEEERKNS_13tuple_elementIXT_ENS_5tupleIJDpT0_EEEE4typeERKS6_, symObjAddr: 0xC3A8, symBinAddr: 0x10000F028, symSize: 0x28 }
  - { offsetInCU: 0x1E3FA, offset: 0x1E3FA, size: 0x8, addend: 0x0, symName: __ZNSt3__13getB7v160006ILm4EJiiii9DirectionEEERKNS_13tuple_elementIXT_ENS_5tupleIJDpT0_EEEE4typeERKS6_, symObjAddr: 0xC430, symBinAddr: 0x10000F0B0, symSize: 0x28 }
  - { offsetInCU: 0x1E451, offset: 0x1E451, size: 0x8, addend: 0x0, symName: __ZNSt3__127__memberwise_forward_assignB7v160006INS_5tupleIJiiii9DirectionEEES3_JiiiiS2_EJLm0ELm1ELm2ELm3ELm4EEEEvRT_OT0_NS_13__tuple_typesIJDpT1_EEENS_15__tuple_indicesIJXspT2_EEEE, symObjAddr: 0xC4D8, symBinAddr: 0x10000F158, symSize: 0x110 }
  - { offsetInCU: 0x1E4F6, offset: 0x1E4F6, size: 0x8, addend: 0x0, symName: __ZNSt3__19__swallowB7v160006IJiiiiiEEEvDpOT_, symObjAddr: 0xC5E8, symBinAddr: 0x10000F268, symSize: 0x20 }
  - { offsetInCU: 0x1E567, offset: 0x1E567, size: 0x8, addend: 0x0, symName: __ZNSt3__13getB7v160006ILm0EJiiii9DirectionEEERNS_13tuple_elementIXT_ENS_5tupleIJDpT0_EEEE4typeERS6_, symObjAddr: 0xC608, symBinAddr: 0x10000F288, symSize: 0x24 }
  - { offsetInCU: 0x1E5BE, offset: 0x1E5BE, size: 0x8, addend: 0x0, symName: __ZNSt3__13getB7v160006ILm1EJiiii9DirectionEEERNS_13tuple_elementIXT_ENS_5tupleIJDpT0_EEEE4typeERS6_, symObjAddr: 0xC62C, symBinAddr: 0x10000F2AC, symSize: 0x28 }
  - { offsetInCU: 0x1E615, offset: 0x1E615, size: 0x8, addend: 0x0, symName: __ZNSt3__13getB7v160006ILm2EJiiii9DirectionEEERNS_13tuple_elementIXT_ENS_5tupleIJDpT0_EEEE4typeERS6_, symObjAddr: 0xC654, symBinAddr: 0x10000F2D4, symSize: 0x28 }
  - { offsetInCU: 0x1E66C, offset: 0x1E66C, size: 0x8, addend: 0x0, symName: __ZNSt3__13getB7v160006ILm3EJiiii9DirectionEEERNS_13tuple_elementIXT_ENS_5tupleIJDpT0_EEEE4typeERS6_, symObjAddr: 0xC67C, symBinAddr: 0x10000F2FC, symSize: 0x28 }
  - { offsetInCU: 0x1E6C3, offset: 0x1E6C3, size: 0x8, addend: 0x0, symName: __ZNSt3__13getB7v160006ILm4EJiiii9DirectionEEERNS_13tuple_elementIXT_ENS_5tupleIJDpT0_EEEE4typeERS6_, symObjAddr: 0xC6A4, symBinAddr: 0x10000F324, symSize: 0x28 }
  - { offsetInCU: 0x1E75E, offset: 0x1E75E, size: 0x8, addend: 0x0, symName: __ZNSt3__18pop_heapB7v160006INS_11__wrap_iterIPNS_5tupleIJiiii9DirectionEEEEENS_4lessIS4_EEEEvT_S9_T0_, symObjAddr: 0xCA38, symBinAddr: 0x10000F6B8, symSize: 0x58 }
  - { offsetInCU: 0x1E7C2, offset: 0x1E7C2, size: 0x8, addend: 0x0, symName: __ZNSt3__110__pop_heapB7v160006INS_17_ClassicAlgPolicyENS_4lessINS_5tupleIJiiii9DirectionEEEEENS_11__wrap_iterIPS5_EEEEvT1_SA_RT0_NS_15iterator_traitsISA_E15difference_typeE, symObjAddr: 0xCABC, symBinAddr: 0x10000F73C, symSize: 0x130 }
  - { offsetInCU: 0x1E873, offset: 0x1E873, size: 0x8, addend: 0x0, symName: __ZNSt3__1eqB7v160006IPNS_5tupleIJiiii9DirectionEEEEEbRKNS_11__wrap_iterIT_EES9_, symObjAddr: 0xCD34, symBinAddr: 0x10000F9B4, symSize: 0x48 }
  - { offsetInCU: 0x1E8B6, offset: 0x1E8B6, size: 0x8, addend: 0x0, symName: __ZNSt3__119__debug_db_insert_cB7v160006INS_6vectorINS_5tupleIJiii9DirectionEEENS_9allocatorIS4_EEEEEEvPT_, symObjAddr: 0xD130, symBinAddr: 0x10000FDB0, symSize: 0x10 }
  - { offsetInCU: 0x1E8E7, offset: 0x1E8E7, size: 0x8, addend: 0x0, symName: __ZNSt3__112__to_addressB7v160006INS_5tupleIJiii9DirectionEEEEEPT_S5_, symObjAddr: 0xD464, symBinAddr: 0x1000100E4, symSize: 0x14 }
  - { offsetInCU: 0x1E941, offset: 0x1E941, size: 0x8, addend: 0x0, symName: __ZNSt3__112construct_atB7v160006INS_5tupleIJiii9DirectionEEEJS3_EPS3_EEPT_S6_DpOT0_, symObjAddr: 0xD4E8, symBinAddr: 0x100010168, symSize: 0x2C }
  - { offsetInCU: 0x1E9B1, offset: 0x1E9B1, size: 0x8, addend: 0x0, symName: __ZNSt3__119__allocate_at_leastB7v160006INS_9allocatorINS_5tupleIJiii9DirectionEEEEEEENS_19__allocation_resultINS_16allocator_traitsIT_E7pointerEEERS8_m, symObjAddr: 0xDA84, symBinAddr: 0x100010704, symSize: 0x40 }
  - { offsetInCU: 0x1E9F4, offset: 0x1E9F4, size: 0x8, addend: 0x0, symName: __ZNSt3__142__uninitialized_allocator_move_if_noexceptB7v160006INS_9allocatorINS_5tupleIJiii9DirectionEEEEENS_16reverse_iteratorIPS4_EES8_S8_EET2_RT_T0_T1_S9_, symObjAddr: 0xDCF0, symBinAddr: 0x100010970, symSize: 0x12C }
  - { offsetInCU: 0x1EA94, offset: 0x1EA94, size: 0x8, addend: 0x0, symName: __ZNSt3__14swapB7v160006IPNS_5tupleIJiii9DirectionEEEEENS_9enable_ifIXaasr21is_move_constructibleIT_EE5valuesr18is_move_assignableIS6_EE5valueEvE4typeERS6_S9_, symObjAddr: 0xDE68, symBinAddr: 0x100010AE8, symSize: 0x3C }
  - { offsetInCU: 0x1EAE5, offset: 0x1EAE5, size: 0x8, addend: 0x0, symName: __ZNSt3__125__debug_db_invalidate_allB7v160006INS_6vectorINS_5tupleIJiii9DirectionEEENS_9allocatorIS4_EEEEEEvPT_, symObjAddr: 0xDF50, symBinAddr: 0x100010BD0, symSize: 0x10 }
  - { offsetInCU: 0x1EB16, offset: 0x1EB16, size: 0x8, addend: 0x0, symName: __ZNSt3__122__make_exception_guardB7v160006INS_29_AllocatorDestroyRangeReverseINS_9allocatorINS_5tupleIJiii9DirectionEEEEENS_16reverse_iteratorIPS5_EEEEEENS_28__exception_guard_exceptionsIT_EESC_, symObjAddr: 0xDFA8, symBinAddr: 0x100010C28, symSize: 0x4C }
  - { offsetInCU: 0x1EB4C, offset: 0x1EB4C, size: 0x8, addend: 0x0, symName: __ZNSt3__1neB7v160006IPNS_5tupleIJiii9DirectionEEES4_EEbRKNS_16reverse_iteratorIT_EERKNS5_IT0_EE, symObjAddr: 0xE038, symBinAddr: 0x100010CB8, symSize: 0x48 }
  - { offsetInCU: 0x1EB98, offset: 0x1EB98, size: 0x8, addend: 0x0, symName: __ZNSt3__112__to_addressB7v160006INS_16reverse_iteratorIPNS_5tupleIJiii9DirectionEEEEEvEENS_5decayIDTclsr19__to_address_helperIT_EE6__callclsr3stdE7declvalIRKS8_EEEEE4typeESA_, symObjAddr: 0xE080, symBinAddr: 0x100010D00, symSize: 0x24 }
  - { offsetInCU: 0x1EBF7, offset: 0x1EBF7, size: 0x8, addend: 0x0, symName: __ZNSt3__14prevB7v160006IPNS_5tupleIJiii9DirectionEEEEENS_9enable_ifIXsr25__is_cpp17_input_iteratorIT_EE5valueES6_E4typeES6_NS_15iterator_traitsIS6_E15difference_typeE, symObjAddr: 0xE234, symBinAddr: 0x100010EB4, symSize: 0x50 }
  - { offsetInCU: 0x1EC3A, offset: 0x1EC3A, size: 0x8, addend: 0x0, symName: __ZNSt3__19__advanceB7v160006IPNS_5tupleIJiii9DirectionEEEEEvRT_NS_15iterator_traitsIS5_E15difference_typeENS_26random_access_iterator_tagE, symObjAddr: 0xE2D4, symBinAddr: 0x100010F54, symSize: 0x28 }
  - { offsetInCU: 0x1EC83, offset: 0x1EC83, size: 0x8, addend: 0x0, symName: __ZNSt3__119__allocator_destroyB7v160006INS_9allocatorINS_5tupleIJiii9DirectionEEEEENS_16reverse_iteratorINS6_IPS4_EEEES9_EEvRT_T0_T1_, symObjAddr: 0xE400, symBinAddr: 0x100011080, symSize: 0x70 }
  - { offsetInCU: 0x1ECE8, offset: 0x1ECE8, size: 0x8, addend: 0x0, symName: __ZNSt3__1neB7v160006INS_16reverse_iteratorIPNS_5tupleIJiii9DirectionEEEEES6_EEbRKNS1_IT_EERKNS1_IT0_EE, symObjAddr: 0xE4AC, symBinAddr: 0x10001112C, symSize: 0x60 }
  - { offsetInCU: 0x1ED34, offset: 0x1ED34, size: 0x8, addend: 0x0, symName: __ZNSt3__112__to_addressB7v160006INS_16reverse_iteratorINS1_IPNS_5tupleIJiii9DirectionEEEEEEEvEENS_5decayIDTclsr19__to_address_helperIT_EE6__callclsr3stdE7declvalIRKS9_EEEEE4typeESB_, symObjAddr: 0xE534, symBinAddr: 0x1000111B4, symSize: 0x24 }
  - { offsetInCU: 0x1ED6A, offset: 0x1ED6A, size: 0x8, addend: 0x0, symName: __ZNSt3__110destroy_atB7v160006INS_5tupleIJiii9DirectionEEELi0EEEvPT_, symObjAddr: 0xE5AC, symBinAddr: 0x10001122C, symSize: 0x24 }
  - { offsetInCU: 0x1EDA1, offset: 0x1EDA1, size: 0x8, addend: 0x0, symName: __ZNSt3__112__destroy_atB7v160006INS_5tupleIJiii9DirectionEEELi0EEEvPT_, symObjAddr: 0xE5D0, symBinAddr: 0x100011250, symSize: 0x10 }
  - { offsetInCU: 0x1EE01, offset: 0x1EE01, size: 0x8, addend: 0x0, symName: __ZNSt3__14prevB7v160006INS_16reverse_iteratorIPNS_5tupleIJiii9DirectionEEEEEEENS_9enable_ifIXsr25__is_cpp17_input_iteratorIT_EE5valueES8_E4typeES8_NS_15iterator_traitsIS8_E15difference_typeE, symObjAddr: 0xE664, symBinAddr: 0x1000112E4, symSize: 0x60 }
  - { offsetInCU: 0x1EE44, offset: 0x1EE44, size: 0x8, addend: 0x0, symName: __ZNSt3__19__advanceB7v160006INS_16reverse_iteratorIPNS_5tupleIJiii9DirectionEEEEEEEvRT_NS_15iterator_traitsIS7_E15difference_typeENS_26random_access_iterator_tagE, symObjAddr: 0xE714, symBinAddr: 0x100011394, symSize: 0x2C }
  - { offsetInCU: 0x1EEB1, offset: 0x1EEB1, size: 0x8, addend: 0x0, symName: __ZNSt3__1eqB7v160006IPNS_5tupleIJiii9DirectionEEEEEbRKNS_11__wrap_iterIT_EES9_, symObjAddr: 0xED30, symBinAddr: 0x1000119B0, symSize: 0x48 }
  - { offsetInCU: 0x1EEF4, offset: 0x1EEF4, size: 0x8, addend: 0x0, symName: __ZNSt3__118__debug_db_erase_cB7v160006INS_6vectorINS_5tupleIJiii9DirectionEEENS_9allocatorIS4_EEEEEEvPT_, symObjAddr: 0xF0E8, symBinAddr: 0x100011D68, symSize: 0x10 }
  - { offsetInCU: 0x1EF25, offset: 0x1EF25, size: 0x8, addend: 0x0, symName: __ZNSt3__13minB7v160006IiNS_6__lessIiiEEEERKT_S5_S5_T0_, symObjAddr: 0xF1AC, symBinAddr: 0x100011E2C, symSize: 0x54 }
  - { offsetInCU: 0x1EFBA, offset: 0x1EFBA, size: 0x8, addend: 0x0, symName: __ZNSt3__118__debug_db_erase_cB7v160006INS_6vectorINS_5tupleIJiiii9DirectionEEENS_9allocatorIS4_EEEEEEvPT_, symObjAddr: 0xF404, symBinAddr: 0x100012084, symSize: 0x10 }
  - { offsetInCU: 0x1EFEB, offset: 0x1EFEB, size: 0x8, addend: 0x0, symName: __ZNSt3__116__pad_and_outputB7v160006IcNS_11char_traitsIcEEEENS_19ostreambuf_iteratorIT_T0_EES6_PKS4_S8_S8_RNS_8ios_baseES4_, symObjAddr: 0xF67C, symBinAddr: 0x1000122FC, symSize: 0x240 }
  - { offsetInCU: 0x1F0BA, offset: 0x1F0BA, size: 0x8, addend: 0x0, symName: __ZNSt3__112__to_addressB7v160006IcEEPT_S2_, symObjAddr: 0xFAC8, symBinAddr: 0x100012748, symSize: 0x14 }
  - { offsetInCU: 0x1FB48, offset: 0x1FB48, size: 0x8, addend: 0x0, symName: __ZSt28__throw_bad_array_new_lengthB7v160006v, symObjAddr: 0x31E4, symBinAddr: 0x100005E64, symSize: 0x34 }
  - { offsetInCU: 0x20F8F, offset: 0x20F8F, size: 0x8, addend: 0x0, symName: __ZNSt3__16vectorINS_12basic_stringIcNS_11char_traitsIcEENS_9allocatorIcEEEENS4_IS6_EEE26__swap_out_circular_bufferERNS_14__split_bufferIS6_RS7_EE, symObjAddr: 0x2A58, symBinAddr: 0x1000056D8, symSize: 0x118 }
  - { offsetInCU: 0x21808, offset: 0x21808, size: 0x8, addend: 0x0, symName: __ZNSt3__16vectorINS_5tupleIJiiii9DirectionEEENS_9allocatorIS3_EEE26__swap_out_circular_bufferERNS_14__split_bufferIS3_RS5_EE, symObjAddr: 0xA890, symBinAddr: 0x10000D510, symSize: 0x118 }
  - { offsetInCU: 0x218A7, offset: 0x218A7, size: 0x8, addend: 0x0, symName: __ZNSt3__16vectorINS_5tupleIJiii9DirectionEEENS_9allocatorIS3_EEE26__swap_out_circular_bufferERNS_14__split_bufferIS3_RS5_EE, symObjAddr: 0xD68C, symBinAddr: 0x10001030C, symSize: 0x118 }
  - { offsetInCU: 0x23926, offset: 0x23926, size: 0x8, addend: 0x0, symName: _main, symObjAddr: 0x0, symBinAddr: 0x100002C80, symSize: 0x360 }
  - { offsetInCU: 0x23974, offset: 0x23974, size: 0x8, addend: 0x0, symName: __ZNSt3__112basic_stringIcNS_11char_traitsIcEENS_9allocatorIcEEEC1B7v160006IDnEEPKc, symObjAddr: 0x360, symBinAddr: 0x100002FE0, symSize: 0x34 }
  - { offsetInCU: 0x239B2, offset: 0x239B2, size: 0x8, addend: 0x0, symName: __ZN8SolutionC1ENSt3__112basic_stringIcNS0_11char_traitsIcEENS0_9allocatorIcEEEE, symObjAddr: 0x394, symBinAddr: 0x100003014, symSize: 0x34 }
  - { offsetInCU: 0x239EB, offset: 0x239EB, size: 0x8, addend: 0x0, symName: __ZN8Solution5part1Ev, symObjAddr: 0x410, symBinAddr: 0x100003090, symSize: 0x974 }
  - { offsetInCU: 0x23C35, offset: 0x23C35, size: 0x8, addend: 0x0, symName: __ZNSt3__113basic_ostreamIcNS_11char_traitsIcEEElsB7v160006EPFRS3_S4_E, symObjAddr: 0xD84, symBinAddr: 0x100003A04, symSize: 0x2C }
  - { offsetInCU: 0x23C69, offset: 0x23C69, size: 0x8, addend: 0x0, symName: __ZN8Solution5part2Ev, symObjAddr: 0xE54, symBinAddr: 0x100003AD4, symSize: 0x3C }
  - { offsetInCU: 0x23C8F, offset: 0x23C8F, size: 0x8, addend: 0x0, symName: __ZN8SolutionD1Ev, symObjAddr: 0xE90, symBinAddr: 0x100003B10, symSize: 0x2C }
  - { offsetInCU: 0x23CBB, offset: 0x23CBB, size: 0x8, addend: 0x0, symName: __ZNSt3__112basic_stringIcNS_11char_traitsIcEENS_9allocatorIcEEEC2B7v160006IDnEEPKc, symObjAddr: 0xEBC, symBinAddr: 0x100003B3C, symSize: 0x60 }
  - { offsetInCU: 0x23CFF, offset: 0x23CFF, size: 0x8, addend: 0x0, symName: __ZNSt3__117__compressed_pairINS_12basic_stringIcNS_11char_traitsIcEENS_9allocatorIcEEE5__repES5_EC1B7v160006INS_18__default_init_tagESA_EEOT_OT0_, symObjAddr: 0xF1C, symBinAddr: 0x100003B9C, symSize: 0x3C }
  - { offsetInCU: 0x23D57, offset: 0x23D57, size: 0x8, addend: 0x0, symName: __ZNSt3__111char_traitsIcE6lengthEPKc, symObjAddr: 0xF58, symBinAddr: 0x100003BD8, symSize: 0x34 }
  - { offsetInCU: 0x23D7A, offset: 0x23D7A, size: 0x8, addend: 0x0, symName: __ZNSt3__117__compressed_pairINS_12basic_stringIcNS_11char_traitsIcEENS_9allocatorIcEEE5__repES5_EC2B7v160006INS_18__default_init_tagESA_EEOT_OT0_, symObjAddr: 0xF9C, symBinAddr: 0x100003C1C, symSize: 0x3C }
  - { offsetInCU: 0x23DD2, offset: 0x23DD2, size: 0x8, addend: 0x0, symName: __ZNSt3__122__compressed_pair_elemINS_12basic_stringIcNS_11char_traitsIcEENS_9allocatorIcEEE5__repELi0ELb0EEC2B7v160006ENS_18__default_init_tagE, symObjAddr: 0xFD8, symBinAddr: 0x100003C58, symSize: 0x14 }
  - { offsetInCU: 0x23E06, offset: 0x23E06, size: 0x8, addend: 0x0, symName: __ZNSt3__122__compressed_pair_elemINS_9allocatorIcEELi1ELb1EEC2B7v160006ENS_18__default_init_tagE, symObjAddr: 0xFEC, symBinAddr: 0x100003C6C, symSize: 0x2C }
  - { offsetInCU: 0x23E3A, offset: 0x23E3A, size: 0x8, addend: 0x0, symName: __ZNSt3__19allocatorIcEC2B7v160006Ev, symObjAddr: 0x1018, symBinAddr: 0x100003C98, symSize: 0x2C }
  - { offsetInCU: 0x23E64, offset: 0x23E64, size: 0x8, addend: 0x0, symName: __ZNSt3__116__non_trivial_ifILb1ENS_9allocatorIcEEEC2B7v160006Ev, symObjAddr: 0x1044, symBinAddr: 0x100003CC4, symSize: 0x14 }
  - { offsetInCU: 0x23E8E, offset: 0x23E8E, size: 0x8, addend: 0x0, symName: __ZN8SolutionC2ENSt3__112basic_stringIcNS0_11char_traitsIcEENS0_9allocatorIcEEEE, symObjAddr: 0x1088, symBinAddr: 0x100003D08, symSize: 0x9C }
  - { offsetInCU: 0x23EC7, offset: 0x23EC7, size: 0x8, addend: 0x0, symName: __ZNSt3__113basic_fstreamIcNS_11char_traitsIcEEEC1Ev, symObjAddr: 0x1124, symBinAddr: 0x100003DA4, symSize: 0x100 }
  - { offsetInCU: 0x23EF3, offset: 0x23EF3, size: 0x8, addend: 0x0, symName: __ZNSt3__16vectorINS_12basic_stringIcNS_11char_traitsIcEENS_9allocatorIcEEEENS4_IS6_EEEC1B7v160006Ev, symObjAddr: 0x1224, symBinAddr: 0x100003EA4, symSize: 0x2C }
  - { offsetInCU: 0x23F1D, offset: 0x23F1D, size: 0x8, addend: 0x0, symName: __ZNSt3__113basic_fstreamIcNS_11char_traitsIcEEE4openERKNS_12basic_stringIcS2_NS_9allocatorIcEEEEj, symObjAddr: 0x1250, symBinAddr: 0x100003ED0, symSize: 0x84 }
  - { offsetInCU: 0x23F63, offset: 0x23F63, size: 0x8, addend: 0x0, symName: __ZN8Solution5parseEv, symObjAddr: 0x12D4, symBinAddr: 0x100003F54, symSize: 0xAC }
  - { offsetInCU: 0x23F97, offset: 0x23F97, size: 0x8, addend: 0x0, symName: __ZNSt3__113basic_fstreamIcNS_11char_traitsIcEEE5closeEv, symObjAddr: 0x1380, symBinAddr: 0x100004000, symSize: 0x58 }
  - { offsetInCU: 0x23FBF, offset: 0x23FBF, size: 0x8, addend: 0x0, symName: __ZNSt3__16vectorINS_12basic_stringIcNS_11char_traitsIcEENS_9allocatorIcEEEENS4_IS6_EEED1B7v160006Ev, symObjAddr: 0x13D8, symBinAddr: 0x100004058, symSize: 0x2C }
  - { offsetInCU: 0x23FEF, offset: 0x23FEF, size: 0x8, addend: 0x0, symName: __ZNSt3__113basic_fstreamIcNS_11char_traitsIcEEED1Ev, symObjAddr: 0x1404, symBinAddr: 0x100004084, symSize: 0x40 }
  - { offsetInCU: 0x2401B, offset: 0x2401B, size: 0x8, addend: 0x0, symName: __ZNSt3__19basic_iosIcNS_11char_traitsIcEEEC2B7v160006Ev, symObjAddr: 0x1444, symBinAddr: 0x1000040C4, symSize: 0x44 }
  - { offsetInCU: 0x24045, offset: 0x24045, size: 0x8, addend: 0x0, symName: __ZNSt3__114basic_iostreamIcNS_11char_traitsIcEEEC2B7v160006EPNS_15basic_streambufIcS2_EE, symObjAddr: 0x1488, symBinAddr: 0x100004108, symSize: 0xAC }
  - { offsetInCU: 0x2408B, offset: 0x2408B, size: 0x8, addend: 0x0, symName: __ZNSt3__113basic_fstreamIcNS_11char_traitsIcEEED0Ev, symObjAddr: 0x1534, symBinAddr: 0x1000041B4, symSize: 0x30 }
  - { offsetInCU: 0x240B7, offset: 0x240B7, size: 0x8, addend: 0x0, symName: __ZThn16_NSt3__113basic_fstreamIcNS_11char_traitsIcEEED1Ev, symObjAddr: 0x1564, symBinAddr: 0x1000041E4, symSize: 0x1C }
  - { offsetInCU: 0x240CD, offset: 0x240CD, size: 0x8, addend: 0x0, symName: __ZThn16_NSt3__113basic_fstreamIcNS_11char_traitsIcEEED0Ev, symObjAddr: 0x1580, symBinAddr: 0x100004200, symSize: 0x18 }
  - { offsetInCU: 0x240E3, offset: 0x240E3, size: 0x8, addend: 0x0, symName: __ZTv0_n24_NSt3__113basic_fstreamIcNS_11char_traitsIcEEED1Ev, symObjAddr: 0x1598, symBinAddr: 0x100004218, symSize: 0x28 }
  - { offsetInCU: 0x240F9, offset: 0x240F9, size: 0x8, addend: 0x0, symName: __ZTv0_n24_NSt3__113basic_fstreamIcNS_11char_traitsIcEEED0Ev, symObjAddr: 0x15C0, symBinAddr: 0x100004240, symSize: 0x20 }
  - { offsetInCU: 0x2410F, offset: 0x2410F, size: 0x8, addend: 0x0, symName: __ZNSt3__18ios_baseC2B7v160006Ev, symObjAddr: 0x15E0, symBinAddr: 0x100004260, symSize: 0x24 }
  - { offsetInCU: 0x24139, offset: 0x24139, size: 0x8, addend: 0x0, symName: __ZNSt3__113basic_istreamIcNS_11char_traitsIcEEEC2B7v160006EPNS_15basic_streambufIcS2_EE, symObjAddr: 0x1604, symBinAddr: 0x100004284, symSize: 0x64 }
  - { offsetInCU: 0x2417E, offset: 0x2417E, size: 0x8, addend: 0x0, symName: __ZNSt3__113basic_ostreamIcNS_11char_traitsIcEEEC2B7v160006Ev, symObjAddr: 0x1668, symBinAddr: 0x1000042E8, symSize: 0x34 }
  - { offsetInCU: 0x241B5, offset: 0x241B5, size: 0x8, addend: 0x0, symName: __ZNSt3__19basic_iosIcNS_11char_traitsIcEEE4initB7v160006EPNS_15basic_streambufIcS2_EE, symObjAddr: 0x169C, symBinAddr: 0x10000431C, symSize: 0x44 }
  - { offsetInCU: 0x241EC, offset: 0x241EC, size: 0x8, addend: 0x0, symName: __ZNSt3__111char_traitsIcE3eofEv, symObjAddr: 0x16E0, symBinAddr: 0x100004360, symSize: 0x8 }
  - { offsetInCU: 0x24200, offset: 0x24200, size: 0x8, addend: 0x0, symName: __ZNSt3__16vectorINS_12basic_stringIcNS_11char_traitsIcEENS_9allocatorIcEEEENS4_IS6_EEEC2B7v160006Ev, symObjAddr: 0x16E8, symBinAddr: 0x100004368, symSize: 0x58 }
  - { offsetInCU: 0x24230, offset: 0x24230, size: 0x8, addend: 0x0, symName: __ZNSt3__117__compressed_pairIPNS_12basic_stringIcNS_11char_traitsIcEENS_9allocatorIcEEEENS4_IS6_EEEC1B7v160006IDnNS_18__default_init_tagEEEOT_OT0_, symObjAddr: 0x1740, symBinAddr: 0x1000043C0, symSize: 0x3C }
  - { offsetInCU: 0x24288, offset: 0x24288, size: 0x8, addend: 0x0, symName: __ZNSt3__117__compressed_pairIPNS_12basic_stringIcNS_11char_traitsIcEENS_9allocatorIcEEEENS4_IS6_EEEC2B7v160006IDnNS_18__default_init_tagEEEOT_OT0_, symObjAddr: 0x178C, symBinAddr: 0x10000440C, symSize: 0x40 }
  - { offsetInCU: 0x242E0, offset: 0x242E0, size: 0x8, addend: 0x0, symName: __ZNSt3__122__compressed_pair_elemIPNS_12basic_stringIcNS_11char_traitsIcEENS_9allocatorIcEEEELi0ELb0EEC2B7v160006IDnvEEOT_, symObjAddr: 0x17CC, symBinAddr: 0x10000444C, symSize: 0x1C }
  - { offsetInCU: 0x24322, offset: 0x24322, size: 0x8, addend: 0x0, symName: __ZNSt3__122__compressed_pair_elemINS_9allocatorINS_12basic_stringIcNS_11char_traitsIcEENS1_IcEEEEEELi1ELb1EEC2B7v160006ENS_18__default_init_tagE, symObjAddr: 0x17E8, symBinAddr: 0x100004468, symSize: 0x2C }
  - { offsetInCU: 0x24356, offset: 0x24356, size: 0x8, addend: 0x0, symName: __ZNSt3__19allocatorINS_12basic_stringIcNS_11char_traitsIcEENS0_IcEEEEEC2B7v160006Ev, symObjAddr: 0x1814, symBinAddr: 0x100004494, symSize: 0x2C }
  - { offsetInCU: 0x24380, offset: 0x24380, size: 0x8, addend: 0x0, symName: __ZNSt3__116__non_trivial_ifILb1ENS_9allocatorINS_12basic_stringIcNS_11char_traitsIcEENS1_IcEEEEEEEC2B7v160006Ev, symObjAddr: 0x1840, symBinAddr: 0x1000044C0, symSize: 0x14 }
  - { offsetInCU: 0x243AA, offset: 0x243AA, size: 0x8, addend: 0x0, symName: __ZNSt3__113basic_filebufIcNS_11char_traitsIcEEE4openERKNS_12basic_stringIcS2_NS_9allocatorIcEEEEj, symObjAddr: 0x1854, symBinAddr: 0x1000044D4, symSize: 0x44 }
  - { offsetInCU: 0x243EE, offset: 0x243EE, size: 0x8, addend: 0x0, symName: __ZNSt3__19basic_iosIcNS_11char_traitsIcEEE5clearB7v160006Ej, symObjAddr: 0x1898, symBinAddr: 0x100004518, symSize: 0x2C }
  - { offsetInCU: 0x24423, offset: 0x24423, size: 0x8, addend: 0x0, symName: __ZNSt3__19basic_iosIcNS_11char_traitsIcEEE8setstateB7v160006Ej, symObjAddr: 0x18C4, symBinAddr: 0x100004544, symSize: 0x2C }
  - { offsetInCU: 0x24458, offset: 0x24458, size: 0x8, addend: 0x0, symName: __ZNKSt3__112basic_stringIcNS_11char_traitsIcEENS_9allocatorIcEEE5c_strB7v160006Ev, symObjAddr: 0x18F0, symBinAddr: 0x100004570, symSize: 0x24 }
  - { offsetInCU: 0x2447E, offset: 0x2447E, size: 0x8, addend: 0x0, symName: __ZNKSt3__112basic_stringIcNS_11char_traitsIcEENS_9allocatorIcEEE4dataB7v160006Ev, symObjAddr: 0x1914, symBinAddr: 0x100004594, symSize: 0x28 }
  - { offsetInCU: 0x244A4, offset: 0x244A4, size: 0x8, addend: 0x0, symName: __ZNKSt3__112basic_stringIcNS_11char_traitsIcEENS_9allocatorIcEEE13__get_pointerB7v160006Ev, symObjAddr: 0x1950, symBinAddr: 0x1000045D0, symSize: 0x54 }
  - { offsetInCU: 0x244CA, offset: 0x244CA, size: 0x8, addend: 0x0, symName: __ZNKSt3__112basic_stringIcNS_11char_traitsIcEENS_9allocatorIcEEE9__is_longB7v160006Ev, symObjAddr: 0x19A4, symBinAddr: 0x100004624, symSize: 0x38 }
  - { offsetInCU: 0x244F0, offset: 0x244F0, size: 0x8, addend: 0x0, symName: __ZNKSt3__112basic_stringIcNS_11char_traitsIcEENS_9allocatorIcEEE18__get_long_pointerB7v160006Ev, symObjAddr: 0x19DC, symBinAddr: 0x10000465C, symSize: 0x28 }
  - { offsetInCU: 0x24516, offset: 0x24516, size: 0x8, addend: 0x0, symName: __ZNKSt3__112basic_stringIcNS_11char_traitsIcEENS_9allocatorIcEEE19__get_short_pointerB7v160006Ev, symObjAddr: 0x1A04, symBinAddr: 0x100004684, symSize: 0x28 }
  - { offsetInCU: 0x2453C, offset: 0x2453C, size: 0x8, addend: 0x0, symName: __ZNKSt3__117__compressed_pairINS_12basic_stringIcNS_11char_traitsIcEENS_9allocatorIcEEE5__repES5_E5firstB7v160006Ev, symObjAddr: 0x1A2C, symBinAddr: 0x1000046AC, symSize: 0x24 }
  - { offsetInCU: 0x24562, offset: 0x24562, size: 0x8, addend: 0x0, symName: __ZNKSt3__122__compressed_pair_elemINS_12basic_stringIcNS_11char_traitsIcEENS_9allocatorIcEEE5__repELi0ELb0EE5__getB7v160006Ev, symObjAddr: 0x1A50, symBinAddr: 0x1000046D0, symSize: 0x14 }
  - { offsetInCU: 0x24588, offset: 0x24588, size: 0x8, addend: 0x0, symName: __ZNSt3__114pointer_traitsIPKcE10pointer_toB7v160006ERS1_, symObjAddr: 0x1A64, symBinAddr: 0x1000046E4, symSize: 0x14 }
  - { offsetInCU: 0x245AB, offset: 0x245AB, size: 0x8, addend: 0x0, symName: __ZNSt3__18ios_base8setstateB7v160006Ej, symObjAddr: 0x1A78, symBinAddr: 0x1000046F8, symSize: 0x34 }
  - { offsetInCU: 0x245E2, offset: 0x245E2, size: 0x8, addend: 0x0, symName: __ZNSt3__112basic_stringIcNS_11char_traitsIcEENS_9allocatorIcEEEC1B7v160006Ev, symObjAddr: 0x1AAC, symBinAddr: 0x10000472C, symSize: 0x2C }
  - { offsetInCU: 0x2460C, offset: 0x2460C, size: 0x8, addend: 0x0, symName: __ZNKSt3__19basic_iosIcNS_11char_traitsIcEEEcvbB7v160006Ev, symObjAddr: 0x1B34, symBinAddr: 0x1000047B4, symSize: 0x2C }
  - { offsetInCU: 0x24632, offset: 0x24632, size: 0x8, addend: 0x0, symName: __ZNSt3__16vectorINS_12basic_stringIcNS_11char_traitsIcEENS_9allocatorIcEEEENS4_IS6_EEE9push_backB7v160006ERKS6_, symObjAddr: 0x1B60, symBinAddr: 0x1000047E0, symSize: 0x6C }
  - { offsetInCU: 0x24669, offset: 0x24669, size: 0x8, addend: 0x0, symName: __ZNSt3__112basic_stringIcNS_11char_traitsIcEENS_9allocatorIcEEEC2B7v160006Ev, symObjAddr: 0x1BCC, symBinAddr: 0x10000484C, symSize: 0x50 }
  - { offsetInCU: 0x24693, offset: 0x24693, size: 0x8, addend: 0x0, symName: __ZNSt3__112basic_stringIcNS_11char_traitsIcEENS_9allocatorIcEEE14__default_initB7v160006Ev, symObjAddr: 0x1C1C, symBinAddr: 0x10000489C, symSize: 0x40 }
  - { offsetInCU: 0x246B9, offset: 0x246B9, size: 0x8, addend: 0x0, symName: __ZNSt3__117__compressed_pairINS_12basic_stringIcNS_11char_traitsIcEENS_9allocatorIcEEE5__repES5_E5firstB7v160006Ev, symObjAddr: 0x1C5C, symBinAddr: 0x1000048DC, symSize: 0x24 }
  - { offsetInCU: 0x246DF, offset: 0x246DF, size: 0x8, addend: 0x0, symName: __ZNSt3__122__compressed_pair_elemINS_12basic_stringIcNS_11char_traitsIcEENS_9allocatorIcEEE5__repELi0ELb0EE5__getB7v160006Ev, symObjAddr: 0x1C80, symBinAddr: 0x100004900, symSize: 0x14 }
  - { offsetInCU: 0x24705, offset: 0x24705, size: 0x8, addend: 0x0, symName: __ZNKSt3__19basic_iosIcNS_11char_traitsIcEEE5widenB7v160006Ec, symObjAddr: 0x1ECC, symBinAddr: 0x100004B4C, symSize: 0x84 }
  - { offsetInCU: 0x2475F, offset: 0x2475F, size: 0x8, addend: 0x0, symName: __ZNKSt3__113basic_istreamIcNS_11char_traitsIcEEE6sentrycvbB7v160006Ev, symObjAddr: 0x1F50, symBinAddr: 0x100004BD0, symSize: 0x1C }
  - { offsetInCU: 0x24785, offset: 0x24785, size: 0x8, addend: 0x0, symName: __ZNSt3__112basic_stringIcNS_11char_traitsIcEENS_9allocatorIcEEE5clearB7v160006Ev, symObjAddr: 0x1F6C, symBinAddr: 0x100004BEC, symSize: 0x88 }
  - { offsetInCU: 0x247AD, offset: 0x247AD, size: 0x8, addend: 0x0, symName: __ZNKSt3__19basic_iosIcNS_11char_traitsIcEEE5rdbufB7v160006Ev, symObjAddr: 0x1FF4, symBinAddr: 0x100004C74, symSize: 0x24 }
  - { offsetInCU: 0x247D5, offset: 0x247D5, size: 0x8, addend: 0x0, symName: __ZNSt3__115basic_streambufIcNS_11char_traitsIcEEE6sbumpcB7v160006Ev, symObjAddr: 0x2018, symBinAddr: 0x100004C98, symSize: 0x78 }
  - { offsetInCU: 0x247FB, offset: 0x247FB, size: 0x8, addend: 0x0, symName: __ZNSt3__111char_traitsIcE11eq_int_typeEii, symObjAddr: 0x2090, symBinAddr: 0x100004D10, symSize: 0x28 }
  - { offsetInCU: 0x2482C, offset: 0x2482C, size: 0x8, addend: 0x0, symName: __ZNSt3__111char_traitsIcE12to_char_typeEi, symObjAddr: 0x20B8, symBinAddr: 0x100004D38, symSize: 0x18 }
  - { offsetInCU: 0x2484F, offset: 0x2484F, size: 0x8, addend: 0x0, symName: __ZNSt3__111char_traitsIcE2eqEcc, symObjAddr: 0x20D0, symBinAddr: 0x100004D50, symSize: 0x28 }
  - { offsetInCU: 0x24880, offset: 0x24880, size: 0x8, addend: 0x0, symName: __ZNKSt3__112basic_stringIcNS_11char_traitsIcEENS_9allocatorIcEEE4sizeB7v160006Ev, symObjAddr: 0x20F8, symBinAddr: 0x100004D78, symSize: 0x54 }
  - { offsetInCU: 0x248A6, offset: 0x248A6, size: 0x8, addend: 0x0, symName: __ZNKSt3__112basic_stringIcNS_11char_traitsIcEENS_9allocatorIcEEE8max_sizeB7v160006Ev, symObjAddr: 0x214C, symBinAddr: 0x100004DCC, symSize: 0xAC }
  - { offsetInCU: 0x248F8, offset: 0x248F8, size: 0x8, addend: 0x0, symName: __ZNSt3__18ios_base18__setstate_nothrowB7v160006Ej, symObjAddr: 0x21F8, symBinAddr: 0x100004E78, symSize: 0x64 }
  - { offsetInCU: 0x2492D, offset: 0x2492D, size: 0x8, addend: 0x0, symName: __ZNKSt3__19basic_iosIcNS_11char_traitsIcEEE10exceptionsB7v160006Ev, symObjAddr: 0x225C, symBinAddr: 0x100004EDC, symSize: 0x24 }
  - { offsetInCU: 0x24953, offset: 0x24953, size: 0x8, addend: 0x0, symName: __ZNSt3__111char_traitsIcE6assignERcRKc, symObjAddr: 0x2290, symBinAddr: 0x100004F10, symSize: 0x24 }
  - { offsetInCU: 0x24984, offset: 0x24984, size: 0x8, addend: 0x0, symName: __ZNSt3__112basic_stringIcNS_11char_traitsIcEENS_9allocatorIcEEE18__get_long_pointerB7v160006Ev, symObjAddr: 0x22B4, symBinAddr: 0x100004F34, symSize: 0x28 }
  - { offsetInCU: 0x249AA, offset: 0x249AA, size: 0x8, addend: 0x0, symName: __ZNSt3__112basic_stringIcNS_11char_traitsIcEENS_9allocatorIcEEE15__set_long_sizeB7v160006Em, symObjAddr: 0x22DC, symBinAddr: 0x100004F5C, symSize: 0x38 }
  - { offsetInCU: 0x249DF, offset: 0x249DF, size: 0x8, addend: 0x0, symName: __ZNSt3__112basic_stringIcNS_11char_traitsIcEENS_9allocatorIcEEE19__get_short_pointerB7v160006Ev, symObjAddr: 0x2314, symBinAddr: 0x100004F94, symSize: 0x28 }
  - { offsetInCU: 0x24A05, offset: 0x24A05, size: 0x8, addend: 0x0, symName: __ZNSt3__112basic_stringIcNS_11char_traitsIcEENS_9allocatorIcEEE16__set_short_sizeB7v160006Em, symObjAddr: 0x233C, symBinAddr: 0x100004FBC, symSize: 0x78 }
  - { offsetInCU: 0x24A3A, offset: 0x24A3A, size: 0x8, addend: 0x0, symName: __ZNSt3__114pointer_traitsIPcE10pointer_toB7v160006ERc, symObjAddr: 0x23B4, symBinAddr: 0x100005034, symSize: 0x14 }
  - { offsetInCU: 0x24A5D, offset: 0x24A5D, size: 0x8, addend: 0x0, symName: __ZNKSt3__18ios_base5rdbufB7v160006Ev, symObjAddr: 0x23C8, symBinAddr: 0x100005048, symSize: 0x18 }
  - { offsetInCU: 0x24A83, offset: 0x24A83, size: 0x8, addend: 0x0, symName: __ZNSt3__111char_traitsIcE11to_int_typeEc, symObjAddr: 0x23E0, symBinAddr: 0x100005060, symSize: 0x14 }
  - { offsetInCU: 0x24AA6, offset: 0x24AA6, size: 0x8, addend: 0x0, symName: __ZNKSt3__112basic_stringIcNS_11char_traitsIcEENS_9allocatorIcEEE15__get_long_sizeB7v160006Ev, symObjAddr: 0x23F4, symBinAddr: 0x100005074, symSize: 0x28 }
  - { offsetInCU: 0x24ACC, offset: 0x24ACC, size: 0x8, addend: 0x0, symName: __ZNKSt3__112basic_stringIcNS_11char_traitsIcEENS_9allocatorIcEEE16__get_short_sizeB7v160006Ev, symObjAddr: 0x241C, symBinAddr: 0x10000509C, symSize: 0x34 }
  - { offsetInCU: 0x24AFD, offset: 0x24AFD, size: 0x8, addend: 0x0, symName: __ZNSt3__116allocator_traitsINS_9allocatorIcEEE8max_sizeB7v160006IS2_vvEEmRKS2_, symObjAddr: 0x2450, symBinAddr: 0x1000050D0, symSize: 0x28 }
  - { offsetInCU: 0x24B28, offset: 0x24B28, size: 0x8, addend: 0x0, symName: __ZNKSt3__112basic_stringIcNS_11char_traitsIcEENS_9allocatorIcEEE7__allocB7v160006Ev, symObjAddr: 0x2478, symBinAddr: 0x1000050F8, symSize: 0x24 }
  - { offsetInCU: 0x24B4E, offset: 0x24B4E, size: 0x8, addend: 0x0, symName: __ZNSt3__114numeric_limitsImE3maxB7v160006Ev, symObjAddr: 0x249C, symBinAddr: 0x10000511C, symSize: 0x14 }
  - { offsetInCU: 0x24B62, offset: 0x24B62, size: 0x8, addend: 0x0, symName: __ZNKSt3__117__compressed_pairINS_12basic_stringIcNS_11char_traitsIcEENS_9allocatorIcEEE5__repES5_E6secondB7v160006Ev, symObjAddr: 0x24B0, symBinAddr: 0x100005130, symSize: 0x24 }
  - { offsetInCU: 0x24B88, offset: 0x24B88, size: 0x8, addend: 0x0, symName: __ZNKSt3__122__compressed_pair_elemINS_9allocatorIcEELi1ELb1EE5__getB7v160006Ev, symObjAddr: 0x24D4, symBinAddr: 0x100005154, symSize: 0x14 }
  - { offsetInCU: 0x24BAE, offset: 0x24BAE, size: 0x8, addend: 0x0, symName: __ZNSt3__123__libcpp_numeric_limitsImLb1EE3maxB7v160006Ev, symObjAddr: 0x24E8, symBinAddr: 0x100005168, symSize: 0x8 }
  - { offsetInCU: 0x24BC2, offset: 0x24BC2, size: 0x8, addend: 0x0, symName: __ZNKSt3__18ios_base10exceptionsB7v160006Ev, symObjAddr: 0x24F0, symBinAddr: 0x100005170, symSize: 0x18 }
  - { offsetInCU: 0x24C28, offset: 0x24C28, size: 0x8, addend: 0x0, symName: __ZNKSt3__15ctypeIcE5widenB7v160006Ec, symObjAddr: 0x2534, symBinAddr: 0x1000051B4, symSize: 0x38 }
  - { offsetInCU: 0x24C5D, offset: 0x24C5D, size: 0x8, addend: 0x0, symName: __ZNKSt3__19basic_iosIcNS_11char_traitsIcEEE4failB7v160006Ev, symObjAddr: 0x256C, symBinAddr: 0x1000051EC, symSize: 0x28 }
  - { offsetInCU: 0x24C83, offset: 0x24C83, size: 0x8, addend: 0x0, symName: __ZNKSt3__18ios_base4failB7v160006Ev, symObjAddr: 0x2594, symBinAddr: 0x100005214, symSize: 0x28 }
  - { offsetInCU: 0x24CAB, offset: 0x24CAB, size: 0x8, addend: 0x0, symName: __ZNSt3__16vectorINS_12basic_stringIcNS_11char_traitsIcEENS_9allocatorIcEEEENS4_IS6_EEE9__end_capB7v160006Ev, symObjAddr: 0x25BC, symBinAddr: 0x10000523C, symSize: 0x28 }
  - { offsetInCU: 0x24CD1, offset: 0x24CD1, size: 0x8, addend: 0x0, symName: __ZNSt3__16vectorINS_12basic_stringIcNS_11char_traitsIcEENS_9allocatorIcEEEENS4_IS6_EEE22__construct_one_at_endB7v160006IJRKS6_EEEvDpOT_, symObjAddr: 0x25E4, symBinAddr: 0x100005264, symSize: 0x90 }
  - { offsetInCU: 0x24D20, offset: 0x24D20, size: 0x8, addend: 0x0, symName: __ZNSt3__16vectorINS_12basic_stringIcNS_11char_traitsIcEENS_9allocatorIcEEEENS4_IS6_EEE21__push_back_slow_pathIRKS6_EEvOT_, symObjAddr: 0x2674, symBinAddr: 0x1000052F4, symSize: 0xD8 }
  - { offsetInCU: 0x24D7E, offset: 0x24D7E, size: 0x8, addend: 0x0, symName: __ZNSt3__117__compressed_pairIPNS_12basic_stringIcNS_11char_traitsIcEENS_9allocatorIcEEEENS4_IS6_EEE5firstB7v160006Ev, symObjAddr: 0x274C, symBinAddr: 0x1000053CC, symSize: 0x24 }
  - { offsetInCU: 0x24DA4, offset: 0x24DA4, size: 0x8, addend: 0x0, symName: __ZNSt3__122__compressed_pair_elemIPNS_12basic_stringIcNS_11char_traitsIcEENS_9allocatorIcEEEELi0ELb0EE5__getB7v160006Ev, symObjAddr: 0x2770, symBinAddr: 0x1000053F0, symSize: 0x14 }
  - { offsetInCU: 0x24DE6, offset: 0x24DE6, size: 0x8, addend: 0x0, symName: __ZNSt3__16vectorINS_12basic_stringIcNS_11char_traitsIcEENS_9allocatorIcEEEENS4_IS6_EEE21_ConstructTransactionC1B7v160006ERS8_m, symObjAddr: 0x2784, symBinAddr: 0x100005404, symSize: 0x3C }
  - { offsetInCU: 0x24E2E, offset: 0x24E2E, size: 0x8, addend: 0x0, symName: __ZNSt3__116allocator_traitsINS_9allocatorINS_12basic_stringIcNS_11char_traitsIcEENS1_IcEEEEEEE9constructB7v160006IS6_JRKS6_EvvEEvRS7_PT_DpOT0_, symObjAddr: 0x27C0, symBinAddr: 0x100005440, symSize: 0x30 }
  - { offsetInCU: 0x24E82, offset: 0x24E82, size: 0x8, addend: 0x0, symName: __ZNSt3__16vectorINS_12basic_stringIcNS_11char_traitsIcEENS_9allocatorIcEEEENS4_IS6_EEE7__allocB7v160006Ev, symObjAddr: 0x27F0, symBinAddr: 0x100005470, symSize: 0x28 }
  - { offsetInCU: 0x24EA8, offset: 0x24EA8, size: 0x8, addend: 0x0, symName: __ZNSt3__16vectorINS_12basic_stringIcNS_11char_traitsIcEENS_9allocatorIcEEEENS4_IS6_EEE21_ConstructTransactionD1B7v160006Ev, symObjAddr: 0x282C, symBinAddr: 0x1000054AC, symSize: 0x2C }
  - { offsetInCU: 0x24ED2, offset: 0x24ED2, size: 0x8, addend: 0x0, symName: __ZNSt3__16vectorINS_12basic_stringIcNS_11char_traitsIcEENS_9allocatorIcEEEENS4_IS6_EEE21_ConstructTransactionC2B7v160006ERS8_m, symObjAddr: 0x2858, symBinAddr: 0x1000054D8, symSize: 0x4C }
  - { offsetInCU: 0x24F1A, offset: 0x24F1A, size: 0x8, addend: 0x0, symName: __ZNSt3__117__compressed_pairIPNS_12basic_stringIcNS_11char_traitsIcEENS_9allocatorIcEEEENS4_IS6_EEE6secondB7v160006Ev, symObjAddr: 0x28E0, symBinAddr: 0x100005560, symSize: 0x24 }
  - { offsetInCU: 0x24F40, offset: 0x24F40, size: 0x8, addend: 0x0, symName: __ZNSt3__122__compressed_pair_elemINS_9allocatorINS_12basic_stringIcNS_11char_traitsIcEENS1_IcEEEEEELi1ELb1EE5__getB7v160006Ev, symObjAddr: 0x2904, symBinAddr: 0x100005584, symSize: 0x14 }
  - { offsetInCU: 0x24F66, offset: 0x24F66, size: 0x8, addend: 0x0, symName: __ZNSt3__16vectorINS_12basic_stringIcNS_11char_traitsIcEENS_9allocatorIcEEEENS4_IS6_EEE21_ConstructTransactionD2B7v160006Ev, symObjAddr: 0x2918, symBinAddr: 0x100005598, symSize: 0x20 }
  - { offsetInCU: 0x24F90, offset: 0x24F90, size: 0x8, addend: 0x0, symName: __ZNKSt3__16vectorINS_12basic_stringIcNS_11char_traitsIcEENS_9allocatorIcEEEENS4_IS6_EEE11__recommendB7v160006Em, symObjAddr: 0x2938, symBinAddr: 0x1000055B8, symSize: 0xB4 }
  - { offsetInCU: 0x24FE5, offset: 0x24FE5, size: 0x8, addend: 0x0, symName: __ZNKSt3__16vectorINS_12basic_stringIcNS_11char_traitsIcEENS_9allocatorIcEEEENS4_IS6_EEE4sizeB7v160006Ev, symObjAddr: 0x29EC, symBinAddr: 0x10000566C, symSize: 0x28 }
  - { offsetInCU: 0x2500B, offset: 0x2500B, size: 0x8, addend: 0x0, symName: __ZNSt3__114__split_bufferINS_12basic_stringIcNS_11char_traitsIcEENS_9allocatorIcEEEERNS4_IS6_EEEC1EmmS8_, symObjAddr: 0x2A14, symBinAddr: 0x100005694, symSize: 0x44 }
  - { offsetInCU: 0x25061, offset: 0x25061, size: 0x8, addend: 0x0, symName: __ZNSt3__114__split_bufferINS_12basic_stringIcNS_11char_traitsIcEENS_9allocatorIcEEEERNS4_IS6_EEED1Ev, symObjAddr: 0x2B70, symBinAddr: 0x1000057F0, symSize: 0x2C }
  - { offsetInCU: 0x2508D, offset: 0x2508D, size: 0x8, addend: 0x0, symName: __ZNKSt3__16vectorINS_12basic_stringIcNS_11char_traitsIcEENS_9allocatorIcEEEENS4_IS6_EEE8max_sizeEv, symObjAddr: 0x2B9C, symBinAddr: 0x10000581C, symSize: 0x60 }
  - { offsetInCU: 0x250B5, offset: 0x250B5, size: 0x8, addend: 0x0, symName: __ZNKSt3__16vectorINS_12basic_stringIcNS_11char_traitsIcEENS_9allocatorIcEEEENS4_IS6_EEE20__throw_length_errorB7v160006Ev, symObjAddr: 0x2BFC, symBinAddr: 0x10000587C, symSize: 0x1C }
  - { offsetInCU: 0x250DB, offset: 0x250DB, size: 0x8, addend: 0x0, symName: __ZNKSt3__16vectorINS_12basic_stringIcNS_11char_traitsIcEENS_9allocatorIcEEEENS4_IS6_EEE8capacityB7v160006Ev, symObjAddr: 0x2C18, symBinAddr: 0x100005898, symSize: 0x40 }
  - { offsetInCU: 0x2510C, offset: 0x2510C, size: 0x8, addend: 0x0, symName: __ZNSt3__116allocator_traitsINS_9allocatorINS_12basic_stringIcNS_11char_traitsIcEENS1_IcEEEEEEE8max_sizeB7v160006IS7_vvEEmRKS7_, symObjAddr: 0x2CB0, symBinAddr: 0x100005930, symSize: 0x28 }
  - { offsetInCU: 0x25137, offset: 0x25137, size: 0x8, addend: 0x0, symName: __ZNKSt3__16vectorINS_12basic_stringIcNS_11char_traitsIcEENS_9allocatorIcEEEENS4_IS6_EEE7__allocB7v160006Ev, symObjAddr: 0x2CD8, symBinAddr: 0x100005958, symSize: 0x28 }
  - { offsetInCU: 0x2515D, offset: 0x2515D, size: 0x8, addend: 0x0, symName: __ZNSt3__114numeric_limitsIlE3maxB7v160006Ev, symObjAddr: 0x2D00, symBinAddr: 0x100005980, symSize: 0x14 }
  - { offsetInCU: 0x25187, offset: 0x25187, size: 0x8, addend: 0x0, symName: __ZNKSt3__16__lessImmEclB7v160006ERKmS3_, symObjAddr: 0x2D68, symBinAddr: 0x1000059E8, symSize: 0x34 }
  - { offsetInCU: 0x251C9, offset: 0x251C9, size: 0x8, addend: 0x0, symName: __ZNKSt3__117__compressed_pairIPNS_12basic_stringIcNS_11char_traitsIcEENS_9allocatorIcEEEENS4_IS6_EEE6secondB7v160006Ev, symObjAddr: 0x2D9C, symBinAddr: 0x100005A1C, symSize: 0x24 }
  - { offsetInCU: 0x251EF, offset: 0x251EF, size: 0x8, addend: 0x0, symName: __ZNKSt3__122__compressed_pair_elemINS_9allocatorINS_12basic_stringIcNS_11char_traitsIcEENS1_IcEEEEEELi1ELb1EE5__getB7v160006Ev, symObjAddr: 0x2DC0, symBinAddr: 0x100005A40, symSize: 0x14 }
  - { offsetInCU: 0x25215, offset: 0x25215, size: 0x8, addend: 0x0, symName: __ZNSt3__123__libcpp_numeric_limitsIlLb1EE3maxB7v160006Ev, symObjAddr: 0x2DD4, symBinAddr: 0x100005A54, symSize: 0x8 }
  - { offsetInCU: 0x25229, offset: 0x25229, size: 0x8, addend: 0x0, symName: __ZNSt12length_errorC1B7v160006EPKc, symObjAddr: 0x2E40, symBinAddr: 0x100005AC0, symSize: 0x34 }
  - { offsetInCU: 0x25261, offset: 0x25261, size: 0x8, addend: 0x0, symName: __ZNSt12length_errorC2B7v160006EPKc, symObjAddr: 0x2E74, symBinAddr: 0x100005AF4, symSize: 0x4C }
  - { offsetInCU: 0x25299, offset: 0x25299, size: 0x8, addend: 0x0, symName: __ZNKSt3__16vectorINS_12basic_stringIcNS_11char_traitsIcEENS_9allocatorIcEEEENS4_IS6_EEE9__end_capB7v160006Ev, symObjAddr: 0x2EC0, symBinAddr: 0x100005B40, symSize: 0x28 }
  - { offsetInCU: 0x252BF, offset: 0x252BF, size: 0x8, addend: 0x0, symName: __ZNKSt3__117__compressed_pairIPNS_12basic_stringIcNS_11char_traitsIcEENS_9allocatorIcEEEENS4_IS6_EEE5firstB7v160006Ev, symObjAddr: 0x2EE8, symBinAddr: 0x100005B68, symSize: 0x24 }
  - { offsetInCU: 0x252E5, offset: 0x252E5, size: 0x8, addend: 0x0, symName: __ZNKSt3__122__compressed_pair_elemIPNS_12basic_stringIcNS_11char_traitsIcEENS_9allocatorIcEEEELi0ELb0EE5__getB7v160006Ev, symObjAddr: 0x2F0C, symBinAddr: 0x100005B8C, symSize: 0x14 }
  - { offsetInCU: 0x2530B, offset: 0x2530B, size: 0x8, addend: 0x0, symName: __ZNSt3__114__split_bufferINS_12basic_stringIcNS_11char_traitsIcEENS_9allocatorIcEEEERNS4_IS6_EEEC2EmmS8_, symObjAddr: 0x2F74, symBinAddr: 0x100005BF4, symSize: 0xE0 }
  - { offsetInCU: 0x2537E, offset: 0x2537E, size: 0x8, addend: 0x0, symName: __ZNSt3__117__compressed_pairIPNS_12basic_stringIcNS_11char_traitsIcEENS_9allocatorIcEEEERNS4_IS6_EEEC1B7v160006IDnS9_EEOT_OT0_, symObjAddr: 0x3054, symBinAddr: 0x100005CD4, symSize: 0x3C }
  - { offsetInCU: 0x253D6, offset: 0x253D6, size: 0x8, addend: 0x0, symName: __ZNSt3__114__split_bufferINS_12basic_stringIcNS_11char_traitsIcEENS_9allocatorIcEEEERNS4_IS6_EEE7__allocB7v160006Ev, symObjAddr: 0x30D0, symBinAddr: 0x100005D50, symSize: 0x28 }
  - { offsetInCU: 0x253FC, offset: 0x253FC, size: 0x8, addend: 0x0, symName: __ZNSt3__114__split_bufferINS_12basic_stringIcNS_11char_traitsIcEENS_9allocatorIcEEEERNS4_IS6_EEE9__end_capB7v160006Ev, symObjAddr: 0x30F8, symBinAddr: 0x100005D78, symSize: 0x28 }
  - { offsetInCU: 0x25422, offset: 0x25422, size: 0x8, addend: 0x0, symName: __ZNSt3__117__compressed_pairIPNS_12basic_stringIcNS_11char_traitsIcEENS_9allocatorIcEEEERNS4_IS6_EEEC2B7v160006IDnS9_EEOT_OT0_, symObjAddr: 0x3120, symBinAddr: 0x100005DA0, symSize: 0x48 }
  - { offsetInCU: 0x2547A, offset: 0x2547A, size: 0x8, addend: 0x0, symName: __ZNSt3__122__compressed_pair_elemIRNS_9allocatorINS_12basic_stringIcNS_11char_traitsIcEENS1_IcEEEEEELi1ELb0EEC2B7v160006IS8_vEEOT_, symObjAddr: 0x3168, symBinAddr: 0x100005DE8, symSize: 0x20 }
  - { offsetInCU: 0x254BC, offset: 0x254BC, size: 0x8, addend: 0x0, symName: __ZNSt3__19allocatorINS_12basic_stringIcNS_11char_traitsIcEENS0_IcEEEEE8allocateB7v160006Em, symObjAddr: 0x3188, symBinAddr: 0x100005E08, symSize: 0x5C }
  - { offsetInCU: 0x254F0, offset: 0x254F0, size: 0x8, addend: 0x0, symName: __ZNSt3__117__compressed_pairIPNS_12basic_stringIcNS_11char_traitsIcEENS_9allocatorIcEEEERNS4_IS6_EEE6secondB7v160006Ev, symObjAddr: 0x32E8, symBinAddr: 0x100005F68, symSize: 0x28 }
  - { offsetInCU: 0x25516, offset: 0x25516, size: 0x8, addend: 0x0, symName: __ZNSt3__122__compressed_pair_elemIRNS_9allocatorINS_12basic_stringIcNS_11char_traitsIcEENS1_IcEEEEEELi1ELb0EE5__getB7v160006Ev, symObjAddr: 0x3310, symBinAddr: 0x100005F90, symSize: 0x18 }
  - { offsetInCU: 0x2553C, offset: 0x2553C, size: 0x8, addend: 0x0, symName: __ZNSt3__117__compressed_pairIPNS_12basic_stringIcNS_11char_traitsIcEENS_9allocatorIcEEEERNS4_IS6_EEE5firstB7v160006Ev, symObjAddr: 0x3328, symBinAddr: 0x100005FA8, symSize: 0x24 }
  - { offsetInCU: 0x25562, offset: 0x25562, size: 0x8, addend: 0x0, symName: __ZNKSt3__16vectorINS_12basic_stringIcNS_11char_traitsIcEENS_9allocatorIcEEEENS4_IS6_EEE17__annotate_deleteB7v160006Ev, symObjAddr: 0x334C, symBinAddr: 0x100005FCC, symSize: 0xD4 }
  - { offsetInCU: 0x25588, offset: 0x25588, size: 0x8, addend: 0x0, symName: __ZNSt3__116reverse_iteratorIPNS_12basic_stringIcNS_11char_traitsIcEENS_9allocatorIcEEEEEC1B7v160006ES7_, symObjAddr: 0x354C, symBinAddr: 0x1000061CC, symSize: 0x34 }
  - { offsetInCU: 0x255C0, offset: 0x255C0, size: 0x8, addend: 0x0, symName: __ZNKSt3__116reverse_iteratorIPNS_12basic_stringIcNS_11char_traitsIcEENS_9allocatorIcEEEEE4baseB7v160006Ev, symObjAddr: 0x3580, symBinAddr: 0x100006200, symSize: 0x18 }
  - { offsetInCU: 0x255E6, offset: 0x255E6, size: 0x8, addend: 0x0, symName: __ZNKSt3__16vectorINS_12basic_stringIcNS_11char_traitsIcEENS_9allocatorIcEEEENS4_IS6_EEE14__annotate_newB7v160006Em, symObjAddr: 0x35D4, symBinAddr: 0x100006254, symSize: 0xC8 }
  - { offsetInCU: 0x2561B, offset: 0x2561B, size: 0x8, addend: 0x0, symName: __ZNKSt3__16vectorINS_12basic_stringIcNS_11char_traitsIcEENS_9allocatorIcEEEENS4_IS6_EEE31__annotate_contiguous_containerB7v160006EPKvSA_SA_SA_, symObjAddr: 0x36AC, symBinAddr: 0x10000632C, symSize: 0x20 }
  - { offsetInCU: 0x2566D, offset: 0x2566D, size: 0x8, addend: 0x0, symName: __ZNKSt3__16vectorINS_12basic_stringIcNS_11char_traitsIcEENS_9allocatorIcEEEENS4_IS6_EEE4dataB7v160006Ev, symObjAddr: 0x36CC, symBinAddr: 0x10000634C, symSize: 0x28 }
  - { offsetInCU: 0x25693, offset: 0x25693, size: 0x8, addend: 0x0, symName: __ZNSt3__129_AllocatorDestroyRangeReverseINS_9allocatorINS_12basic_stringIcNS_11char_traitsIcEENS1_IcEEEEEENS_16reverse_iteratorIPS6_EEEC1B7v160006ERS7_RSA_SD_, symObjAddr: 0x3740, symBinAddr: 0x1000063C0, symSize: 0x44 }
  - { offsetInCU: 0x256F0, offset: 0x256F0, size: 0x8, addend: 0x0, symName: __ZNSt3__116allocator_traitsINS_9allocatorINS_12basic_stringIcNS_11char_traitsIcEENS1_IcEEEEEEE9constructB7v160006IS6_JS6_EvvEEvRS7_PT_DpOT0_, symObjAddr: 0x37CC, symBinAddr: 0x10000644C, symSize: 0x30 }
  - { offsetInCU: 0x25744, offset: 0x25744, size: 0x8, addend: 0x0, symName: __ZNKSt3__116reverse_iteratorIPNS_12basic_stringIcNS_11char_traitsIcEENS_9allocatorIcEEEEEdeB7v160006Ev, symObjAddr: 0x3820, symBinAddr: 0x1000064A0, symSize: 0x28 }
  - { offsetInCU: 0x25778, offset: 0x25778, size: 0x8, addend: 0x0, symName: __ZNSt3__116reverse_iteratorIPNS_12basic_stringIcNS_11char_traitsIcEENS_9allocatorIcEEEEEppB7v160006Ev, symObjAddr: 0x3848, symBinAddr: 0x1000064C8, symSize: 0x20 }
  - { offsetInCU: 0x2579E, offset: 0x2579E, size: 0x8, addend: 0x0, symName: __ZNSt3__128__exception_guard_exceptionsINS_29_AllocatorDestroyRangeReverseINS_9allocatorINS_12basic_stringIcNS_11char_traitsIcEENS2_IcEEEEEENS_16reverse_iteratorIPS7_EEEEE10__completeB7v160006Ev, symObjAddr: 0x3868, symBinAddr: 0x1000064E8, symSize: 0x1C }
  - { offsetInCU: 0x257C4, offset: 0x257C4, size: 0x8, addend: 0x0, symName: __ZNSt3__128__exception_guard_exceptionsINS_29_AllocatorDestroyRangeReverseINS_9allocatorINS_12basic_stringIcNS_11char_traitsIcEENS2_IcEEEEEENS_16reverse_iteratorIPS7_EEEEED1B7v160006Ev, symObjAddr: 0x3884, symBinAddr: 0x100006504, symSize: 0x2C }
  - { offsetInCU: 0x257EE, offset: 0x257EE, size: 0x8, addend: 0x0, symName: __ZNSt3__128__exception_guard_exceptionsINS_29_AllocatorDestroyRangeReverseINS_9allocatorINS_12basic_stringIcNS_11char_traitsIcEENS2_IcEEEEEENS_16reverse_iteratorIPS7_EEEEEC1B7v160006ESC_, symObjAddr: 0x38B0, symBinAddr: 0x100006530, symSize: 0x34 }
  - { offsetInCU: 0x25827, offset: 0x25827, size: 0x8, addend: 0x0, symName: __ZNSt3__128__exception_guard_exceptionsINS_29_AllocatorDestroyRangeReverseINS_9allocatorINS_12basic_stringIcNS_11char_traitsIcEENS2_IcEEEEEENS_16reverse_iteratorIPS7_EEEEEC2B7v160006ESC_, symObjAddr: 0x38E4, symBinAddr: 0x100006564, symSize: 0x30 }
  - { offsetInCU: 0x25860, offset: 0x25860, size: 0x8, addend: 0x0, symName: __ZNSt3__129_AllocatorDestroyRangeReverseINS_9allocatorINS_12basic_stringIcNS_11char_traitsIcEENS1_IcEEEEEENS_16reverse_iteratorIPS6_EEEC2B7v160006ERS7_RSA_SD_, symObjAddr: 0x3914, symBinAddr: 0x100006594, symSize: 0x38 }
  - { offsetInCU: 0x258B7, offset: 0x258B7, size: 0x8, addend: 0x0, symName: __ZNSt3__112basic_stringIcNS_11char_traitsIcEENS_9allocatorIcEEEC1B7v160006EOS5_, symObjAddr: 0x3988, symBinAddr: 0x100006608, symSize: 0x34 }
  - { offsetInCU: 0x258F0, offset: 0x258F0, size: 0x8, addend: 0x0, symName: __ZNSt3__112basic_stringIcNS_11char_traitsIcEENS_9allocatorIcEEEC2B7v160006EOS5_, symObjAddr: 0x39BC, symBinAddr: 0x10000663C, symSize: 0x80 }
  - { offsetInCU: 0x2592F, offset: 0x2592F, size: 0x8, addend: 0x0, symName: __ZNSt3__119__to_address_helperINS_16reverse_iteratorIPNS_12basic_stringIcNS_11char_traitsIcEENS_9allocatorIcEEEEEEvE6__callB7v160006ERKS9_, symObjAddr: 0x3A50, symBinAddr: 0x1000066D0, symSize: 0x38 }
  - { offsetInCU: 0x25952, offset: 0x25952, size: 0x8, addend: 0x0, symName: __ZNKSt3__116reverse_iteratorIPNS_12basic_stringIcNS_11char_traitsIcEENS_9allocatorIcEEEEEptB7v160006Ev, symObjAddr: 0x3A88, symBinAddr: 0x100006708, symSize: 0x2C }
  - { offsetInCU: 0x25978, offset: 0x25978, size: 0x8, addend: 0x0, symName: __ZNSt3__128__exception_guard_exceptionsINS_29_AllocatorDestroyRangeReverseINS_9allocatorINS_12basic_stringIcNS_11char_traitsIcEENS2_IcEEEEEENS_16reverse_iteratorIPS7_EEEEED2B7v160006Ev, symObjAddr: 0x3B98, symBinAddr: 0x100006818, symSize: 0x50 }
  - { offsetInCU: 0x259A2, offset: 0x259A2, size: 0x8, addend: 0x0, symName: __ZNKSt3__129_AllocatorDestroyRangeReverseINS_9allocatorINS_12basic_stringIcNS_11char_traitsIcEENS1_IcEEEEEENS_16reverse_iteratorIPS6_EEEclB7v160006Ev, symObjAddr: 0x3BE8, symBinAddr: 0x100006868, symSize: 0xB4 }
  - { offsetInCU: 0x259C9, offset: 0x259C9, size: 0x8, addend: 0x0, symName: __ZNSt3__116reverse_iteratorINS0_IPNS_12basic_stringIcNS_11char_traitsIcEENS_9allocatorIcEEEEEEEC1B7v160006ES8_, symObjAddr: 0x3D0C, symBinAddr: 0x10000698C, symSize: 0x3C }
  - { offsetInCU: 0x25A01, offset: 0x25A01, size: 0x8, addend: 0x0, symName: __ZNSt3__116allocator_traitsINS_9allocatorINS_12basic_stringIcNS_11char_traitsIcEENS1_IcEEEEEEE7destroyB7v160006IS6_vvEEvRS7_PT_, symObjAddr: 0x3DA8, symBinAddr: 0x100006A28, symSize: 0x28 }
  - { offsetInCU: 0x25A3B, offset: 0x25A3B, size: 0x8, addend: 0x0, symName: __ZNSt3__116reverse_iteratorINS0_IPNS_12basic_stringIcNS_11char_traitsIcEENS_9allocatorIcEEEEEEEppB7v160006Ev, symObjAddr: 0x3DF4, symBinAddr: 0x100006A74, symSize: 0x30 }
  - { offsetInCU: 0x25A61, offset: 0x25A61, size: 0x8, addend: 0x0, symName: __ZNKSt3__116reverse_iteratorINS0_IPNS_12basic_stringIcNS_11char_traitsIcEENS_9allocatorIcEEEEEEE4baseB7v160006Ev, symObjAddr: 0x3E24, symBinAddr: 0x100006AA4, symSize: 0x24 }
  - { offsetInCU: 0x25A8D, offset: 0x25A8D, size: 0x8, addend: 0x0, symName: __ZNSt3__119__to_address_helperINS_16reverse_iteratorINS1_IPNS_12basic_stringIcNS_11char_traitsIcEENS_9allocatorIcEEEEEEEEvE6__callB7v160006ERKSA_, symObjAddr: 0x3E90, symBinAddr: 0x100006B10, symSize: 0x38 }
  - { offsetInCU: 0x25AB0, offset: 0x25AB0, size: 0x8, addend: 0x0, symName: __ZNKSt3__116reverse_iteratorINS0_IPNS_12basic_stringIcNS_11char_traitsIcEENS_9allocatorIcEEEEEEEptB7v160006Ev, symObjAddr: 0x3EC8, symBinAddr: 0x100006B48, symSize: 0x4C }
  - { offsetInCU: 0x25AD6, offset: 0x25AD6, size: 0x8, addend: 0x0, symName: __ZNSt3__116reverse_iteratorIPNS_12basic_stringIcNS_11char_traitsIcEENS_9allocatorIcEEEEEpLB7v160006El, symObjAddr: 0x3FF0, symBinAddr: 0x100006C70, symSize: 0x30 }
  - { offsetInCU: 0x25B0A, offset: 0x25B0A, size: 0x8, addend: 0x0, symName: __ZNSt3__116reverse_iteratorIPNS_12basic_stringIcNS_11char_traitsIcEENS_9allocatorIcEEEEEmmB7v160006Ev, symObjAddr: 0x4020, symBinAddr: 0x100006CA0, symSize: 0x20 }
  - { offsetInCU: 0x25B30, offset: 0x25B30, size: 0x8, addend: 0x0, symName: __ZNSt3__116reverse_iteratorINS0_IPNS_12basic_stringIcNS_11char_traitsIcEENS_9allocatorIcEEEEEEEC2B7v160006ES8_, symObjAddr: 0x4040, symBinAddr: 0x100006CC0, symSize: 0x2C }
  - { offsetInCU: 0x25B68, offset: 0x25B68, size: 0x8, addend: 0x0, symName: __ZNSt3__116reverse_iteratorIPNS_12basic_stringIcNS_11char_traitsIcEENS_9allocatorIcEEEEEC2B7v160006ES7_, symObjAddr: 0x406C, symBinAddr: 0x100006CEC, symSize: 0x28 }
  - { offsetInCU: 0x25BA0, offset: 0x25BA0, size: 0x8, addend: 0x0, symName: __ZNSt3__114__split_bufferINS_12basic_stringIcNS_11char_traitsIcEENS_9allocatorIcEEEERNS4_IS6_EEED2Ev, symObjAddr: 0x4094, symBinAddr: 0x100006D14, symSize: 0x8C }
  - { offsetInCU: 0x25BCC, offset: 0x25BCC, size: 0x8, addend: 0x0, symName: __ZNSt3__114__split_bufferINS_12basic_stringIcNS_11char_traitsIcEENS_9allocatorIcEEEERNS4_IS6_EEE5clearB7v160006Ev, symObjAddr: 0x4120, symBinAddr: 0x100006DA0, symSize: 0x28 }
  - { offsetInCU: 0x25BF2, offset: 0x25BF2, size: 0x8, addend: 0x0, symName: __ZNSt3__116allocator_traitsINS_9allocatorINS_12basic_stringIcNS_11char_traitsIcEENS1_IcEEEEEEE10deallocateB7v160006ERS7_PS6_m, symObjAddr: 0x4148, symBinAddr: 0x100006DC8, symSize: 0x34 }
  - { offsetInCU: 0x25C34, offset: 0x25C34, size: 0x8, addend: 0x0, symName: __ZNKSt3__114__split_bufferINS_12basic_stringIcNS_11char_traitsIcEENS_9allocatorIcEEEERNS4_IS6_EEE8capacityB7v160006Ev, symObjAddr: 0x417C, symBinAddr: 0x100006DFC, symSize: 0x40 }
  - { offsetInCU: 0x25C5A, offset: 0x25C5A, size: 0x8, addend: 0x0, symName: __ZNSt3__114__split_bufferINS_12basic_stringIcNS_11char_traitsIcEENS_9allocatorIcEEEERNS4_IS6_EEE17__destruct_at_endB7v160006EPS6_, symObjAddr: 0x41BC, symBinAddr: 0x100006E3C, symSize: 0x2C }
  - { offsetInCU: 0x25C8E, offset: 0x25C8E, size: 0x8, addend: 0x0, symName: __ZNSt3__114__split_bufferINS_12basic_stringIcNS_11char_traitsIcEENS_9allocatorIcEEEERNS4_IS6_EEE17__destruct_at_endB7v160006EPS6_NS_17integral_constantIbLb0EEE, symObjAddr: 0x41E8, symBinAddr: 0x100006E68, symSize: 0x80 }
  - { offsetInCU: 0x25CCE, offset: 0x25CCE, size: 0x8, addend: 0x0, symName: __ZNSt3__19allocatorINS_12basic_stringIcNS_11char_traitsIcEENS0_IcEEEEE10deallocateB7v160006EPS5_m, symObjAddr: 0x4268, symBinAddr: 0x100006EE8, symSize: 0x44 }
  - { offsetInCU: 0x25D10, offset: 0x25D10, size: 0x8, addend: 0x0, symName: __ZNKSt3__114__split_bufferINS_12basic_stringIcNS_11char_traitsIcEENS_9allocatorIcEEEERNS4_IS6_EEE9__end_capB7v160006Ev, symObjAddr: 0x43B4, symBinAddr: 0x100007034, symSize: 0x28 }
  - { offsetInCU: 0x25D36, offset: 0x25D36, size: 0x8, addend: 0x0, symName: __ZNKSt3__117__compressed_pairIPNS_12basic_stringIcNS_11char_traitsIcEENS_9allocatorIcEEEERNS4_IS6_EEE5firstB7v160006Ev, symObjAddr: 0x43DC, symBinAddr: 0x10000705C, symSize: 0x24 }
  - { offsetInCU: 0x25D5C, offset: 0x25D5C, size: 0x8, addend: 0x0, symName: __ZNSt3__16vectorINS_12basic_stringIcNS_11char_traitsIcEENS_9allocatorIcEEEENS4_IS6_EEED2B7v160006Ev, symObjAddr: 0x4400, symBinAddr: 0x100007080, symSize: 0x44 }
  - { offsetInCU: 0x25D86, offset: 0x25D86, size: 0x8, addend: 0x0, symName: __ZNSt3__16vectorINS_12basic_stringIcNS_11char_traitsIcEENS_9allocatorIcEEEENS4_IS6_EEE16__destroy_vectorC1ERS8_, symObjAddr: 0x4444, symBinAddr: 0x1000070C4, symSize: 0x34 }
  - { offsetInCU: 0x25DBF, offset: 0x25DBF, size: 0x8, addend: 0x0, symName: __ZNSt3__16vectorINS_12basic_stringIcNS_11char_traitsIcEENS_9allocatorIcEEEENS4_IS6_EEE16__destroy_vectorclB7v160006Ev, symObjAddr: 0x4478, symBinAddr: 0x1000070F8, symSize: 0x9C }
  - { offsetInCU: 0x25DE5, offset: 0x25DE5, size: 0x8, addend: 0x0, symName: __ZNSt3__16vectorINS_12basic_stringIcNS_11char_traitsIcEENS_9allocatorIcEEEENS4_IS6_EEE16__destroy_vectorC2ERS8_, symObjAddr: 0x4514, symBinAddr: 0x100007194, symSize: 0x20 }
  - { offsetInCU: 0x25E1E, offset: 0x25E1E, size: 0x8, addend: 0x0, symName: __ZNSt3__16vectorINS_12basic_stringIcNS_11char_traitsIcEENS_9allocatorIcEEEENS4_IS6_EEE7__clearB7v160006Ev, symObjAddr: 0x4544, symBinAddr: 0x1000071C4, symSize: 0x28 }
  - { offsetInCU: 0x25E44, offset: 0x25E44, size: 0x8, addend: 0x0, symName: __ZNSt3__16vectorINS_12basic_stringIcNS_11char_traitsIcEENS_9allocatorIcEEEENS4_IS6_EEE22__base_destruct_at_endB7v160006EPS6_, symObjAddr: 0x456C, symBinAddr: 0x1000071EC, symSize: 0x8C }
  - { offsetInCU: 0x25E88, offset: 0x25E88, size: 0x8, addend: 0x0, symName: __ZNSt3__113basic_fstreamIcNS_11char_traitsIcEEED2Ev, symObjAddr: 0x45F8, symBinAddr: 0x100007278, symSize: 0x6C }
  - { offsetInCU: 0x25F1C, offset: 0x25F1C, size: 0x8, addend: 0x0, symName: __ZNSt3__114priority_queueINS_5tupleIJiiii9DirectionEEENS_6vectorIS3_NS_9allocatorIS3_EEEENS_4lessIS3_EEEC1B7v160006Ev, symObjAddr: 0x4664, symBinAddr: 0x1000072E4, symSize: 0x2C }
  - { offsetInCU: 0x25F46, offset: 0x25F46, size: 0x8, addend: 0x0, symName: __ZNSt3__16vectorINS_12basic_stringIcNS_11char_traitsIcEENS_9allocatorIcEEEENS4_IS6_EEEixB7v160006Em, symObjAddr: 0x4690, symBinAddr: 0x100007310, symSize: 0x2C }
  - { offsetInCU: 0x25F7D, offset: 0x25F7D, size: 0x8, addend: 0x0, symName: __ZNSt3__16vectorIiNS_9allocatorIiEEEC1EmRKi, symObjAddr: 0x46BC, symBinAddr: 0x10000733C, symSize: 0x3C }
  - { offsetInCU: 0x25FC7, offset: 0x25FC7, size: 0x8, addend: 0x0, symName: __ZNSt3__16vectorINS0_IiNS_9allocatorIiEEEENS1_IS3_EEEC1EmRKS3_, symObjAddr: 0x46F8, symBinAddr: 0x100007378, symSize: 0x3C }
  - { offsetInCU: 0x26011, offset: 0x26011, size: 0x8, addend: 0x0, symName: __ZNSt3__16vectorINS0_INS0_IiNS_9allocatorIiEEEENS1_IS3_EEEENS1_IS5_EEEC1EmRKS5_, symObjAddr: 0x4734, symBinAddr: 0x1000073B4, symSize: 0x3C }
  - { offsetInCU: 0x2605B, offset: 0x2605B, size: 0x8, addend: 0x0, symName: __ZNSt3__16vectorINS0_INS0_INS0_IiNS_9allocatorIiEEEENS1_IS3_EEEENS1_IS5_EEEENS1_IS7_EEEC1EmRKS7_, symObjAddr: 0x4770, symBinAddr: 0x1000073F0, symSize: 0x3C }
  - { offsetInCU: 0x260A5, offset: 0x260A5, size: 0x8, addend: 0x0, symName: __ZNSt3__16vectorINS0_INS0_IiNS_9allocatorIiEEEENS1_IS3_EEEENS1_IS5_EEED1B7v160006Ev, symObjAddr: 0x47AC, symBinAddr: 0x10000742C, symSize: 0x2C }
  - { offsetInCU: 0x260CF, offset: 0x260CF, size: 0x8, addend: 0x0, symName: __ZNSt3__16vectorINS0_IiNS_9allocatorIiEEEENS1_IS3_EEED1B7v160006Ev, symObjAddr: 0x47D8, symBinAddr: 0x100007458, symSize: 0x2C }
  - { offsetInCU: 0x260F9, offset: 0x260F9, size: 0x8, addend: 0x0, symName: __ZNSt3__16vectorIiNS_9allocatorIiEEED1B7v160006Ev, symObjAddr: 0x4804, symBinAddr: 0x100007484, symSize: 0x2C }
  - { offsetInCU: 0x2613A, offset: 0x2613A, size: 0x8, addend: 0x0, symName: __ZNKSt16initializer_listI9DirectionE5beginB7v160006Ev, symObjAddr: 0x4830, symBinAddr: 0x1000074B0, symSize: 0x18 }
  - { offsetInCU: 0x26160, offset: 0x26160, size: 0x8, addend: 0x0, symName: __ZNKSt16initializer_listI9DirectionE3endB7v160006Ev, symObjAddr: 0x4848, symBinAddr: 0x1000074C8, symSize: 0x20 }
  - { offsetInCU: 0x26186, offset: 0x26186, size: 0x8, addend: 0x0, symName: __ZNSt3__114priority_queueINS_5tupleIJiiii9DirectionEEENS_6vectorIS3_NS_9allocatorIS3_EEEENS_4lessIS3_EEE4pushEOS3_, symObjAddr: 0x4868, symBinAddr: 0x1000074E8, symSize: 0x58 }
  - { offsetInCU: 0x261BD, offset: 0x261BD, size: 0x8, addend: 0x0, symName: __ZNSt3__16vectorINS0_INS0_INS0_IiNS_9allocatorIiEEEENS1_IS3_EEEENS1_IS5_EEEENS1_IS7_EEEixB7v160006Em, symObjAddr: 0x4910, symBinAddr: 0x100007590, symSize: 0x2C }
  - { offsetInCU: 0x261F4, offset: 0x261F4, size: 0x8, addend: 0x0, symName: __ZNSt3__16vectorINS0_INS0_IiNS_9allocatorIiEEEENS1_IS3_EEEENS1_IS5_EEEixB7v160006Em, symObjAddr: 0x493C, symBinAddr: 0x1000075BC, symSize: 0x2C }
  - { offsetInCU: 0x2622B, offset: 0x2622B, size: 0x8, addend: 0x0, symName: __ZNSt3__16vectorINS0_IiNS_9allocatorIiEEEENS1_IS3_EEEixB7v160006Em, symObjAddr: 0x4968, symBinAddr: 0x1000075E8, symSize: 0x2C }
  - { offsetInCU: 0x26262, offset: 0x26262, size: 0x8, addend: 0x0, symName: __ZNSt3__16vectorIiNS_9allocatorIiEEEixB7v160006Em, symObjAddr: 0x4994, symBinAddr: 0x100007614, symSize: 0x24 }
  - { offsetInCU: 0x26299, offset: 0x26299, size: 0x8, addend: 0x0, symName: __ZNKSt3__114priority_queueINS_5tupleIJiiii9DirectionEEENS_6vectorIS3_NS_9allocatorIS3_EEEENS_4lessIS3_EEE5emptyB7v160006Ev, symObjAddr: 0x49B8, symBinAddr: 0x100007638, symSize: 0x28 }
  - { offsetInCU: 0x262BF, offset: 0x262BF, size: 0x8, addend: 0x0, symName: __ZNKSt3__114priority_queueINS_5tupleIJiiii9DirectionEEENS_6vectorIS3_NS_9allocatorIS3_EEEENS_4lessIS3_EEE3topB7v160006Ev, symObjAddr: 0x49E0, symBinAddr: 0x100007660, symSize: 0x24 }
  - { offsetInCU: 0x262E5, offset: 0x262E5, size: 0x8, addend: 0x0, symName: __ZNSt3__114priority_queueINS_5tupleIJiiii9DirectionEEENS_6vectorIS3_NS_9allocatorIS3_EEEENS_4lessIS3_EEE3popEv, symObjAddr: 0x4AC8, symBinAddr: 0x100007748, symSize: 0x50 }
  - { offsetInCU: 0x2630D, offset: 0x2630D, size: 0x8, addend: 0x0, symName: __ZN8Solution6getAdjEii9Directioni, symObjAddr: 0x4B18, symBinAddr: 0x100007798, symSize: 0x258 }
  - { offsetInCU: 0x26388, offset: 0x26388, size: 0x8, addend: 0x0, symName: __ZNSt3__16vectorINS_5tupleIJiii9DirectionEEENS_9allocatorIS3_EEE5beginB7v160006Ev, symObjAddr: 0x4D70, symBinAddr: 0x1000079F0, symSize: 0x30 }
  - { offsetInCU: 0x263B0, offset: 0x263B0, size: 0x8, addend: 0x0, symName: __ZNSt3__16vectorINS_5tupleIJiii9DirectionEEENS_9allocatorIS3_EEE3endB7v160006Ev, symObjAddr: 0x4DA0, symBinAddr: 0x100007A20, symSize: 0x30 }
  - { offsetInCU: 0x263D8, offset: 0x263D8, size: 0x8, addend: 0x0, symName: __ZNKSt3__111__wrap_iterIPNS_5tupleIJiii9DirectionEEEEdeB7v160006Ev, symObjAddr: 0x4E04, symBinAddr: 0x100007A84, symSize: 0x18 }
  - { offsetInCU: 0x263FE, offset: 0x263FE, size: 0x8, addend: 0x0, symName: __ZNSt3__112basic_stringIcNS_11char_traitsIcEENS_9allocatorIcEEEixB7v160006Em, symObjAddr: 0x4EB8, symBinAddr: 0x100007B38, symSize: 0x30 }
  - { offsetInCU: 0x26433, offset: 0x26433, size: 0x8, addend: 0x0, symName: __ZNSt3__15tupleIJiiii9DirectionEEC1B7v160006IJRiS4_S4_S4_RS1_ELi0EEEDpOT_, symObjAddr: 0x4EE8, symBinAddr: 0x100007B68, symSize: 0x54 }
  - { offsetInCU: 0x264CD, offset: 0x264CD, size: 0x8, addend: 0x0, symName: __ZNSt3__111__wrap_iterIPNS_5tupleIJiii9DirectionEEEEppB7v160006Ev, symObjAddr: 0x4F3C, symBinAddr: 0x100007BBC, symSize: 0x20 }
  - { offsetInCU: 0x264F3, offset: 0x264F3, size: 0x8, addend: 0x0, symName: __ZNSt3__16vectorINS_5tupleIJiii9DirectionEEENS_9allocatorIS3_EEED1B7v160006Ev, symObjAddr: 0x4F5C, symBinAddr: 0x100007BDC, symSize: 0x2C }
  - { offsetInCU: 0x2651D, offset: 0x2651D, size: 0x8, addend: 0x0, symName: __ZNKSt16initializer_listIiE5beginB7v160006Ev, symObjAddr: 0x4F88, symBinAddr: 0x100007C08, symSize: 0x18 }
  - { offsetInCU: 0x26543, offset: 0x26543, size: 0x8, addend: 0x0, symName: __ZNKSt16initializer_listIiE3endB7v160006Ev, symObjAddr: 0x4FA0, symBinAddr: 0x100007C20, symSize: 0x20 }
  - { offsetInCU: 0x26569, offset: 0x26569, size: 0x8, addend: 0x0, symName: __ZNSt3__16vectorINS0_INS0_INS0_IiNS_9allocatorIiEEEENS1_IS3_EEEENS1_IS5_EEEENS1_IS7_EEED1B7v160006Ev, symObjAddr: 0x4FEC, symBinAddr: 0x100007C6C, symSize: 0x2C }
  - { offsetInCU: 0x26593, offset: 0x26593, size: 0x8, addend: 0x0, symName: __ZNSt3__114priority_queueINS_5tupleIJiiii9DirectionEEENS_6vectorIS3_NS_9allocatorIS3_EEEENS_4lessIS3_EEED1Ev, symObjAddr: 0x5018, symBinAddr: 0x100007C98, symSize: 0x2C }
  - { offsetInCU: 0x265C0, offset: 0x265C0, size: 0x8, addend: 0x0, symName: __ZNSt3__114priority_queueINS_5tupleIJiiii9DirectionEEENS_6vectorIS3_NS_9allocatorIS3_EEEENS_4lessIS3_EEEC2B7v160006Ev, symObjAddr: 0x5044, symBinAddr: 0x100007CC4, symSize: 0x2C }
  - { offsetInCU: 0x265EA, offset: 0x265EA, size: 0x8, addend: 0x0, symName: __ZNSt3__16vectorINS_5tupleIJiiii9DirectionEEENS_9allocatorIS3_EEEC1B7v160006Ev, symObjAddr: 0x5070, symBinAddr: 0x100007CF0, symSize: 0x2C }
  - { offsetInCU: 0x26614, offset: 0x26614, size: 0x8, addend: 0x0, symName: __ZNSt3__16vectorINS_5tupleIJiiii9DirectionEEENS_9allocatorIS3_EEEC2B7v160006Ev, symObjAddr: 0x509C, symBinAddr: 0x100007D1C, symSize: 0x58 }
  - { offsetInCU: 0x2663E, offset: 0x2663E, size: 0x8, addend: 0x0, symName: __ZNSt3__117__compressed_pairIPNS_5tupleIJiiii9DirectionEEENS_9allocatorIS3_EEEC1B7v160006IDnNS_18__default_init_tagEEEOT_OT0_, symObjAddr: 0x50F4, symBinAddr: 0x100007D74, symSize: 0x3C }
  - { offsetInCU: 0x26696, offset: 0x26696, size: 0x8, addend: 0x0, symName: __ZNSt3__117__compressed_pairIPNS_5tupleIJiiii9DirectionEEENS_9allocatorIS3_EEEC2B7v160006IDnNS_18__default_init_tagEEEOT_OT0_, symObjAddr: 0x5140, symBinAddr: 0x100007DC0, symSize: 0x40 }
  - { offsetInCU: 0x266EE, offset: 0x266EE, size: 0x8, addend: 0x0, symName: __ZNSt3__122__compressed_pair_elemIPNS_5tupleIJiiii9DirectionEEELi0ELb0EEC2B7v160006IDnvEEOT_, symObjAddr: 0x5180, symBinAddr: 0x100007E00, symSize: 0x1C }
  - { offsetInCU: 0x26730, offset: 0x26730, size: 0x8, addend: 0x0, symName: __ZNSt3__122__compressed_pair_elemINS_9allocatorINS_5tupleIJiiii9DirectionEEEEELi1ELb1EEC2B7v160006ENS_18__default_init_tagE, symObjAddr: 0x519C, symBinAddr: 0x100007E1C, symSize: 0x2C }
  - { offsetInCU: 0x26764, offset: 0x26764, size: 0x8, addend: 0x0, symName: __ZNSt3__19allocatorINS_5tupleIJiiii9DirectionEEEEC2B7v160006Ev, symObjAddr: 0x51C8, symBinAddr: 0x100007E48, symSize: 0x2C }
  - { offsetInCU: 0x2678E, offset: 0x2678E, size: 0x8, addend: 0x0, symName: __ZNSt3__116__non_trivial_ifILb1ENS_9allocatorINS_5tupleIJiiii9DirectionEEEEEEC2B7v160006Ev, symObjAddr: 0x51F4, symBinAddr: 0x100007E74, symSize: 0x14 }
  - { offsetInCU: 0x267B8, offset: 0x267B8, size: 0x8, addend: 0x0, symName: __ZNSt3__16vectorIiNS_9allocatorIiEEEC2EmRKi, symObjAddr: 0x5208, symBinAddr: 0x100007E88, symSize: 0xE8 }
  - { offsetInCU: 0x26817, offset: 0x26817, size: 0x8, addend: 0x0, symName: __ZNSt3__117__compressed_pairIPiNS_9allocatorIiEEEC1B7v160006IDnNS_18__default_init_tagEEEOT_OT0_, symObjAddr: 0x52F0, symBinAddr: 0x100007F70, symSize: 0x3C }
  - { offsetInCU: 0x2686F, offset: 0x2686F, size: 0x8, addend: 0x0, symName: __ZNSt3__16vectorIiNS_9allocatorIiEEE16__destroy_vectorC1ERS3_, symObjAddr: 0x536C, symBinAddr: 0x100007FEC, symSize: 0x34 }
  - { offsetInCU: 0x268A8, offset: 0x268A8, size: 0x8, addend: 0x0, symName: __ZNSt3__16vectorIiNS_9allocatorIiEEE11__vallocateB7v160006Em, symObjAddr: 0x53B0, symBinAddr: 0x100008030, symSize: 0xAC }
  - { offsetInCU: 0x268EC, offset: 0x268EC, size: 0x8, addend: 0x0, symName: __ZNSt3__16vectorIiNS_9allocatorIiEEE18__construct_at_endEmRKi, symObjAddr: 0x545C, symBinAddr: 0x1000080DC, symSize: 0xD0 }
  - { offsetInCU: 0x2696D, offset: 0x2696D, size: 0x8, addend: 0x0, symName: __ZNSt3__128__exception_guard_exceptionsINS_6vectorIiNS_9allocatorIiEEE16__destroy_vectorEE10__completeB7v160006Ev, symObjAddr: 0x552C, symBinAddr: 0x1000081AC, symSize: 0x1C }
  - { offsetInCU: 0x26993, offset: 0x26993, size: 0x8, addend: 0x0, symName: __ZNSt3__128__exception_guard_exceptionsINS_6vectorIiNS_9allocatorIiEEE16__destroy_vectorEED1B7v160006Ev, symObjAddr: 0x5548, symBinAddr: 0x1000081C8, symSize: 0x2C }
  - { offsetInCU: 0x269BD, offset: 0x269BD, size: 0x8, addend: 0x0, symName: __ZNSt3__117__compressed_pairIPiNS_9allocatorIiEEEC2B7v160006IDnNS_18__default_init_tagEEEOT_OT0_, symObjAddr: 0x5574, symBinAddr: 0x1000081F4, symSize: 0x40 }
  - { offsetInCU: 0x26A15, offset: 0x26A15, size: 0x8, addend: 0x0, symName: __ZNSt3__122__compressed_pair_elemIPiLi0ELb0EEC2B7v160006IDnvEEOT_, symObjAddr: 0x55B4, symBinAddr: 0x100008234, symSize: 0x1C }
  - { offsetInCU: 0x26A57, offset: 0x26A57, size: 0x8, addend: 0x0, symName: __ZNSt3__122__compressed_pair_elemINS_9allocatorIiEELi1ELb1EEC2B7v160006ENS_18__default_init_tagE, symObjAddr: 0x55D0, symBinAddr: 0x100008250, symSize: 0x2C }
  - { offsetInCU: 0x26A8B, offset: 0x26A8B, size: 0x8, addend: 0x0, symName: __ZNSt3__19allocatorIiEC2B7v160006Ev, symObjAddr: 0x55FC, symBinAddr: 0x10000827C, symSize: 0x2C }
  - { offsetInCU: 0x26AB5, offset: 0x26AB5, size: 0x8, addend: 0x0, symName: __ZNSt3__116__non_trivial_ifILb1ENS_9allocatorIiEEEC2B7v160006Ev, symObjAddr: 0x5628, symBinAddr: 0x1000082A8, symSize: 0x14 }
  - { offsetInCU: 0x26ADF, offset: 0x26ADF, size: 0x8, addend: 0x0, symName: __ZNSt3__128__exception_guard_exceptionsINS_6vectorIiNS_9allocatorIiEEE16__destroy_vectorEEC1B7v160006ES5_, symObjAddr: 0x563C, symBinAddr: 0x1000082BC, symSize: 0x34 }
  - { offsetInCU: 0x26B17, offset: 0x26B17, size: 0x8, addend: 0x0, symName: __ZNSt3__128__exception_guard_exceptionsINS_6vectorIiNS_9allocatorIiEEE16__destroy_vectorEEC2B7v160006ES5_, symObjAddr: 0x5670, symBinAddr: 0x1000082F0, symSize: 0x24 }
  - { offsetInCU: 0x26B4F, offset: 0x26B4F, size: 0x8, addend: 0x0, symName: __ZNSt3__16vectorIiNS_9allocatorIiEEE16__destroy_vectorC2ERS3_, symObjAddr: 0x5694, symBinAddr: 0x100008314, symSize: 0x20 }
  - { offsetInCU: 0x26B88, offset: 0x26B88, size: 0x8, addend: 0x0, symName: __ZNKSt3__16vectorIiNS_9allocatorIiEEE8max_sizeEv, symObjAddr: 0x56B4, symBinAddr: 0x100008334, symSize: 0x60 }
  - { offsetInCU: 0x26BB0, offset: 0x26BB0, size: 0x8, addend: 0x0, symName: __ZNKSt3__16vectorIiNS_9allocatorIiEEE20__throw_length_errorB7v160006Ev, symObjAddr: 0x5714, symBinAddr: 0x100008394, symSize: 0x1C }
  - { offsetInCU: 0x26BD6, offset: 0x26BD6, size: 0x8, addend: 0x0, symName: __ZNSt3__16vectorIiNS_9allocatorIiEEE7__allocB7v160006Ev, symObjAddr: 0x5770, symBinAddr: 0x1000083F0, symSize: 0x28 }
  - { offsetInCU: 0x26BFC, offset: 0x26BFC, size: 0x8, addend: 0x0, symName: __ZNSt3__16vectorIiNS_9allocatorIiEEE9__end_capB7v160006Ev, symObjAddr: 0x5798, symBinAddr: 0x100008418, symSize: 0x28 }
  - { offsetInCU: 0x26C22, offset: 0x26C22, size: 0x8, addend: 0x0, symName: __ZNKSt3__16vectorIiNS_9allocatorIiEEE14__annotate_newB7v160006Em, symObjAddr: 0x57C0, symBinAddr: 0x100008440, symSize: 0xAC }
  - { offsetInCU: 0x26C62, offset: 0x26C62, size: 0x8, addend: 0x0, symName: __ZNSt3__116allocator_traitsINS_9allocatorIiEEE8max_sizeB7v160006IS2_vvEEmRKS2_, symObjAddr: 0x586C, symBinAddr: 0x1000084EC, symSize: 0x28 }
  - { offsetInCU: 0x26C8D, offset: 0x26C8D, size: 0x8, addend: 0x0, symName: __ZNKSt3__16vectorIiNS_9allocatorIiEEE7__allocB7v160006Ev, symObjAddr: 0x5894, symBinAddr: 0x100008514, symSize: 0x28 }
  - { offsetInCU: 0x26CB3, offset: 0x26CB3, size: 0x8, addend: 0x0, symName: __ZNKSt3__117__compressed_pairIPiNS_9allocatorIiEEE6secondB7v160006Ev, symObjAddr: 0x58BC, symBinAddr: 0x10000853C, symSize: 0x24 }
  - { offsetInCU: 0x26CD9, offset: 0x26CD9, size: 0x8, addend: 0x0, symName: __ZNKSt3__122__compressed_pair_elemINS_9allocatorIiEELi1ELb1EE5__getB7v160006Ev, symObjAddr: 0x58E0, symBinAddr: 0x100008560, symSize: 0x14 }
  - { offsetInCU: 0x26CFF, offset: 0x26CFF, size: 0x8, addend: 0x0, symName: __ZNSt3__19allocatorIiE8allocateB7v160006Em, symObjAddr: 0x58F4, symBinAddr: 0x100008574, symSize: 0x58 }
  - { offsetInCU: 0x26D33, offset: 0x26D33, size: 0x8, addend: 0x0, symName: __ZNSt3__117__compressed_pairIPiNS_9allocatorIiEEE6secondB7v160006Ev, symObjAddr: 0x594C, symBinAddr: 0x1000085CC, symSize: 0x24 }
  - { offsetInCU: 0x26D59, offset: 0x26D59, size: 0x8, addend: 0x0, symName: __ZNSt3__122__compressed_pair_elemINS_9allocatorIiEELi1ELb1EE5__getB7v160006Ev, symObjAddr: 0x5970, symBinAddr: 0x1000085F0, symSize: 0x14 }
  - { offsetInCU: 0x26D7F, offset: 0x26D7F, size: 0x8, addend: 0x0, symName: __ZNSt3__117__compressed_pairIPiNS_9allocatorIiEEE5firstB7v160006Ev, symObjAddr: 0x5984, symBinAddr: 0x100008604, symSize: 0x24 }
  - { offsetInCU: 0x26DA5, offset: 0x26DA5, size: 0x8, addend: 0x0, symName: __ZNSt3__122__compressed_pair_elemIPiLi0ELb0EE5__getB7v160006Ev, symObjAddr: 0x59A8, symBinAddr: 0x100008628, symSize: 0x14 }
  - { offsetInCU: 0x26DCB, offset: 0x26DCB, size: 0x8, addend: 0x0, symName: __ZNKSt3__16vectorIiNS_9allocatorIiEEE31__annotate_contiguous_containerB7v160006EPKvS5_S5_S5_, symObjAddr: 0x59BC, symBinAddr: 0x10000863C, symSize: 0x20 }
  - { offsetInCU: 0x26E1D, offset: 0x26E1D, size: 0x8, addend: 0x0, symName: __ZNKSt3__16vectorIiNS_9allocatorIiEEE4dataB7v160006Ev, symObjAddr: 0x59DC, symBinAddr: 0x10000865C, symSize: 0x28 }
  - { offsetInCU: 0x26E43, offset: 0x26E43, size: 0x8, addend: 0x0, symName: __ZNKSt3__16vectorIiNS_9allocatorIiEEE8capacityB7v160006Ev, symObjAddr: 0x5A04, symBinAddr: 0x100008684, symSize: 0x40 }
  - { offsetInCU: 0x26E69, offset: 0x26E69, size: 0x8, addend: 0x0, symName: __ZNKSt3__16vectorIiNS_9allocatorIiEEE9__end_capB7v160006Ev, symObjAddr: 0x5A58, symBinAddr: 0x1000086D8, symSize: 0x28 }
  - { offsetInCU: 0x26E8F, offset: 0x26E8F, size: 0x8, addend: 0x0, symName: __ZNKSt3__117__compressed_pairIPiNS_9allocatorIiEEE5firstB7v160006Ev, symObjAddr: 0x5A80, symBinAddr: 0x100008700, symSize: 0x24 }
  - { offsetInCU: 0x26EB5, offset: 0x26EB5, size: 0x8, addend: 0x0, symName: __ZNKSt3__122__compressed_pair_elemIPiLi0ELb0EE5__getB7v160006Ev, symObjAddr: 0x5AA4, symBinAddr: 0x100008724, symSize: 0x14 }
  - { offsetInCU: 0x26EF7, offset: 0x26EF7, size: 0x8, addend: 0x0, symName: __ZNSt3__16vectorIiNS_9allocatorIiEEE21_ConstructTransactionC1B7v160006ERS3_m, symObjAddr: 0x5AB8, symBinAddr: 0x100008738, symSize: 0x3C }
  - { offsetInCU: 0x26F3F, offset: 0x26F3F, size: 0x8, addend: 0x0, symName: __ZNSt3__116allocator_traitsINS_9allocatorIiEEE9constructB7v160006IiJRKiEvvEEvRS2_PT_DpOT0_, symObjAddr: 0x5AF4, symBinAddr: 0x100008774, symSize: 0x30 }
  - { offsetInCU: 0x26F93, offset: 0x26F93, size: 0x8, addend: 0x0, symName: __ZNSt3__16vectorIiNS_9allocatorIiEEE21_ConstructTransactionD1B7v160006Ev, symObjAddr: 0x5B24, symBinAddr: 0x1000087A4, symSize: 0x2C }
  - { offsetInCU: 0x26FBD, offset: 0x26FBD, size: 0x8, addend: 0x0, symName: __ZNSt3__16vectorIiNS_9allocatorIiEEE21_ConstructTransactionC2B7v160006ERS3_m, symObjAddr: 0x5B50, symBinAddr: 0x1000087D0, symSize: 0x44 }
  - { offsetInCU: 0x27005, offset: 0x27005, size: 0x8, addend: 0x0, symName: __ZNSt3__16vectorIiNS_9allocatorIiEEE21_ConstructTransactionD2B7v160006Ev, symObjAddr: 0x5BC0, symBinAddr: 0x100008840, symSize: 0x20 }
  - { offsetInCU: 0x2702F, offset: 0x2702F, size: 0x8, addend: 0x0, symName: __ZNSt3__128__exception_guard_exceptionsINS_6vectorIiNS_9allocatorIiEEE16__destroy_vectorEED2B7v160006Ev, symObjAddr: 0x5BE0, symBinAddr: 0x100008860, symSize: 0x50 }
  - { offsetInCU: 0x27059, offset: 0x27059, size: 0x8, addend: 0x0, symName: __ZNSt3__16vectorIiNS_9allocatorIiEEE16__destroy_vectorclB7v160006Ev, symObjAddr: 0x5C30, symBinAddr: 0x1000088B0, symSize: 0x9C }
  - { offsetInCU: 0x2707F, offset: 0x2707F, size: 0x8, addend: 0x0, symName: __ZNKSt3__16vectorIiNS_9allocatorIiEEE17__annotate_deleteB7v160006Ev, symObjAddr: 0x5CCC, symBinAddr: 0x10000894C, symSize: 0xB8 }
  - { offsetInCU: 0x270A5, offset: 0x270A5, size: 0x8, addend: 0x0, symName: __ZNSt3__16vectorIiNS_9allocatorIiEEE7__clearB7v160006Ev, symObjAddr: 0x5D94, symBinAddr: 0x100008A14, symSize: 0x28 }
  - { offsetInCU: 0x270CB, offset: 0x270CB, size: 0x8, addend: 0x0, symName: __ZNSt3__116allocator_traitsINS_9allocatorIiEEE10deallocateB7v160006ERS2_Pim, symObjAddr: 0x5DBC, symBinAddr: 0x100008A3C, symSize: 0x34 }
  - { offsetInCU: 0x2710D, offset: 0x2710D, size: 0x8, addend: 0x0, symName: __ZNKSt3__16vectorIiNS_9allocatorIiEEE4sizeB7v160006Ev, symObjAddr: 0x5DF0, symBinAddr: 0x100008A70, symSize: 0x28 }
  - { offsetInCU: 0x27133, offset: 0x27133, size: 0x8, addend: 0x0, symName: __ZNSt3__16vectorIiNS_9allocatorIiEEE22__base_destruct_at_endB7v160006EPi, symObjAddr: 0x5E18, symBinAddr: 0x100008A98, symSize: 0x8C }
  - { offsetInCU: 0x27177, offset: 0x27177, size: 0x8, addend: 0x0, symName: __ZNSt3__116allocator_traitsINS_9allocatorIiEEE7destroyB7v160006IivvEEvRS2_PT_, symObjAddr: 0x5EA4, symBinAddr: 0x100008B24, symSize: 0x28 }
  - { offsetInCU: 0x271B1, offset: 0x271B1, size: 0x8, addend: 0x0, symName: __ZNSt3__19allocatorIiE10deallocateB7v160006EPim, symObjAddr: 0x5F00, symBinAddr: 0x100008B80, symSize: 0x40 }
  - { offsetInCU: 0x271F3, offset: 0x271F3, size: 0x8, addend: 0x0, symName: __ZNSt3__16vectorINS0_IiNS_9allocatorIiEEEENS1_IS3_EEEC2EmRKS3_, symObjAddr: 0x5F40, symBinAddr: 0x100008BC0, symSize: 0xE8 }
  - { offsetInCU: 0x27252, offset: 0x27252, size: 0x8, addend: 0x0, symName: __ZNSt3__117__compressed_pairIPNS_6vectorIiNS_9allocatorIiEEEENS2_IS4_EEEC1B7v160006IDnNS_18__default_init_tagEEEOT_OT0_, symObjAddr: 0x6028, symBinAddr: 0x100008CA8, symSize: 0x3C }
  - { offsetInCU: 0x272AA, offset: 0x272AA, size: 0x8, addend: 0x0, symName: __ZNSt3__16vectorINS0_IiNS_9allocatorIiEEEENS1_IS3_EEE16__destroy_vectorC1ERS5_, symObjAddr: 0x60A4, symBinAddr: 0x100008D24, symSize: 0x34 }
  - { offsetInCU: 0x272E3, offset: 0x272E3, size: 0x8, addend: 0x0, symName: __ZNSt3__16vectorINS0_IiNS_9allocatorIiEEEENS1_IS3_EEE11__vallocateB7v160006Em, symObjAddr: 0x60E8, symBinAddr: 0x100008D68, symSize: 0xB4 }
  - { offsetInCU: 0x27327, offset: 0x27327, size: 0x8, addend: 0x0, symName: __ZNSt3__16vectorINS0_IiNS_9allocatorIiEEEENS1_IS3_EEE18__construct_at_endEmRKS3_, symObjAddr: 0x619C, symBinAddr: 0x100008E1C, symSize: 0xD0 }
  - { offsetInCU: 0x273A8, offset: 0x273A8, size: 0x8, addend: 0x0, symName: __ZNSt3__128__exception_guard_exceptionsINS_6vectorINS1_IiNS_9allocatorIiEEEENS2_IS4_EEE16__destroy_vectorEE10__completeB7v160006Ev, symObjAddr: 0x626C, symBinAddr: 0x100008EEC, symSize: 0x1C }
  - { offsetInCU: 0x273CE, offset: 0x273CE, size: 0x8, addend: 0x0, symName: __ZNSt3__128__exception_guard_exceptionsINS_6vectorINS1_IiNS_9allocatorIiEEEENS2_IS4_EEE16__destroy_vectorEED1B7v160006Ev, symObjAddr: 0x6288, symBinAddr: 0x100008F08, symSize: 0x2C }
  - { offsetInCU: 0x273F8, offset: 0x273F8, size: 0x8, addend: 0x0, symName: __ZNSt3__117__compressed_pairIPNS_6vectorIiNS_9allocatorIiEEEENS2_IS4_EEEC2B7v160006IDnNS_18__default_init_tagEEEOT_OT0_, symObjAddr: 0x62B4, symBinAddr: 0x100008F34, symSize: 0x40 }
  - { offsetInCU: 0x27450, offset: 0x27450, size: 0x8, addend: 0x0, symName: __ZNSt3__122__compressed_pair_elemIPNS_6vectorIiNS_9allocatorIiEEEELi0ELb0EEC2B7v160006IDnvEEOT_, symObjAddr: 0x62F4, symBinAddr: 0x100008F74, symSize: 0x1C }
  - { offsetInCU: 0x27492, offset: 0x27492, size: 0x8, addend: 0x0, symName: __ZNSt3__122__compressed_pair_elemINS_9allocatorINS_6vectorIiNS1_IiEEEEEELi1ELb1EEC2B7v160006ENS_18__default_init_tagE, symObjAddr: 0x6310, symBinAddr: 0x100008F90, symSize: 0x2C }
  - { offsetInCU: 0x274C6, offset: 0x274C6, size: 0x8, addend: 0x0, symName: __ZNSt3__19allocatorINS_6vectorIiNS0_IiEEEEEC2B7v160006Ev, symObjAddr: 0x633C, symBinAddr: 0x100008FBC, symSize: 0x2C }
  - { offsetInCU: 0x274F0, offset: 0x274F0, size: 0x8, addend: 0x0, symName: __ZNSt3__116__non_trivial_ifILb1ENS_9allocatorINS_6vectorIiNS1_IiEEEEEEEC2B7v160006Ev, symObjAddr: 0x6368, symBinAddr: 0x100008FE8, symSize: 0x14 }
  - { offsetInCU: 0x2751A, offset: 0x2751A, size: 0x8, addend: 0x0, symName: __ZNSt3__128__exception_guard_exceptionsINS_6vectorINS1_IiNS_9allocatorIiEEEENS2_IS4_EEE16__destroy_vectorEEC1B7v160006ES7_, symObjAddr: 0x637C, symBinAddr: 0x100008FFC, symSize: 0x34 }
  - { offsetInCU: 0x27552, offset: 0x27552, size: 0x8, addend: 0x0, symName: __ZNSt3__128__exception_guard_exceptionsINS_6vectorINS1_IiNS_9allocatorIiEEEENS2_IS4_EEE16__destroy_vectorEEC2B7v160006ES7_, symObjAddr: 0x63B0, symBinAddr: 0x100009030, symSize: 0x24 }
  - { offsetInCU: 0x2758A, offset: 0x2758A, size: 0x8, addend: 0x0, symName: __ZNSt3__16vectorINS0_IiNS_9allocatorIiEEEENS1_IS3_EEE16__destroy_vectorC2ERS5_, symObjAddr: 0x63D4, symBinAddr: 0x100009054, symSize: 0x20 }
  - { offsetInCU: 0x275C3, offset: 0x275C3, size: 0x8, addend: 0x0, symName: __ZNKSt3__16vectorINS0_IiNS_9allocatorIiEEEENS1_IS3_EEE8max_sizeEv, symObjAddr: 0x63F4, symBinAddr: 0x100009074, symSize: 0x60 }
  - { offsetInCU: 0x275EB, offset: 0x275EB, size: 0x8, addend: 0x0, symName: __ZNKSt3__16vectorINS0_IiNS_9allocatorIiEEEENS1_IS3_EEE20__throw_length_errorB7v160006Ev, symObjAddr: 0x6454, symBinAddr: 0x1000090D4, symSize: 0x1C }
  - { offsetInCU: 0x27611, offset: 0x27611, size: 0x8, addend: 0x0, symName: __ZNSt3__16vectorINS0_IiNS_9allocatorIiEEEENS1_IS3_EEE7__allocB7v160006Ev, symObjAddr: 0x64B0, symBinAddr: 0x100009130, symSize: 0x28 }
  - { offsetInCU: 0x27637, offset: 0x27637, size: 0x8, addend: 0x0, symName: __ZNSt3__16vectorINS0_IiNS_9allocatorIiEEEENS1_IS3_EEE9__end_capB7v160006Ev, symObjAddr: 0x64D8, symBinAddr: 0x100009158, symSize: 0x28 }
  - { offsetInCU: 0x2765D, offset: 0x2765D, size: 0x8, addend: 0x0, symName: __ZNKSt3__16vectorINS0_IiNS_9allocatorIiEEEENS1_IS3_EEE14__annotate_newB7v160006Em, symObjAddr: 0x6500, symBinAddr: 0x100009180, symSize: 0xC8 }
  - { offsetInCU: 0x2769D, offset: 0x2769D, size: 0x8, addend: 0x0, symName: __ZNSt3__116allocator_traitsINS_9allocatorINS_6vectorIiNS1_IiEEEEEEE8max_sizeB7v160006IS5_vvEEmRKS5_, symObjAddr: 0x65C8, symBinAddr: 0x100009248, symSize: 0x28 }
  - { offsetInCU: 0x276C8, offset: 0x276C8, size: 0x8, addend: 0x0, symName: __ZNKSt3__16vectorINS0_IiNS_9allocatorIiEEEENS1_IS3_EEE7__allocB7v160006Ev, symObjAddr: 0x65F0, symBinAddr: 0x100009270, symSize: 0x28 }
  - { offsetInCU: 0x276EE, offset: 0x276EE, size: 0x8, addend: 0x0, symName: __ZNKSt3__117__compressed_pairIPNS_6vectorIiNS_9allocatorIiEEEENS2_IS4_EEE6secondB7v160006Ev, symObjAddr: 0x6618, symBinAddr: 0x100009298, symSize: 0x24 }
  - { offsetInCU: 0x27714, offset: 0x27714, size: 0x8, addend: 0x0, symName: __ZNKSt3__122__compressed_pair_elemINS_9allocatorINS_6vectorIiNS1_IiEEEEEELi1ELb1EE5__getB7v160006Ev, symObjAddr: 0x663C, symBinAddr: 0x1000092BC, symSize: 0x14 }
  - { offsetInCU: 0x2773A, offset: 0x2773A, size: 0x8, addend: 0x0, symName: __ZNSt3__19allocatorINS_6vectorIiNS0_IiEEEEE8allocateB7v160006Em, symObjAddr: 0x6650, symBinAddr: 0x1000092D0, symSize: 0x5C }
  - { offsetInCU: 0x2776E, offset: 0x2776E, size: 0x8, addend: 0x0, symName: __ZNSt3__117__compressed_pairIPNS_6vectorIiNS_9allocatorIiEEEENS2_IS4_EEE6secondB7v160006Ev, symObjAddr: 0x66AC, symBinAddr: 0x10000932C, symSize: 0x24 }
  - { offsetInCU: 0x27794, offset: 0x27794, size: 0x8, addend: 0x0, symName: __ZNSt3__122__compressed_pair_elemINS_9allocatorINS_6vectorIiNS1_IiEEEEEELi1ELb1EE5__getB7v160006Ev, symObjAddr: 0x66D0, symBinAddr: 0x100009350, symSize: 0x14 }
  - { offsetInCU: 0x277BA, offset: 0x277BA, size: 0x8, addend: 0x0, symName: __ZNSt3__117__compressed_pairIPNS_6vectorIiNS_9allocatorIiEEEENS2_IS4_EEE5firstB7v160006Ev, symObjAddr: 0x66E4, symBinAddr: 0x100009364, symSize: 0x24 }
  - { offsetInCU: 0x277E0, offset: 0x277E0, size: 0x8, addend: 0x0, symName: __ZNSt3__122__compressed_pair_elemIPNS_6vectorIiNS_9allocatorIiEEEELi0ELb0EE5__getB7v160006Ev, symObjAddr: 0x6708, symBinAddr: 0x100009388, symSize: 0x14 }
  - { offsetInCU: 0x27806, offset: 0x27806, size: 0x8, addend: 0x0, symName: __ZNKSt3__16vectorINS0_IiNS_9allocatorIiEEEENS1_IS3_EEE31__annotate_contiguous_containerB7v160006EPKvS7_S7_S7_, symObjAddr: 0x671C, symBinAddr: 0x10000939C, symSize: 0x20 }
  - { offsetInCU: 0x27858, offset: 0x27858, size: 0x8, addend: 0x0, symName: __ZNKSt3__16vectorINS0_IiNS_9allocatorIiEEEENS1_IS3_EEE4dataB7v160006Ev, symObjAddr: 0x673C, symBinAddr: 0x1000093BC, symSize: 0x28 }
  - { offsetInCU: 0x2787E, offset: 0x2787E, size: 0x8, addend: 0x0, symName: __ZNKSt3__16vectorINS0_IiNS_9allocatorIiEEEENS1_IS3_EEE8capacityB7v160006Ev, symObjAddr: 0x6764, symBinAddr: 0x1000093E4, symSize: 0x40 }
  - { offsetInCU: 0x278A4, offset: 0x278A4, size: 0x8, addend: 0x0, symName: __ZNKSt3__16vectorINS0_IiNS_9allocatorIiEEEENS1_IS3_EEE9__end_capB7v160006Ev, symObjAddr: 0x67B8, symBinAddr: 0x100009438, symSize: 0x28 }
  - { offsetInCU: 0x278CA, offset: 0x278CA, size: 0x8, addend: 0x0, symName: __ZNKSt3__117__compressed_pairIPNS_6vectorIiNS_9allocatorIiEEEENS2_IS4_EEE5firstB7v160006Ev, symObjAddr: 0x67E0, symBinAddr: 0x100009460, symSize: 0x24 }
  - { offsetInCU: 0x278F0, offset: 0x278F0, size: 0x8, addend: 0x0, symName: __ZNKSt3__122__compressed_pair_elemIPNS_6vectorIiNS_9allocatorIiEEEELi0ELb0EE5__getB7v160006Ev, symObjAddr: 0x6804, symBinAddr: 0x100009484, symSize: 0x14 }
  - { offsetInCU: 0x27932, offset: 0x27932, size: 0x8, addend: 0x0, symName: __ZNSt3__16vectorINS0_IiNS_9allocatorIiEEEENS1_IS3_EEE21_ConstructTransactionC1B7v160006ERS5_m, symObjAddr: 0x6818, symBinAddr: 0x100009498, symSize: 0x3C }
  - { offsetInCU: 0x2797A, offset: 0x2797A, size: 0x8, addend: 0x0, symName: __ZNSt3__116allocator_traitsINS_9allocatorINS_6vectorIiNS1_IiEEEEEEE9constructB7v160006IS4_JRKS4_EvvEEvRS5_PT_DpOT0_, symObjAddr: 0x6854, symBinAddr: 0x1000094D4, symSize: 0x30 }
  - { offsetInCU: 0x279CE, offset: 0x279CE, size: 0x8, addend: 0x0, symName: __ZNSt3__16vectorINS0_IiNS_9allocatorIiEEEENS1_IS3_EEE21_ConstructTransactionD1B7v160006Ev, symObjAddr: 0x6884, symBinAddr: 0x100009504, symSize: 0x2C }
  - { offsetInCU: 0x279F8, offset: 0x279F8, size: 0x8, addend: 0x0, symName: __ZNSt3__16vectorINS0_IiNS_9allocatorIiEEEENS1_IS3_EEE21_ConstructTransactionC2B7v160006ERS5_m, symObjAddr: 0x68B0, symBinAddr: 0x100009530, symSize: 0x4C }
  - { offsetInCU: 0x27A40, offset: 0x27A40, size: 0x8, addend: 0x0, symName: __ZNSt3__16vectorIiNS_9allocatorIiEEEC1ERKS3_, symObjAddr: 0x6938, symBinAddr: 0x1000095B8, symSize: 0x34 }
  - { offsetInCU: 0x27A7B, offset: 0x27A7B, size: 0x8, addend: 0x0, symName: __ZNSt3__16vectorIiNS_9allocatorIiEEEC2ERKS3_, symObjAddr: 0x696C, symBinAddr: 0x1000095EC, symSize: 0x110 }
  - { offsetInCU: 0x27ADA, offset: 0x27ADA, size: 0x8, addend: 0x0, symName: __ZNSt3__116allocator_traitsINS_9allocatorIiEEE37select_on_container_copy_constructionB7v160006IS2_vvEES2_RKS2_, symObjAddr: 0x6A7C, symBinAddr: 0x1000096FC, symSize: 0x10 }
  - { offsetInCU: 0x27B0F, offset: 0x27B0F, size: 0x8, addend: 0x0, symName: __ZNSt3__117__compressed_pairIPiNS_9allocatorIiEEEC1B7v160006IDnS3_EEOT_OT0_, symObjAddr: 0x6A8C, symBinAddr: 0x10000970C, symSize: 0x3C }
  - { offsetInCU: 0x27B67, offset: 0x27B67, size: 0x8, addend: 0x0, symName: __ZNSt3__16vectorIiNS_9allocatorIiEEE18__construct_at_endIPiLi0EEEvT_S6_m, symObjAddr: 0x6AC8, symBinAddr: 0x100009748, symSize: 0x8C }
  - { offsetInCU: 0x27BDA, offset: 0x27BDA, size: 0x8, addend: 0x0, symName: __ZNSt3__117__compressed_pairIPiNS_9allocatorIiEEEC2B7v160006IDnS3_EEOT_OT0_, symObjAddr: 0x6B54, symBinAddr: 0x1000097D4, symSize: 0x44 }
  - { offsetInCU: 0x27C32, offset: 0x27C32, size: 0x8, addend: 0x0, symName: __ZNSt3__122__compressed_pair_elemINS_9allocatorIiEELi1ELb1EEC2B7v160006IS2_vEEOT_, symObjAddr: 0x6B98, symBinAddr: 0x100009818, symSize: 0x18 }
  - { offsetInCU: 0x27C74, offset: 0x27C74, size: 0x8, addend: 0x0, symName: __ZNSt3__129_AllocatorDestroyRangeReverseINS_9allocatorIiEEPiEC1B7v160006ERS2_RS3_S6_, symObjAddr: 0x6CF0, symBinAddr: 0x100009970, symSize: 0x44 }
  - { offsetInCU: 0x27CCB, offset: 0x27CCB, size: 0x8, addend: 0x0, symName: __ZNSt3__116allocator_traitsINS_9allocatorIiEEE9constructB7v160006IiJRiEvvEEvRS2_PT_DpOT0_, symObjAddr: 0x6D34, symBinAddr: 0x1000099B4, symSize: 0x30 }
  - { offsetInCU: 0x27D1F, offset: 0x27D1F, size: 0x8, addend: 0x0, symName: __ZNSt3__128__exception_guard_exceptionsINS_29_AllocatorDestroyRangeReverseINS_9allocatorIiEEPiEEE10__completeB7v160006Ev, symObjAddr: 0x6D64, symBinAddr: 0x1000099E4, symSize: 0x1C }
  - { offsetInCU: 0x27D45, offset: 0x27D45, size: 0x8, addend: 0x0, symName: __ZNSt3__128__exception_guard_exceptionsINS_29_AllocatorDestroyRangeReverseINS_9allocatorIiEEPiEEED1B7v160006Ev, symObjAddr: 0x6D80, symBinAddr: 0x100009A00, symSize: 0x2C }
  - { offsetInCU: 0x27D6F, offset: 0x27D6F, size: 0x8, addend: 0x0, symName: __ZNSt3__128__exception_guard_exceptionsINS_29_AllocatorDestroyRangeReverseINS_9allocatorIiEEPiEEEC1B7v160006ES5_, symObjAddr: 0x6DAC, symBinAddr: 0x100009A2C, symSize: 0x34 }
  - { offsetInCU: 0x27DA8, offset: 0x27DA8, size: 0x8, addend: 0x0, symName: __ZNSt3__128__exception_guard_exceptionsINS_29_AllocatorDestroyRangeReverseINS_9allocatorIiEEPiEEEC2B7v160006ES5_, symObjAddr: 0x6DE0, symBinAddr: 0x100009A60, symSize: 0x30 }
  - { offsetInCU: 0x27DE1, offset: 0x27DE1, size: 0x8, addend: 0x0, symName: __ZNSt3__129_AllocatorDestroyRangeReverseINS_9allocatorIiEEPiEC2B7v160006ERS2_RS3_S6_, symObjAddr: 0x6E10, symBinAddr: 0x100009A90, symSize: 0x38 }
  - { offsetInCU: 0x27E38, offset: 0x27E38, size: 0x8, addend: 0x0, symName: __ZNSt3__128__exception_guard_exceptionsINS_29_AllocatorDestroyRangeReverseINS_9allocatorIiEEPiEEED2B7v160006Ev, symObjAddr: 0x6E74, symBinAddr: 0x100009AF4, symSize: 0x50 }
  - { offsetInCU: 0x27E62, offset: 0x27E62, size: 0x8, addend: 0x0, symName: __ZNKSt3__129_AllocatorDestroyRangeReverseINS_9allocatorIiEEPiEclB7v160006Ev, symObjAddr: 0x6EC4, symBinAddr: 0x100009B44, symSize: 0x68 }
  - { offsetInCU: 0x27E88, offset: 0x27E88, size: 0x8, addend: 0x0, symName: __ZNSt3__116reverse_iteratorIPiEC1B7v160006ES1_, symObjAddr: 0x6F9C, symBinAddr: 0x100009C1C, symSize: 0x34 }
  - { offsetInCU: 0x27EC0, offset: 0x27EC0, size: 0x8, addend: 0x0, symName: __ZNSt3__116reverse_iteratorIPiEppB7v160006Ev, symObjAddr: 0x703C, symBinAddr: 0x100009CBC, symSize: 0x20 }
  - { offsetInCU: 0x27EE6, offset: 0x27EE6, size: 0x8, addend: 0x0, symName: __ZNKSt3__116reverse_iteratorIPiE4baseB7v160006Ev, symObjAddr: 0x705C, symBinAddr: 0x100009CDC, symSize: 0x18 }
  - { offsetInCU: 0x27F12, offset: 0x27F12, size: 0x8, addend: 0x0, symName: __ZNSt3__119__to_address_helperINS_16reverse_iteratorIPiEEvE6__callB7v160006ERKS3_, symObjAddr: 0x7074, symBinAddr: 0x100009CF4, symSize: 0x38 }
  - { offsetInCU: 0x27F35, offset: 0x27F35, size: 0x8, addend: 0x0, symName: __ZNKSt3__116reverse_iteratorIPiEptB7v160006Ev, symObjAddr: 0x70AC, symBinAddr: 0x100009D2C, symSize: 0x2C }
  - { offsetInCU: 0x27F5B, offset: 0x27F5B, size: 0x8, addend: 0x0, symName: __ZNSt3__116reverse_iteratorIPiEC2B7v160006ES1_, symObjAddr: 0x71A0, symBinAddr: 0x100009E20, symSize: 0x28 }
  - { offsetInCU: 0x27F93, offset: 0x27F93, size: 0x8, addend: 0x0, symName: __ZNSt3__16vectorINS0_IiNS_9allocatorIiEEEENS1_IS3_EEE21_ConstructTransactionD2B7v160006Ev, symObjAddr: 0x71C8, symBinAddr: 0x100009E48, symSize: 0x20 }
  - { offsetInCU: 0x27FBD, offset: 0x27FBD, size: 0x8, addend: 0x0, symName: __ZNSt3__128__exception_guard_exceptionsINS_6vectorINS1_IiNS_9allocatorIiEEEENS2_IS4_EEE16__destroy_vectorEED2B7v160006Ev, symObjAddr: 0x71E8, symBinAddr: 0x100009E68, symSize: 0x50 }
  - { offsetInCU: 0x27FE7, offset: 0x27FE7, size: 0x8, addend: 0x0, symName: __ZNSt3__16vectorINS0_IiNS_9allocatorIiEEEENS1_IS3_EEE16__destroy_vectorclB7v160006Ev, symObjAddr: 0x7238, symBinAddr: 0x100009EB8, symSize: 0x9C }
  - { offsetInCU: 0x2800D, offset: 0x2800D, size: 0x8, addend: 0x0, symName: __ZNKSt3__16vectorINS0_IiNS_9allocatorIiEEEENS1_IS3_EEE17__annotate_deleteB7v160006Ev, symObjAddr: 0x72D4, symBinAddr: 0x100009F54, symSize: 0xD4 }
  - { offsetInCU: 0x28033, offset: 0x28033, size: 0x8, addend: 0x0, symName: __ZNSt3__16vectorINS0_IiNS_9allocatorIiEEEENS1_IS3_EEE7__clearB7v160006Ev, symObjAddr: 0x73B8, symBinAddr: 0x10000A038, symSize: 0x28 }
  - { offsetInCU: 0x28059, offset: 0x28059, size: 0x8, addend: 0x0, symName: __ZNSt3__116allocator_traitsINS_9allocatorINS_6vectorIiNS1_IiEEEEEEE10deallocateB7v160006ERS5_PS4_m, symObjAddr: 0x73E0, symBinAddr: 0x10000A060, symSize: 0x34 }
  - { offsetInCU: 0x2809B, offset: 0x2809B, size: 0x8, addend: 0x0, symName: __ZNKSt3__16vectorINS0_IiNS_9allocatorIiEEEENS1_IS3_EEE4sizeB7v160006Ev, symObjAddr: 0x7414, symBinAddr: 0x10000A094, symSize: 0x28 }
  - { offsetInCU: 0x280C1, offset: 0x280C1, size: 0x8, addend: 0x0, symName: __ZNSt3__16vectorINS0_IiNS_9allocatorIiEEEENS1_IS3_EEE22__base_destruct_at_endB7v160006EPS3_, symObjAddr: 0x743C, symBinAddr: 0x10000A0BC, symSize: 0x8C }
  - { offsetInCU: 0x28105, offset: 0x28105, size: 0x8, addend: 0x0, symName: __ZNSt3__116allocator_traitsINS_9allocatorINS_6vectorIiNS1_IiEEEEEEE7destroyB7v160006IS4_vvEEvRS5_PT_, symObjAddr: 0x74C8, symBinAddr: 0x10000A148, symSize: 0x28 }
  - { offsetInCU: 0x2813F, offset: 0x2813F, size: 0x8, addend: 0x0, symName: __ZNSt3__19allocatorINS_6vectorIiNS0_IiEEEEE10deallocateB7v160006EPS3_m, symObjAddr: 0x7538, symBinAddr: 0x10000A1B8, symSize: 0x44 }
  - { offsetInCU: 0x28181, offset: 0x28181, size: 0x8, addend: 0x0, symName: __ZNSt3__16vectorINS0_INS0_IiNS_9allocatorIiEEEENS1_IS3_EEEENS1_IS5_EEEC2EmRKS5_, symObjAddr: 0x757C, symBinAddr: 0x10000A1FC, symSize: 0xE8 }
  - { offsetInCU: 0x281E0, offset: 0x281E0, size: 0x8, addend: 0x0, symName: __ZNSt3__117__compressed_pairIPNS_6vectorINS1_IiNS_9allocatorIiEEEENS2_IS4_EEEENS2_IS6_EEEC1B7v160006IDnNS_18__default_init_tagEEEOT_OT0_, symObjAddr: 0x7664, symBinAddr: 0x10000A2E4, symSize: 0x3C }
  - { offsetInCU: 0x28238, offset: 0x28238, size: 0x8, addend: 0x0, symName: __ZNSt3__16vectorINS0_INS0_IiNS_9allocatorIiEEEENS1_IS3_EEEENS1_IS5_EEE16__destroy_vectorC1ERS7_, symObjAddr: 0x76E0, symBinAddr: 0x10000A360, symSize: 0x34 }
  - { offsetInCU: 0x28271, offset: 0x28271, size: 0x8, addend: 0x0, symName: __ZNSt3__16vectorINS0_INS0_IiNS_9allocatorIiEEEENS1_IS3_EEEENS1_IS5_EEE11__vallocateB7v160006Em, symObjAddr: 0x7724, symBinAddr: 0x10000A3A4, symSize: 0xB4 }
  - { offsetInCU: 0x282B5, offset: 0x282B5, size: 0x8, addend: 0x0, symName: __ZNSt3__16vectorINS0_INS0_IiNS_9allocatorIiEEEENS1_IS3_EEEENS1_IS5_EEE18__construct_at_endEmRKS5_, symObjAddr: 0x77D8, symBinAddr: 0x10000A458, symSize: 0xD0 }
  - { offsetInCU: 0x28336, offset: 0x28336, size: 0x8, addend: 0x0, symName: __ZNSt3__128__exception_guard_exceptionsINS_6vectorINS1_INS1_IiNS_9allocatorIiEEEENS2_IS4_EEEENS2_IS6_EEE16__destroy_vectorEE10__completeB7v160006Ev, symObjAddr: 0x78A8, symBinAddr: 0x10000A528, symSize: 0x1C }
  - { offsetInCU: 0x2835C, offset: 0x2835C, size: 0x8, addend: 0x0, symName: __ZNSt3__128__exception_guard_exceptionsINS_6vectorINS1_INS1_IiNS_9allocatorIiEEEENS2_IS4_EEEENS2_IS6_EEE16__destroy_vectorEED1B7v160006Ev, symObjAddr: 0x78C4, symBinAddr: 0x10000A544, symSize: 0x2C }
  - { offsetInCU: 0x28386, offset: 0x28386, size: 0x8, addend: 0x0, symName: __ZNSt3__117__compressed_pairIPNS_6vectorINS1_IiNS_9allocatorIiEEEENS2_IS4_EEEENS2_IS6_EEEC2B7v160006IDnNS_18__default_init_tagEEEOT_OT0_, symObjAddr: 0x78F0, symBinAddr: 0x10000A570, symSize: 0x40 }
  - { offsetInCU: 0x283DE, offset: 0x283DE, size: 0x8, addend: 0x0, symName: __ZNSt3__122__compressed_pair_elemIPNS_6vectorINS1_IiNS_9allocatorIiEEEENS2_IS4_EEEELi0ELb0EEC2B7v160006IDnvEEOT_, symObjAddr: 0x7930, symBinAddr: 0x10000A5B0, symSize: 0x1C }
  - { offsetInCU: 0x28420, offset: 0x28420, size: 0x8, addend: 0x0, symName: __ZNSt3__122__compressed_pair_elemINS_9allocatorINS_6vectorINS2_IiNS1_IiEEEENS1_IS4_EEEEEELi1ELb1EEC2B7v160006ENS_18__default_init_tagE, symObjAddr: 0x794C, symBinAddr: 0x10000A5CC, symSize: 0x2C }
  - { offsetInCU: 0x28454, offset: 0x28454, size: 0x8, addend: 0x0, symName: __ZNSt3__19allocatorINS_6vectorINS1_IiNS0_IiEEEENS0_IS3_EEEEEC2B7v160006Ev, symObjAddr: 0x7978, symBinAddr: 0x10000A5F8, symSize: 0x2C }
  - { offsetInCU: 0x2847E, offset: 0x2847E, size: 0x8, addend: 0x0, symName: __ZNSt3__116__non_trivial_ifILb1ENS_9allocatorINS_6vectorINS2_IiNS1_IiEEEENS1_IS4_EEEEEEEC2B7v160006Ev, symObjAddr: 0x79A4, symBinAddr: 0x10000A624, symSize: 0x14 }
  - { offsetInCU: 0x284A8, offset: 0x284A8, size: 0x8, addend: 0x0, symName: __ZNSt3__128__exception_guard_exceptionsINS_6vectorINS1_INS1_IiNS_9allocatorIiEEEENS2_IS4_EEEENS2_IS6_EEE16__destroy_vectorEEC1B7v160006ES9_, symObjAddr: 0x79B8, symBinAddr: 0x10000A638, symSize: 0x34 }
  - { offsetInCU: 0x284E0, offset: 0x284E0, size: 0x8, addend: 0x0, symName: __ZNSt3__128__exception_guard_exceptionsINS_6vectorINS1_INS1_IiNS_9allocatorIiEEEENS2_IS4_EEEENS2_IS6_EEE16__destroy_vectorEEC2B7v160006ES9_, symObjAddr: 0x79EC, symBinAddr: 0x10000A66C, symSize: 0x24 }
  - { offsetInCU: 0x28518, offset: 0x28518, size: 0x8, addend: 0x0, symName: __ZNSt3__16vectorINS0_INS0_IiNS_9allocatorIiEEEENS1_IS3_EEEENS1_IS5_EEE16__destroy_vectorC2ERS7_, symObjAddr: 0x7A10, symBinAddr: 0x10000A690, symSize: 0x20 }
  - { offsetInCU: 0x28551, offset: 0x28551, size: 0x8, addend: 0x0, symName: __ZNKSt3__16vectorINS0_INS0_IiNS_9allocatorIiEEEENS1_IS3_EEEENS1_IS5_EEE8max_sizeEv, symObjAddr: 0x7A30, symBinAddr: 0x10000A6B0, symSize: 0x60 }
  - { offsetInCU: 0x28579, offset: 0x28579, size: 0x8, addend: 0x0, symName: __ZNKSt3__16vectorINS0_INS0_IiNS_9allocatorIiEEEENS1_IS3_EEEENS1_IS5_EEE20__throw_length_errorB7v160006Ev, symObjAddr: 0x7A90, symBinAddr: 0x10000A710, symSize: 0x1C }
  - { offsetInCU: 0x2859F, offset: 0x2859F, size: 0x8, addend: 0x0, symName: __ZNSt3__16vectorINS0_INS0_IiNS_9allocatorIiEEEENS1_IS3_EEEENS1_IS5_EEE7__allocB7v160006Ev, symObjAddr: 0x7AEC, symBinAddr: 0x10000A76C, symSize: 0x28 }
  - { offsetInCU: 0x285C5, offset: 0x285C5, size: 0x8, addend: 0x0, symName: __ZNSt3__16vectorINS0_INS0_IiNS_9allocatorIiEEEENS1_IS3_EEEENS1_IS5_EEE9__end_capB7v160006Ev, symObjAddr: 0x7B14, symBinAddr: 0x10000A794, symSize: 0x28 }
  - { offsetInCU: 0x285EB, offset: 0x285EB, size: 0x8, addend: 0x0, symName: __ZNKSt3__16vectorINS0_INS0_IiNS_9allocatorIiEEEENS1_IS3_EEEENS1_IS5_EEE14__annotate_newB7v160006Em, symObjAddr: 0x7B3C, symBinAddr: 0x10000A7BC, symSize: 0xC8 }
  - { offsetInCU: 0x2862B, offset: 0x2862B, size: 0x8, addend: 0x0, symName: __ZNSt3__116allocator_traitsINS_9allocatorINS_6vectorINS2_IiNS1_IiEEEENS1_IS4_EEEEEEE8max_sizeB7v160006IS7_vvEEmRKS7_, symObjAddr: 0x7C04, symBinAddr: 0x10000A884, symSize: 0x28 }
  - { offsetInCU: 0x28656, offset: 0x28656, size: 0x8, addend: 0x0, symName: __ZNKSt3__16vectorINS0_INS0_IiNS_9allocatorIiEEEENS1_IS3_EEEENS1_IS5_EEE7__allocB7v160006Ev, symObjAddr: 0x7C2C, symBinAddr: 0x10000A8AC, symSize: 0x28 }
  - { offsetInCU: 0x2867C, offset: 0x2867C, size: 0x8, addend: 0x0, symName: __ZNKSt3__117__compressed_pairIPNS_6vectorINS1_IiNS_9allocatorIiEEEENS2_IS4_EEEENS2_IS6_EEE6secondB7v160006Ev, symObjAddr: 0x7C54, symBinAddr: 0x10000A8D4, symSize: 0x24 }
  - { offsetInCU: 0x286A2, offset: 0x286A2, size: 0x8, addend: 0x0, symName: __ZNKSt3__122__compressed_pair_elemINS_9allocatorINS_6vectorINS2_IiNS1_IiEEEENS1_IS4_EEEEEELi1ELb1EE5__getB7v160006Ev, symObjAddr: 0x7C78, symBinAddr: 0x10000A8F8, symSize: 0x14 }
  - { offsetInCU: 0x286C8, offset: 0x286C8, size: 0x8, addend: 0x0, symName: __ZNSt3__19allocatorINS_6vectorINS1_IiNS0_IiEEEENS0_IS3_EEEEE8allocateB7v160006Em, symObjAddr: 0x7C8C, symBinAddr: 0x10000A90C, symSize: 0x5C }
  - { offsetInCU: 0x286FC, offset: 0x286FC, size: 0x8, addend: 0x0, symName: __ZNSt3__117__compressed_pairIPNS_6vectorINS1_IiNS_9allocatorIiEEEENS2_IS4_EEEENS2_IS6_EEE6secondB7v160006Ev, symObjAddr: 0x7CE8, symBinAddr: 0x10000A968, symSize: 0x24 }
  - { offsetInCU: 0x28722, offset: 0x28722, size: 0x8, addend: 0x0, symName: __ZNSt3__122__compressed_pair_elemINS_9allocatorINS_6vectorINS2_IiNS1_IiEEEENS1_IS4_EEEEEELi1ELb1EE5__getB7v160006Ev, symObjAddr: 0x7D0C, symBinAddr: 0x10000A98C, symSize: 0x14 }
  - { offsetInCU: 0x28748, offset: 0x28748, size: 0x8, addend: 0x0, symName: __ZNSt3__117__compressed_pairIPNS_6vectorINS1_IiNS_9allocatorIiEEEENS2_IS4_EEEENS2_IS6_EEE5firstB7v160006Ev, symObjAddr: 0x7D20, symBinAddr: 0x10000A9A0, symSize: 0x24 }
  - { offsetInCU: 0x2876E, offset: 0x2876E, size: 0x8, addend: 0x0, symName: __ZNSt3__122__compressed_pair_elemIPNS_6vectorINS1_IiNS_9allocatorIiEEEENS2_IS4_EEEELi0ELb0EE5__getB7v160006Ev, symObjAddr: 0x7D44, symBinAddr: 0x10000A9C4, symSize: 0x14 }
  - { offsetInCU: 0x28794, offset: 0x28794, size: 0x8, addend: 0x0, symName: __ZNKSt3__16vectorINS0_INS0_IiNS_9allocatorIiEEEENS1_IS3_EEEENS1_IS5_EEE31__annotate_contiguous_containerB7v160006EPKvS9_S9_S9_, symObjAddr: 0x7D58, symBinAddr: 0x10000A9D8, symSize: 0x20 }
  - { offsetInCU: 0x287E6, offset: 0x287E6, size: 0x8, addend: 0x0, symName: __ZNKSt3__16vectorINS0_INS0_IiNS_9allocatorIiEEEENS1_IS3_EEEENS1_IS5_EEE4dataB7v160006Ev, symObjAddr: 0x7D78, symBinAddr: 0x10000A9F8, symSize: 0x28 }
  - { offsetInCU: 0x2880C, offset: 0x2880C, size: 0x8, addend: 0x0, symName: __ZNKSt3__16vectorINS0_INS0_IiNS_9allocatorIiEEEENS1_IS3_EEEENS1_IS5_EEE8capacityB7v160006Ev, symObjAddr: 0x7DA0, symBinAddr: 0x10000AA20, symSize: 0x40 }
  - { offsetInCU: 0x28832, offset: 0x28832, size: 0x8, addend: 0x0, symName: __ZNKSt3__16vectorINS0_INS0_IiNS_9allocatorIiEEEENS1_IS3_EEEENS1_IS5_EEE9__end_capB7v160006Ev, symObjAddr: 0x7DF4, symBinAddr: 0x10000AA74, symSize: 0x28 }
  - { offsetInCU: 0x28858, offset: 0x28858, size: 0x8, addend: 0x0, symName: __ZNKSt3__117__compressed_pairIPNS_6vectorINS1_IiNS_9allocatorIiEEEENS2_IS4_EEEENS2_IS6_EEE5firstB7v160006Ev, symObjAddr: 0x7E1C, symBinAddr: 0x10000AA9C, symSize: 0x24 }
  - { offsetInCU: 0x2887E, offset: 0x2887E, size: 0x8, addend: 0x0, symName: __ZNKSt3__122__compressed_pair_elemIPNS_6vectorINS1_IiNS_9allocatorIiEEEENS2_IS4_EEEELi0ELb0EE5__getB7v160006Ev, symObjAddr: 0x7E40, symBinAddr: 0x10000AAC0, symSize: 0x14 }
  - { offsetInCU: 0x288C0, offset: 0x288C0, size: 0x8, addend: 0x0, symName: __ZNSt3__16vectorINS0_INS0_IiNS_9allocatorIiEEEENS1_IS3_EEEENS1_IS5_EEE21_ConstructTransactionC1B7v160006ERS7_m, symObjAddr: 0x7E54, symBinAddr: 0x10000AAD4, symSize: 0x3C }
  - { offsetInCU: 0x28908, offset: 0x28908, size: 0x8, addend: 0x0, symName: __ZNSt3__116allocator_traitsINS_9allocatorINS_6vectorINS2_IiNS1_IiEEEENS1_IS4_EEEEEEE9constructB7v160006IS6_JRKS6_EvvEEvRS7_PT_DpOT0_, symObjAddr: 0x7E90, symBinAddr: 0x10000AB10, symSize: 0x30 }
  - { offsetInCU: 0x2895C, offset: 0x2895C, size: 0x8, addend: 0x0, symName: __ZNSt3__16vectorINS0_INS0_IiNS_9allocatorIiEEEENS1_IS3_EEEENS1_IS5_EEE21_ConstructTransactionD1B7v160006Ev, symObjAddr: 0x7EC0, symBinAddr: 0x10000AB40, symSize: 0x2C }
  - { offsetInCU: 0x28986, offset: 0x28986, size: 0x8, addend: 0x0, symName: __ZNSt3__16vectorINS0_INS0_IiNS_9allocatorIiEEEENS1_IS3_EEEENS1_IS5_EEE21_ConstructTransactionC2B7v160006ERS7_m, symObjAddr: 0x7EEC, symBinAddr: 0x10000AB6C, symSize: 0x4C }
  - { offsetInCU: 0x289CE, offset: 0x289CE, size: 0x8, addend: 0x0, symName: __ZNSt3__16vectorINS0_IiNS_9allocatorIiEEEENS1_IS3_EEEC1ERKS5_, symObjAddr: 0x7F74, symBinAddr: 0x10000ABF4, symSize: 0x34 }
  - { offsetInCU: 0x28A09, offset: 0x28A09, size: 0x8, addend: 0x0, symName: __ZNSt3__16vectorINS0_IiNS_9allocatorIiEEEENS1_IS3_EEEC2ERKS5_, symObjAddr: 0x7FA8, symBinAddr: 0x10000AC28, symSize: 0x110 }
  - { offsetInCU: 0x28A68, offset: 0x28A68, size: 0x8, addend: 0x0, symName: __ZNSt3__116allocator_traitsINS_9allocatorINS_6vectorIiNS1_IiEEEEEEE37select_on_container_copy_constructionB7v160006IS5_vvEES5_RKS5_, symObjAddr: 0x80B8, symBinAddr: 0x10000AD38, symSize: 0x10 }
  - { offsetInCU: 0x28A9D, offset: 0x28A9D, size: 0x8, addend: 0x0, symName: __ZNSt3__117__compressed_pairIPNS_6vectorIiNS_9allocatorIiEEEENS2_IS4_EEEC1B7v160006IDnS6_EEOT_OT0_, symObjAddr: 0x80C8, symBinAddr: 0x10000AD48, symSize: 0x3C }
  - { offsetInCU: 0x28AF5, offset: 0x28AF5, size: 0x8, addend: 0x0, symName: __ZNSt3__16vectorINS0_IiNS_9allocatorIiEEEENS1_IS3_EEE18__construct_at_endIPS3_Li0EEEvT_S8_m, symObjAddr: 0x8104, symBinAddr: 0x10000AD84, symSize: 0x8C }
  - { offsetInCU: 0x28B68, offset: 0x28B68, size: 0x8, addend: 0x0, symName: __ZNSt3__117__compressed_pairIPNS_6vectorIiNS_9allocatorIiEEEENS2_IS4_EEEC2B7v160006IDnS6_EEOT_OT0_, symObjAddr: 0x8190, symBinAddr: 0x10000AE10, symSize: 0x44 }
  - { offsetInCU: 0x28BC0, offset: 0x28BC0, size: 0x8, addend: 0x0, symName: __ZNSt3__122__compressed_pair_elemINS_9allocatorINS_6vectorIiNS1_IiEEEEEELi1ELb1EEC2B7v160006IS5_vEEOT_, symObjAddr: 0x81D4, symBinAddr: 0x10000AE54, symSize: 0x18 }
  - { offsetInCU: 0x28C02, offset: 0x28C02, size: 0x8, addend: 0x0, symName: __ZNSt3__129_AllocatorDestroyRangeReverseINS_9allocatorINS_6vectorIiNS1_IiEEEEEEPS4_EC1B7v160006ERS5_RS6_S9_, symObjAddr: 0x832C, symBinAddr: 0x10000AFAC, symSize: 0x44 }
  - { offsetInCU: 0x28C59, offset: 0x28C59, size: 0x8, addend: 0x0, symName: __ZNSt3__116allocator_traitsINS_9allocatorINS_6vectorIiNS1_IiEEEEEEE9constructB7v160006IS4_JRS4_EvvEEvRS5_PT_DpOT0_, symObjAddr: 0x8370, symBinAddr: 0x10000AFF0, symSize: 0x30 }
  - { offsetInCU: 0x28CAD, offset: 0x28CAD, size: 0x8, addend: 0x0, symName: __ZNSt3__128__exception_guard_exceptionsINS_29_AllocatorDestroyRangeReverseINS_9allocatorINS_6vectorIiNS2_IiEEEEEEPS5_EEE10__completeB7v160006Ev, symObjAddr: 0x83A0, symBinAddr: 0x10000B020, symSize: 0x1C }
  - { offsetInCU: 0x28CD3, offset: 0x28CD3, size: 0x8, addend: 0x0, symName: __ZNSt3__128__exception_guard_exceptionsINS_29_AllocatorDestroyRangeReverseINS_9allocatorINS_6vectorIiNS2_IiEEEEEEPS5_EEED1B7v160006Ev, symObjAddr: 0x83BC, symBinAddr: 0x10000B03C, symSize: 0x2C }
  - { offsetInCU: 0x28CFD, offset: 0x28CFD, size: 0x8, addend: 0x0, symName: __ZNSt3__128__exception_guard_exceptionsINS_29_AllocatorDestroyRangeReverseINS_9allocatorINS_6vectorIiNS2_IiEEEEEEPS5_EEEC1B7v160006ES8_, symObjAddr: 0x83E8, symBinAddr: 0x10000B068, symSize: 0x34 }
  - { offsetInCU: 0x28D36, offset: 0x28D36, size: 0x8, addend: 0x0, symName: __ZNSt3__128__exception_guard_exceptionsINS_29_AllocatorDestroyRangeReverseINS_9allocatorINS_6vectorIiNS2_IiEEEEEEPS5_EEEC2B7v160006ES8_, symObjAddr: 0x841C, symBinAddr: 0x10000B09C, symSize: 0x30 }
  - { offsetInCU: 0x28D6F, offset: 0x28D6F, size: 0x8, addend: 0x0, symName: __ZNSt3__129_AllocatorDestroyRangeReverseINS_9allocatorINS_6vectorIiNS1_IiEEEEEEPS4_EC2B7v160006ERS5_RS6_S9_, symObjAddr: 0x844C, symBinAddr: 0x10000B0CC, symSize: 0x38 }
  - { offsetInCU: 0x28DC6, offset: 0x28DC6, size: 0x8, addend: 0x0, symName: __ZNSt3__128__exception_guard_exceptionsINS_29_AllocatorDestroyRangeReverseINS_9allocatorINS_6vectorIiNS2_IiEEEEEEPS5_EEED2B7v160006Ev, symObjAddr: 0x84C0, symBinAddr: 0x10000B140, symSize: 0x50 }
  - { offsetInCU: 0x28DF0, offset: 0x28DF0, size: 0x8, addend: 0x0, symName: __ZNKSt3__129_AllocatorDestroyRangeReverseINS_9allocatorINS_6vectorIiNS1_IiEEEEEEPS4_EclB7v160006Ev, symObjAddr: 0x8510, symBinAddr: 0x10000B190, symSize: 0x68 }
  - { offsetInCU: 0x28E16, offset: 0x28E16, size: 0x8, addend: 0x0, symName: __ZNSt3__116reverse_iteratorIPNS_6vectorIiNS_9allocatorIiEEEEEC1B7v160006ES5_, symObjAddr: 0x85E8, symBinAddr: 0x10000B268, symSize: 0x34 }
  - { offsetInCU: 0x28E4E, offset: 0x28E4E, size: 0x8, addend: 0x0, symName: __ZNSt3__116reverse_iteratorIPNS_6vectorIiNS_9allocatorIiEEEEEppB7v160006Ev, symObjAddr: 0x8688, symBinAddr: 0x10000B308, symSize: 0x20 }
  - { offsetInCU: 0x28E74, offset: 0x28E74, size: 0x8, addend: 0x0, symName: __ZNKSt3__116reverse_iteratorIPNS_6vectorIiNS_9allocatorIiEEEEE4baseB7v160006Ev, symObjAddr: 0x86A8, symBinAddr: 0x10000B328, symSize: 0x18 }
  - { offsetInCU: 0x28EA0, offset: 0x28EA0, size: 0x8, addend: 0x0, symName: __ZNSt3__119__to_address_helperINS_16reverse_iteratorIPNS_6vectorIiNS_9allocatorIiEEEEEEvE6__callB7v160006ERKS7_, symObjAddr: 0x86C0, symBinAddr: 0x10000B340, symSize: 0x38 }
  - { offsetInCU: 0x28EC3, offset: 0x28EC3, size: 0x8, addend: 0x0, symName: __ZNKSt3__116reverse_iteratorIPNS_6vectorIiNS_9allocatorIiEEEEEptB7v160006Ev, symObjAddr: 0x86F8, symBinAddr: 0x10000B378, symSize: 0x2C }
  - { offsetInCU: 0x28EE9, offset: 0x28EE9, size: 0x8, addend: 0x0, symName: __ZNSt3__116reverse_iteratorIPNS_6vectorIiNS_9allocatorIiEEEEEC2B7v160006ES5_, symObjAddr: 0x87F4, symBinAddr: 0x10000B474, symSize: 0x28 }
  - { offsetInCU: 0x28F21, offset: 0x28F21, size: 0x8, addend: 0x0, symName: __ZNSt3__16vectorINS0_INS0_IiNS_9allocatorIiEEEENS1_IS3_EEEENS1_IS5_EEE21_ConstructTransactionD2B7v160006Ev, symObjAddr: 0x881C, symBinAddr: 0x10000B49C, symSize: 0x20 }
  - { offsetInCU: 0x28F4B, offset: 0x28F4B, size: 0x8, addend: 0x0, symName: __ZNSt3__128__exception_guard_exceptionsINS_6vectorINS1_INS1_IiNS_9allocatorIiEEEENS2_IS4_EEEENS2_IS6_EEE16__destroy_vectorEED2B7v160006Ev, symObjAddr: 0x883C, symBinAddr: 0x10000B4BC, symSize: 0x50 }
  - { offsetInCU: 0x28F75, offset: 0x28F75, size: 0x8, addend: 0x0, symName: __ZNSt3__16vectorINS0_INS0_IiNS_9allocatorIiEEEENS1_IS3_EEEENS1_IS5_EEE16__destroy_vectorclB7v160006Ev, symObjAddr: 0x888C, symBinAddr: 0x10000B50C, symSize: 0x9C }
  - { offsetInCU: 0x28F9B, offset: 0x28F9B, size: 0x8, addend: 0x0, symName: __ZNKSt3__16vectorINS0_INS0_IiNS_9allocatorIiEEEENS1_IS3_EEEENS1_IS5_EEE17__annotate_deleteB7v160006Ev, symObjAddr: 0x8928, symBinAddr: 0x10000B5A8, symSize: 0xD4 }
  - { offsetInCU: 0x28FC1, offset: 0x28FC1, size: 0x8, addend: 0x0, symName: __ZNSt3__16vectorINS0_INS0_IiNS_9allocatorIiEEEENS1_IS3_EEEENS1_IS5_EEE7__clearB7v160006Ev, symObjAddr: 0x8A0C, symBinAddr: 0x10000B68C, symSize: 0x28 }
  - { offsetInCU: 0x28FE7, offset: 0x28FE7, size: 0x8, addend: 0x0, symName: __ZNSt3__116allocator_traitsINS_9allocatorINS_6vectorINS2_IiNS1_IiEEEENS1_IS4_EEEEEEE10deallocateB7v160006ERS7_PS6_m, symObjAddr: 0x8A34, symBinAddr: 0x10000B6B4, symSize: 0x34 }
  - { offsetInCU: 0x29029, offset: 0x29029, size: 0x8, addend: 0x0, symName: __ZNKSt3__16vectorINS0_INS0_IiNS_9allocatorIiEEEENS1_IS3_EEEENS1_IS5_EEE4sizeB7v160006Ev, symObjAddr: 0x8A68, symBinAddr: 0x10000B6E8, symSize: 0x28 }
  - { offsetInCU: 0x2904F, offset: 0x2904F, size: 0x8, addend: 0x0, symName: __ZNSt3__16vectorINS0_INS0_IiNS_9allocatorIiEEEENS1_IS3_EEEENS1_IS5_EEE22__base_destruct_at_endB7v160006EPS5_, symObjAddr: 0x8A90, symBinAddr: 0x10000B710, symSize: 0x8C }
  - { offsetInCU: 0x29093, offset: 0x29093, size: 0x8, addend: 0x0, symName: __ZNSt3__116allocator_traitsINS_9allocatorINS_6vectorINS2_IiNS1_IiEEEENS1_IS4_EEEEEEE7destroyB7v160006IS6_vvEEvRS7_PT_, symObjAddr: 0x8B1C, symBinAddr: 0x10000B79C, symSize: 0x28 }
  - { offsetInCU: 0x290CD, offset: 0x290CD, size: 0x8, addend: 0x0, symName: __ZNSt3__19allocatorINS_6vectorINS1_IiNS0_IiEEEENS0_IS3_EEEEE10deallocateB7v160006EPS5_m, symObjAddr: 0x8B8C, symBinAddr: 0x10000B80C, symSize: 0x44 }
  - { offsetInCU: 0x2910F, offset: 0x2910F, size: 0x8, addend: 0x0, symName: __ZNSt3__16vectorINS0_INS0_INS0_IiNS_9allocatorIiEEEENS1_IS3_EEEENS1_IS5_EEEENS1_IS7_EEEC2EmRKS7_, symObjAddr: 0x8BD0, symBinAddr: 0x10000B850, symSize: 0xE8 }
  - { offsetInCU: 0x2916E, offset: 0x2916E, size: 0x8, addend: 0x0, symName: __ZNSt3__117__compressed_pairIPNS_6vectorINS1_INS1_IiNS_9allocatorIiEEEENS2_IS4_EEEENS2_IS6_EEEENS2_IS8_EEEC1B7v160006IDnNS_18__default_init_tagEEEOT_OT0_, symObjAddr: 0x8CB8, symBinAddr: 0x10000B938, symSize: 0x3C }
  - { offsetInCU: 0x291C6, offset: 0x291C6, size: 0x8, addend: 0x0, symName: __ZNSt3__16vectorINS0_INS0_INS0_IiNS_9allocatorIiEEEENS1_IS3_EEEENS1_IS5_EEEENS1_IS7_EEE16__destroy_vectorC1ERS9_, symObjAddr: 0x8D34, symBinAddr: 0x10000B9B4, symSize: 0x34 }
  - { offsetInCU: 0x291FF, offset: 0x291FF, size: 0x8, addend: 0x0, symName: __ZNSt3__16vectorINS0_INS0_INS0_IiNS_9allocatorIiEEEENS1_IS3_EEEENS1_IS5_EEEENS1_IS7_EEE11__vallocateB7v160006Em, symObjAddr: 0x8D78, symBinAddr: 0x10000B9F8, symSize: 0xB4 }
  - { offsetInCU: 0x29243, offset: 0x29243, size: 0x8, addend: 0x0, symName: __ZNSt3__16vectorINS0_INS0_INS0_IiNS_9allocatorIiEEEENS1_IS3_EEEENS1_IS5_EEEENS1_IS7_EEE18__construct_at_endEmRKS7_, symObjAddr: 0x8E2C, symBinAddr: 0x10000BAAC, symSize: 0xD0 }
  - { offsetInCU: 0x292C4, offset: 0x292C4, size: 0x8, addend: 0x0, symName: __ZNSt3__128__exception_guard_exceptionsINS_6vectorINS1_INS1_INS1_IiNS_9allocatorIiEEEENS2_IS4_EEEENS2_IS6_EEEENS2_IS8_EEE16__destroy_vectorEE10__completeB7v160006Ev, symObjAddr: 0x8EFC, symBinAddr: 0x10000BB7C, symSize: 0x1C }
  - { offsetInCU: 0x292EA, offset: 0x292EA, size: 0x8, addend: 0x0, symName: __ZNSt3__128__exception_guard_exceptionsINS_6vectorINS1_INS1_INS1_IiNS_9allocatorIiEEEENS2_IS4_EEEENS2_IS6_EEEENS2_IS8_EEE16__destroy_vectorEED1B7v160006Ev, symObjAddr: 0x8F18, symBinAddr: 0x10000BB98, symSize: 0x2C }
  - { offsetInCU: 0x29314, offset: 0x29314, size: 0x8, addend: 0x0, symName: __ZNSt3__117__compressed_pairIPNS_6vectorINS1_INS1_IiNS_9allocatorIiEEEENS2_IS4_EEEENS2_IS6_EEEENS2_IS8_EEEC2B7v160006IDnNS_18__default_init_tagEEEOT_OT0_, symObjAddr: 0x8F44, symBinAddr: 0x10000BBC4, symSize: 0x40 }
  - { offsetInCU: 0x2936C, offset: 0x2936C, size: 0x8, addend: 0x0, symName: __ZNSt3__122__compressed_pair_elemIPNS_6vectorINS1_INS1_IiNS_9allocatorIiEEEENS2_IS4_EEEENS2_IS6_EEEELi0ELb0EEC2B7v160006IDnvEEOT_, symObjAddr: 0x8F84, symBinAddr: 0x10000BC04, symSize: 0x1C }
  - { offsetInCU: 0x293AE, offset: 0x293AE, size: 0x8, addend: 0x0, symName: __ZNSt3__122__compressed_pair_elemINS_9allocatorINS_6vectorINS2_INS2_IiNS1_IiEEEENS1_IS4_EEEENS1_IS6_EEEEEELi1ELb1EEC2B7v160006ENS_18__default_init_tagE, symObjAddr: 0x8FA0, symBinAddr: 0x10000BC20, symSize: 0x2C }
  - { offsetInCU: 0x293E2, offset: 0x293E2, size: 0x8, addend: 0x0, symName: __ZNSt3__19allocatorINS_6vectorINS1_INS1_IiNS0_IiEEEENS0_IS3_EEEENS0_IS5_EEEEEC2B7v160006Ev, symObjAddr: 0x8FCC, symBinAddr: 0x10000BC4C, symSize: 0x2C }
  - { offsetInCU: 0x2940C, offset: 0x2940C, size: 0x8, addend: 0x0, symName: __ZNSt3__116__non_trivial_ifILb1ENS_9allocatorINS_6vectorINS2_INS2_IiNS1_IiEEEENS1_IS4_EEEENS1_IS6_EEEEEEEC2B7v160006Ev, symObjAddr: 0x8FF8, symBinAddr: 0x10000BC78, symSize: 0x14 }
  - { offsetInCU: 0x29436, offset: 0x29436, size: 0x8, addend: 0x0, symName: __ZNSt3__128__exception_guard_exceptionsINS_6vectorINS1_INS1_INS1_IiNS_9allocatorIiEEEENS2_IS4_EEEENS2_IS6_EEEENS2_IS8_EEE16__destroy_vectorEEC1B7v160006ESB_, symObjAddr: 0x900C, symBinAddr: 0x10000BC8C, symSize: 0x34 }
  - { offsetInCU: 0x2946E, offset: 0x2946E, size: 0x8, addend: 0x0, symName: __ZNSt3__128__exception_guard_exceptionsINS_6vectorINS1_INS1_INS1_IiNS_9allocatorIiEEEENS2_IS4_EEEENS2_IS6_EEEENS2_IS8_EEE16__destroy_vectorEEC2B7v160006ESB_, symObjAddr: 0x9040, symBinAddr: 0x10000BCC0, symSize: 0x24 }
  - { offsetInCU: 0x294A6, offset: 0x294A6, size: 0x8, addend: 0x0, symName: __ZNSt3__16vectorINS0_INS0_INS0_IiNS_9allocatorIiEEEENS1_IS3_EEEENS1_IS5_EEEENS1_IS7_EEE16__destroy_vectorC2ERS9_, symObjAddr: 0x9064, symBinAddr: 0x10000BCE4, symSize: 0x20 }
  - { offsetInCU: 0x294DF, offset: 0x294DF, size: 0x8, addend: 0x0, symName: __ZNKSt3__16vectorINS0_INS0_INS0_IiNS_9allocatorIiEEEENS1_IS3_EEEENS1_IS5_EEEENS1_IS7_EEE8max_sizeEv, symObjAddr: 0x9084, symBinAddr: 0x10000BD04, symSize: 0x60 }
  - { offsetInCU: 0x29507, offset: 0x29507, size: 0x8, addend: 0x0, symName: __ZNKSt3__16vectorINS0_INS0_INS0_IiNS_9allocatorIiEEEENS1_IS3_EEEENS1_IS5_EEEENS1_IS7_EEE20__throw_length_errorB7v160006Ev, symObjAddr: 0x90E4, symBinAddr: 0x10000BD64, symSize: 0x1C }
  - { offsetInCU: 0x2952D, offset: 0x2952D, size: 0x8, addend: 0x0, symName: __ZNSt3__16vectorINS0_INS0_INS0_IiNS_9allocatorIiEEEENS1_IS3_EEEENS1_IS5_EEEENS1_IS7_EEE7__allocB7v160006Ev, symObjAddr: 0x9140, symBinAddr: 0x10000BDC0, symSize: 0x28 }
  - { offsetInCU: 0x29553, offset: 0x29553, size: 0x8, addend: 0x0, symName: __ZNSt3__16vectorINS0_INS0_INS0_IiNS_9allocatorIiEEEENS1_IS3_EEEENS1_IS5_EEEENS1_IS7_EEE9__end_capB7v160006Ev, symObjAddr: 0x9168, symBinAddr: 0x10000BDE8, symSize: 0x28 }
  - { offsetInCU: 0x29579, offset: 0x29579, size: 0x8, addend: 0x0, symName: __ZNKSt3__16vectorINS0_INS0_INS0_IiNS_9allocatorIiEEEENS1_IS3_EEEENS1_IS5_EEEENS1_IS7_EEE14__annotate_newB7v160006Em, symObjAddr: 0x9190, symBinAddr: 0x10000BE10, symSize: 0xC8 }
  - { offsetInCU: 0x295B9, offset: 0x295B9, size: 0x8, addend: 0x0, symName: __ZNSt3__116allocator_traitsINS_9allocatorINS_6vectorINS2_INS2_IiNS1_IiEEEENS1_IS4_EEEENS1_IS6_EEEEEEE8max_sizeB7v160006IS9_vvEEmRKS9_, symObjAddr: 0x9258, symBinAddr: 0x10000BED8, symSize: 0x28 }
  - { offsetInCU: 0x295E4, offset: 0x295E4, size: 0x8, addend: 0x0, symName: __ZNKSt3__16vectorINS0_INS0_INS0_IiNS_9allocatorIiEEEENS1_IS3_EEEENS1_IS5_EEEENS1_IS7_EEE7__allocB7v160006Ev, symObjAddr: 0x9280, symBinAddr: 0x10000BF00, symSize: 0x28 }
  - { offsetInCU: 0x2960A, offset: 0x2960A, size: 0x8, addend: 0x0, symName: __ZNKSt3__117__compressed_pairIPNS_6vectorINS1_INS1_IiNS_9allocatorIiEEEENS2_IS4_EEEENS2_IS6_EEEENS2_IS8_EEE6secondB7v160006Ev, symObjAddr: 0x92A8, symBinAddr: 0x10000BF28, symSize: 0x24 }
  - { offsetInCU: 0x29630, offset: 0x29630, size: 0x8, addend: 0x0, symName: __ZNKSt3__122__compressed_pair_elemINS_9allocatorINS_6vectorINS2_INS2_IiNS1_IiEEEENS1_IS4_EEEENS1_IS6_EEEEEELi1ELb1EE5__getB7v160006Ev, symObjAddr: 0x92CC, symBinAddr: 0x10000BF4C, symSize: 0x14 }
  - { offsetInCU: 0x29656, offset: 0x29656, size: 0x8, addend: 0x0, symName: __ZNSt3__19allocatorINS_6vectorINS1_INS1_IiNS0_IiEEEENS0_IS3_EEEENS0_IS5_EEEEE8allocateB7v160006Em, symObjAddr: 0x92E0, symBinAddr: 0x10000BF60, symSize: 0x5C }
  - { offsetInCU: 0x2968A, offset: 0x2968A, size: 0x8, addend: 0x0, symName: __ZNSt3__117__compressed_pairIPNS_6vectorINS1_INS1_IiNS_9allocatorIiEEEENS2_IS4_EEEENS2_IS6_EEEENS2_IS8_EEE6secondB7v160006Ev, symObjAddr: 0x933C, symBinAddr: 0x10000BFBC, symSize: 0x24 }
  - { offsetInCU: 0x296B0, offset: 0x296B0, size: 0x8, addend: 0x0, symName: __ZNSt3__122__compressed_pair_elemINS_9allocatorINS_6vectorINS2_INS2_IiNS1_IiEEEENS1_IS4_EEEENS1_IS6_EEEEEELi1ELb1EE5__getB7v160006Ev, symObjAddr: 0x9360, symBinAddr: 0x10000BFE0, symSize: 0x14 }
  - { offsetInCU: 0x296D6, offset: 0x296D6, size: 0x8, addend: 0x0, symName: __ZNSt3__117__compressed_pairIPNS_6vectorINS1_INS1_IiNS_9allocatorIiEEEENS2_IS4_EEEENS2_IS6_EEEENS2_IS8_EEE5firstB7v160006Ev, symObjAddr: 0x9374, symBinAddr: 0x10000BFF4, symSize: 0x24 }
  - { offsetInCU: 0x296FC, offset: 0x296FC, size: 0x8, addend: 0x0, symName: __ZNSt3__122__compressed_pair_elemIPNS_6vectorINS1_INS1_IiNS_9allocatorIiEEEENS2_IS4_EEEENS2_IS6_EEEELi0ELb0EE5__getB7v160006Ev, symObjAddr: 0x9398, symBinAddr: 0x10000C018, symSize: 0x14 }
  - { offsetInCU: 0x29722, offset: 0x29722, size: 0x8, addend: 0x0, symName: __ZNKSt3__16vectorINS0_INS0_INS0_IiNS_9allocatorIiEEEENS1_IS3_EEEENS1_IS5_EEEENS1_IS7_EEE31__annotate_contiguous_containerB7v160006EPKvSB_SB_SB_, symObjAddr: 0x93AC, symBinAddr: 0x10000C02C, symSize: 0x20 }
  - { offsetInCU: 0x29774, offset: 0x29774, size: 0x8, addend: 0x0, symName: __ZNKSt3__16vectorINS0_INS0_INS0_IiNS_9allocatorIiEEEENS1_IS3_EEEENS1_IS5_EEEENS1_IS7_EEE4dataB7v160006Ev, symObjAddr: 0x93CC, symBinAddr: 0x10000C04C, symSize: 0x28 }
  - { offsetInCU: 0x2979A, offset: 0x2979A, size: 0x8, addend: 0x0, symName: __ZNKSt3__16vectorINS0_INS0_INS0_IiNS_9allocatorIiEEEENS1_IS3_EEEENS1_IS5_EEEENS1_IS7_EEE8capacityB7v160006Ev, symObjAddr: 0x93F4, symBinAddr: 0x10000C074, symSize: 0x40 }
  - { offsetInCU: 0x297C0, offset: 0x297C0, size: 0x8, addend: 0x0, symName: __ZNKSt3__16vectorINS0_INS0_INS0_IiNS_9allocatorIiEEEENS1_IS3_EEEENS1_IS5_EEEENS1_IS7_EEE9__end_capB7v160006Ev, symObjAddr: 0x9448, symBinAddr: 0x10000C0C8, symSize: 0x28 }
  - { offsetInCU: 0x297E6, offset: 0x297E6, size: 0x8, addend: 0x0, symName: __ZNKSt3__117__compressed_pairIPNS_6vectorINS1_INS1_IiNS_9allocatorIiEEEENS2_IS4_EEEENS2_IS6_EEEENS2_IS8_EEE5firstB7v160006Ev, symObjAddr: 0x9470, symBinAddr: 0x10000C0F0, symSize: 0x24 }
  - { offsetInCU: 0x2980C, offset: 0x2980C, size: 0x8, addend: 0x0, symName: __ZNKSt3__122__compressed_pair_elemIPNS_6vectorINS1_INS1_IiNS_9allocatorIiEEEENS2_IS4_EEEENS2_IS6_EEEELi0ELb0EE5__getB7v160006Ev, symObjAddr: 0x9494, symBinAddr: 0x10000C114, symSize: 0x14 }
  - { offsetInCU: 0x2984E, offset: 0x2984E, size: 0x8, addend: 0x0, symName: __ZNSt3__16vectorINS0_INS0_INS0_IiNS_9allocatorIiEEEENS1_IS3_EEEENS1_IS5_EEEENS1_IS7_EEE21_ConstructTransactionC1B7v160006ERS9_m, symObjAddr: 0x94A8, symBinAddr: 0x10000C128, symSize: 0x3C }
  - { offsetInCU: 0x29896, offset: 0x29896, size: 0x8, addend: 0x0, symName: __ZNSt3__116allocator_traitsINS_9allocatorINS_6vectorINS2_INS2_IiNS1_IiEEEENS1_IS4_EEEENS1_IS6_EEEEEEE9constructB7v160006IS8_JRKS8_EvvEEvRS9_PT_DpOT0_, symObjAddr: 0x94E4, symBinAddr: 0x10000C164, symSize: 0x30 }
  - { offsetInCU: 0x298EA, offset: 0x298EA, size: 0x8, addend: 0x0, symName: __ZNSt3__16vectorINS0_INS0_INS0_IiNS_9allocatorIiEEEENS1_IS3_EEEENS1_IS5_EEEENS1_IS7_EEE21_ConstructTransactionD1B7v160006Ev, symObjAddr: 0x9514, symBinAddr: 0x10000C194, symSize: 0x2C }
  - { offsetInCU: 0x29914, offset: 0x29914, size: 0x8, addend: 0x0, symName: __ZNSt3__16vectorINS0_INS0_INS0_IiNS_9allocatorIiEEEENS1_IS3_EEEENS1_IS5_EEEENS1_IS7_EEE21_ConstructTransactionC2B7v160006ERS9_m, symObjAddr: 0x9540, symBinAddr: 0x10000C1C0, symSize: 0x4C }
  - { offsetInCU: 0x2995C, offset: 0x2995C, size: 0x8, addend: 0x0, symName: __ZNSt3__16vectorINS0_INS0_IiNS_9allocatorIiEEEENS1_IS3_EEEENS1_IS5_EEEC1ERKS7_, symObjAddr: 0x95C8, symBinAddr: 0x10000C248, symSize: 0x34 }
  - { offsetInCU: 0x29997, offset: 0x29997, size: 0x8, addend: 0x0, symName: __ZNSt3__16vectorINS0_INS0_IiNS_9allocatorIiEEEENS1_IS3_EEEENS1_IS5_EEEC2ERKS7_, symObjAddr: 0x95FC, symBinAddr: 0x10000C27C, symSize: 0x110 }
  - { offsetInCU: 0x299F6, offset: 0x299F6, size: 0x8, addend: 0x0, symName: __ZNSt3__116allocator_traitsINS_9allocatorINS_6vectorINS2_IiNS1_IiEEEENS1_IS4_EEEEEEE37select_on_container_copy_constructionB7v160006IS7_vvEES7_RKS7_, symObjAddr: 0x970C, symBinAddr: 0x10000C38C, symSize: 0x10 }
  - { offsetInCU: 0x29A2B, offset: 0x29A2B, size: 0x8, addend: 0x0, symName: __ZNSt3__117__compressed_pairIPNS_6vectorINS1_IiNS_9allocatorIiEEEENS2_IS4_EEEENS2_IS6_EEEC1B7v160006IDnS8_EEOT_OT0_, symObjAddr: 0x971C, symBinAddr: 0x10000C39C, symSize: 0x3C }
  - { offsetInCU: 0x29A83, offset: 0x29A83, size: 0x8, addend: 0x0, symName: __ZNSt3__16vectorINS0_INS0_IiNS_9allocatorIiEEEENS1_IS3_EEEENS1_IS5_EEE18__construct_at_endIPS5_Li0EEEvT_SA_m, symObjAddr: 0x9758, symBinAddr: 0x10000C3D8, symSize: 0x8C }
  - { offsetInCU: 0x29AF6, offset: 0x29AF6, size: 0x8, addend: 0x0, symName: __ZNSt3__117__compressed_pairIPNS_6vectorINS1_IiNS_9allocatorIiEEEENS2_IS4_EEEENS2_IS6_EEEC2B7v160006IDnS8_EEOT_OT0_, symObjAddr: 0x97E4, symBinAddr: 0x10000C464, symSize: 0x44 }
  - { offsetInCU: 0x29B4E, offset: 0x29B4E, size: 0x8, addend: 0x0, symName: __ZNSt3__122__compressed_pair_elemINS_9allocatorINS_6vectorINS2_IiNS1_IiEEEENS1_IS4_EEEEEELi1ELb1EEC2B7v160006IS7_vEEOT_, symObjAddr: 0x9828, symBinAddr: 0x10000C4A8, symSize: 0x18 }
  - { offsetInCU: 0x29B90, offset: 0x29B90, size: 0x8, addend: 0x0, symName: __ZNSt3__129_AllocatorDestroyRangeReverseINS_9allocatorINS_6vectorINS2_IiNS1_IiEEEENS1_IS4_EEEEEEPS6_EC1B7v160006ERS7_RS8_SB_, symObjAddr: 0x9980, symBinAddr: 0x10000C600, symSize: 0x44 }
  - { offsetInCU: 0x29BE7, offset: 0x29BE7, size: 0x8, addend: 0x0, symName: __ZNSt3__116allocator_traitsINS_9allocatorINS_6vectorINS2_IiNS1_IiEEEENS1_IS4_EEEEEEE9constructB7v160006IS6_JRS6_EvvEEvRS7_PT_DpOT0_, symObjAddr: 0x99C4, symBinAddr: 0x10000C644, symSize: 0x30 }
  - { offsetInCU: 0x29C3B, offset: 0x29C3B, size: 0x8, addend: 0x0, symName: __ZNSt3__128__exception_guard_exceptionsINS_29_AllocatorDestroyRangeReverseINS_9allocatorINS_6vectorINS3_IiNS2_IiEEEENS2_IS5_EEEEEEPS7_EEE10__completeB7v160006Ev, symObjAddr: 0x99F4, symBinAddr: 0x10000C674, symSize: 0x1C }
  - { offsetInCU: 0x29C61, offset: 0x29C61, size: 0x8, addend: 0x0, symName: __ZNSt3__128__exception_guard_exceptionsINS_29_AllocatorDestroyRangeReverseINS_9allocatorINS_6vectorINS3_IiNS2_IiEEEENS2_IS5_EEEEEEPS7_EEED1B7v160006Ev, symObjAddr: 0x9A10, symBinAddr: 0x10000C690, symSize: 0x2C }
  - { offsetInCU: 0x29C8B, offset: 0x29C8B, size: 0x8, addend: 0x0, symName: __ZNSt3__128__exception_guard_exceptionsINS_29_AllocatorDestroyRangeReverseINS_9allocatorINS_6vectorINS3_IiNS2_IiEEEENS2_IS5_EEEEEEPS7_EEEC1B7v160006ESA_, symObjAddr: 0x9A3C, symBinAddr: 0x10000C6BC, symSize: 0x34 }
  - { offsetInCU: 0x29CC4, offset: 0x29CC4, size: 0x8, addend: 0x0, symName: __ZNSt3__128__exception_guard_exceptionsINS_29_AllocatorDestroyRangeReverseINS_9allocatorINS_6vectorINS3_IiNS2_IiEEEENS2_IS5_EEEEEEPS7_EEEC2B7v160006ESA_, symObjAddr: 0x9A70, symBinAddr: 0x10000C6F0, symSize: 0x30 }
  - { offsetInCU: 0x29CFD, offset: 0x29CFD, size: 0x8, addend: 0x0, symName: __ZNSt3__129_AllocatorDestroyRangeReverseINS_9allocatorINS_6vectorINS2_IiNS1_IiEEEENS1_IS4_EEEEEEPS6_EC2B7v160006ERS7_RS8_SB_, symObjAddr: 0x9AA0, symBinAddr: 0x10000C720, symSize: 0x38 }
  - { offsetInCU: 0x29D54, offset: 0x29D54, size: 0x8, addend: 0x0, symName: __ZNSt3__128__exception_guard_exceptionsINS_29_AllocatorDestroyRangeReverseINS_9allocatorINS_6vectorINS3_IiNS2_IiEEEENS2_IS5_EEEEEEPS7_EEED2B7v160006Ev, symObjAddr: 0x9B14, symBinAddr: 0x10000C794, symSize: 0x50 }
  - { offsetInCU: 0x29D7E, offset: 0x29D7E, size: 0x8, addend: 0x0, symName: __ZNKSt3__129_AllocatorDestroyRangeReverseINS_9allocatorINS_6vectorINS2_IiNS1_IiEEEENS1_IS4_EEEEEEPS6_EclB7v160006Ev, symObjAddr: 0x9B64, symBinAddr: 0x10000C7E4, symSize: 0x68 }
  - { offsetInCU: 0x29DA4, offset: 0x29DA4, size: 0x8, addend: 0x0, symName: __ZNSt3__116reverse_iteratorIPNS_6vectorINS1_IiNS_9allocatorIiEEEENS2_IS4_EEEEEC1B7v160006ES7_, symObjAddr: 0x9C3C, symBinAddr: 0x10000C8BC, symSize: 0x34 }
  - { offsetInCU: 0x29DDC, offset: 0x29DDC, size: 0x8, addend: 0x0, symName: __ZNSt3__116reverse_iteratorIPNS_6vectorINS1_IiNS_9allocatorIiEEEENS2_IS4_EEEEEppB7v160006Ev, symObjAddr: 0x9CDC, symBinAddr: 0x10000C95C, symSize: 0x20 }
  - { offsetInCU: 0x29E02, offset: 0x29E02, size: 0x8, addend: 0x0, symName: __ZNKSt3__116reverse_iteratorIPNS_6vectorINS1_IiNS_9allocatorIiEEEENS2_IS4_EEEEE4baseB7v160006Ev, symObjAddr: 0x9CFC, symBinAddr: 0x10000C97C, symSize: 0x18 }
  - { offsetInCU: 0x29E2E, offset: 0x29E2E, size: 0x8, addend: 0x0, symName: __ZNSt3__119__to_address_helperINS_16reverse_iteratorIPNS_6vectorINS2_IiNS_9allocatorIiEEEENS3_IS5_EEEEEEvE6__callB7v160006ERKS9_, symObjAddr: 0x9D14, symBinAddr: 0x10000C994, symSize: 0x38 }
  - { offsetInCU: 0x29E51, offset: 0x29E51, size: 0x8, addend: 0x0, symName: __ZNKSt3__116reverse_iteratorIPNS_6vectorINS1_IiNS_9allocatorIiEEEENS2_IS4_EEEEEptB7v160006Ev, symObjAddr: 0x9D4C, symBinAddr: 0x10000C9CC, symSize: 0x2C }
  - { offsetInCU: 0x29E77, offset: 0x29E77, size: 0x8, addend: 0x0, symName: __ZNSt3__116reverse_iteratorIPNS_6vectorINS1_IiNS_9allocatorIiEEEENS2_IS4_EEEEEC2B7v160006ES7_, symObjAddr: 0x9E48, symBinAddr: 0x10000CAC8, symSize: 0x28 }
  - { offsetInCU: 0x29EAF, offset: 0x29EAF, size: 0x8, addend: 0x0, symName: __ZNSt3__16vectorINS0_INS0_INS0_IiNS_9allocatorIiEEEENS1_IS3_EEEENS1_IS5_EEEENS1_IS7_EEE21_ConstructTransactionD2B7v160006Ev, symObjAddr: 0x9E70, symBinAddr: 0x10000CAF0, symSize: 0x20 }
  - { offsetInCU: 0x29ED9, offset: 0x29ED9, size: 0x8, addend: 0x0, symName: __ZNSt3__128__exception_guard_exceptionsINS_6vectorINS1_INS1_INS1_IiNS_9allocatorIiEEEENS2_IS4_EEEENS2_IS6_EEEENS2_IS8_EEE16__destroy_vectorEED2B7v160006Ev, symObjAddr: 0x9E90, symBinAddr: 0x10000CB10, symSize: 0x50 }
  - { offsetInCU: 0x29F03, offset: 0x29F03, size: 0x8, addend: 0x0, symName: __ZNSt3__16vectorINS0_INS0_INS0_IiNS_9allocatorIiEEEENS1_IS3_EEEENS1_IS5_EEEENS1_IS7_EEE16__destroy_vectorclB7v160006Ev, symObjAddr: 0x9EE0, symBinAddr: 0x10000CB60, symSize: 0x9C }
  - { offsetInCU: 0x29F29, offset: 0x29F29, size: 0x8, addend: 0x0, symName: __ZNKSt3__16vectorINS0_INS0_INS0_IiNS_9allocatorIiEEEENS1_IS3_EEEENS1_IS5_EEEENS1_IS7_EEE17__annotate_deleteB7v160006Ev, symObjAddr: 0x9F7C, symBinAddr: 0x10000CBFC, symSize: 0xD4 }
  - { offsetInCU: 0x29F4F, offset: 0x29F4F, size: 0x8, addend: 0x0, symName: __ZNSt3__16vectorINS0_INS0_INS0_IiNS_9allocatorIiEEEENS1_IS3_EEEENS1_IS5_EEEENS1_IS7_EEE7__clearB7v160006Ev, symObjAddr: 0xA060, symBinAddr: 0x10000CCE0, symSize: 0x28 }
  - { offsetInCU: 0x29F75, offset: 0x29F75, size: 0x8, addend: 0x0, symName: __ZNSt3__116allocator_traitsINS_9allocatorINS_6vectorINS2_INS2_IiNS1_IiEEEENS1_IS4_EEEENS1_IS6_EEEEEEE10deallocateB7v160006ERS9_PS8_m, symObjAddr: 0xA088, symBinAddr: 0x10000CD08, symSize: 0x34 }
  - { offsetInCU: 0x29FB7, offset: 0x29FB7, size: 0x8, addend: 0x0, symName: __ZNKSt3__16vectorINS0_INS0_INS0_IiNS_9allocatorIiEEEENS1_IS3_EEEENS1_IS5_EEEENS1_IS7_EEE4sizeB7v160006Ev, symObjAddr: 0xA0BC, symBinAddr: 0x10000CD3C, symSize: 0x28 }
  - { offsetInCU: 0x29FDD, offset: 0x29FDD, size: 0x8, addend: 0x0, symName: __ZNSt3__16vectorINS0_INS0_INS0_IiNS_9allocatorIiEEEENS1_IS3_EEEENS1_IS5_EEEENS1_IS7_EEE22__base_destruct_at_endB7v160006EPS7_, symObjAddr: 0xA0E4, symBinAddr: 0x10000CD64, symSize: 0x8C }
  - { offsetInCU: 0x2A021, offset: 0x2A021, size: 0x8, addend: 0x0, symName: __ZNSt3__116allocator_traitsINS_9allocatorINS_6vectorINS2_INS2_IiNS1_IiEEEENS1_IS4_EEEENS1_IS6_EEEEEEE7destroyB7v160006IS8_vvEEvRS9_PT_, symObjAddr: 0xA170, symBinAddr: 0x10000CDF0, symSize: 0x28 }
  - { offsetInCU: 0x2A05B, offset: 0x2A05B, size: 0x8, addend: 0x0, symName: __ZNSt3__19allocatorINS_6vectorINS1_INS1_IiNS0_IiEEEENS0_IS3_EEEENS0_IS5_EEEEE10deallocateB7v160006EPS7_m, symObjAddr: 0xA1E0, symBinAddr: 0x10000CE60, symSize: 0x44 }
  - { offsetInCU: 0x2A09D, offset: 0x2A09D, size: 0x8, addend: 0x0, symName: __ZNSt3__16vectorINS0_INS0_IiNS_9allocatorIiEEEENS1_IS3_EEEENS1_IS5_EEED2B7v160006Ev, symObjAddr: 0xA224, symBinAddr: 0x10000CEA4, symSize: 0x44 }
  - { offsetInCU: 0x2A0C7, offset: 0x2A0C7, size: 0x8, addend: 0x0, symName: __ZNSt3__16vectorINS0_IiNS_9allocatorIiEEEENS1_IS3_EEED2B7v160006Ev, symObjAddr: 0xA268, symBinAddr: 0x10000CEE8, symSize: 0x44 }
  - { offsetInCU: 0x2A0F1, offset: 0x2A0F1, size: 0x8, addend: 0x0, symName: __ZNSt3__16vectorIiNS_9allocatorIiEEED2B7v160006Ev, symObjAddr: 0xA2AC, symBinAddr: 0x10000CF2C, symSize: 0x44 }
  - { offsetInCU: 0x2A11B, offset: 0x2A11B, size: 0x8, addend: 0x0, symName: __ZNSt3__16vectorINS_5tupleIJiiii9DirectionEEENS_9allocatorIS3_EEE9push_backB7v160006EOS3_, symObjAddr: 0xA2F0, symBinAddr: 0x10000CF70, symSize: 0x6C }
  - { offsetInCU: 0x2A152, offset: 0x2A152, size: 0x8, addend: 0x0, symName: __ZNSt3__16vectorINS_5tupleIJiiii9DirectionEEENS_9allocatorIS3_EEE5beginB7v160006Ev, symObjAddr: 0xA39C, symBinAddr: 0x10000D01C, symSize: 0x30 }
  - { offsetInCU: 0x2A17A, offset: 0x2A17A, size: 0x8, addend: 0x0, symName: __ZNSt3__16vectorINS_5tupleIJiiii9DirectionEEENS_9allocatorIS3_EEE3endB7v160006Ev, symObjAddr: 0xA3CC, symBinAddr: 0x10000D04C, symSize: 0x30 }
  - { offsetInCU: 0x2A1A2, offset: 0x2A1A2, size: 0x8, addend: 0x0, symName: __ZNSt3__16vectorINS_5tupleIJiiii9DirectionEEENS_9allocatorIS3_EEE9__end_capB7v160006Ev, symObjAddr: 0xA3FC, symBinAddr: 0x10000D07C, symSize: 0x28 }
  - { offsetInCU: 0x2A1C8, offset: 0x2A1C8, size: 0x8, addend: 0x0, symName: __ZNSt3__16vectorINS_5tupleIJiiii9DirectionEEENS_9allocatorIS3_EEE22__construct_one_at_endB7v160006IJS3_EEEvDpOT_, symObjAddr: 0xA424, symBinAddr: 0x10000D0A4, symSize: 0x90 }
  - { offsetInCU: 0x2A217, offset: 0x2A217, size: 0x8, addend: 0x0, symName: __ZNSt3__16vectorINS_5tupleIJiiii9DirectionEEENS_9allocatorIS3_EEE21__push_back_slow_pathIS3_EEvOT_, symObjAddr: 0xA4B4, symBinAddr: 0x10000D134, symSize: 0xD8 }
  - { offsetInCU: 0x2A275, offset: 0x2A275, size: 0x8, addend: 0x0, symName: __ZNSt3__117__compressed_pairIPNS_5tupleIJiiii9DirectionEEENS_9allocatorIS3_EEE5firstB7v160006Ev, symObjAddr: 0xA58C, symBinAddr: 0x10000D20C, symSize: 0x24 }
  - { offsetInCU: 0x2A29B, offset: 0x2A29B, size: 0x8, addend: 0x0, symName: __ZNSt3__122__compressed_pair_elemIPNS_5tupleIJiiii9DirectionEEELi0ELb0EE5__getB7v160006Ev, symObjAddr: 0xA5B0, symBinAddr: 0x10000D230, symSize: 0x14 }
  - { offsetInCU: 0x2A2DD, offset: 0x2A2DD, size: 0x8, addend: 0x0, symName: __ZNSt3__16vectorINS_5tupleIJiiii9DirectionEEENS_9allocatorIS3_EEE21_ConstructTransactionC1B7v160006ERS6_m, symObjAddr: 0xA5C4, symBinAddr: 0x10000D244, symSize: 0x3C }
  - { offsetInCU: 0x2A325, offset: 0x2A325, size: 0x8, addend: 0x0, symName: __ZNSt3__116allocator_traitsINS_9allocatorINS_5tupleIJiiii9DirectionEEEEEE9constructB7v160006IS4_JS4_EvvEEvRS5_PT_DpOT0_, symObjAddr: 0xA600, symBinAddr: 0x10000D280, symSize: 0x30 }
  - { offsetInCU: 0x2A379, offset: 0x2A379, size: 0x8, addend: 0x0, symName: __ZNSt3__16vectorINS_5tupleIJiiii9DirectionEEENS_9allocatorIS3_EEE7__allocB7v160006Ev, symObjAddr: 0xA630, symBinAddr: 0x10000D2B0, symSize: 0x28 }
  - { offsetInCU: 0x2A39F, offset: 0x2A39F, size: 0x8, addend: 0x0, symName: __ZNSt3__16vectorINS_5tupleIJiiii9DirectionEEENS_9allocatorIS3_EEE21_ConstructTransactionD1B7v160006Ev, symObjAddr: 0xA66C, symBinAddr: 0x10000D2EC, symSize: 0x2C }
  - { offsetInCU: 0x2A3C9, offset: 0x2A3C9, size: 0x8, addend: 0x0, symName: __ZNSt3__16vectorINS_5tupleIJiiii9DirectionEEENS_9allocatorIS3_EEE21_ConstructTransactionC2B7v160006ERS6_m, symObjAddr: 0xA698, symBinAddr: 0x10000D318, symSize: 0x4C }
  - { offsetInCU: 0x2A411, offset: 0x2A411, size: 0x8, addend: 0x0, symName: __ZNSt3__117__compressed_pairIPNS_5tupleIJiiii9DirectionEEENS_9allocatorIS3_EEE6secondB7v160006Ev, symObjAddr: 0xA718, symBinAddr: 0x10000D398, symSize: 0x24 }
  - { offsetInCU: 0x2A437, offset: 0x2A437, size: 0x8, addend: 0x0, symName: __ZNSt3__122__compressed_pair_elemINS_9allocatorINS_5tupleIJiiii9DirectionEEEEELi1ELb1EE5__getB7v160006Ev, symObjAddr: 0xA73C, symBinAddr: 0x10000D3BC, symSize: 0x14 }
  - { offsetInCU: 0x2A45D, offset: 0x2A45D, size: 0x8, addend: 0x0, symName: __ZNSt3__16vectorINS_5tupleIJiiii9DirectionEEENS_9allocatorIS3_EEE21_ConstructTransactionD2B7v160006Ev, symObjAddr: 0xA750, symBinAddr: 0x10000D3D0, symSize: 0x20 }
  - { offsetInCU: 0x2A487, offset: 0x2A487, size: 0x8, addend: 0x0, symName: __ZNKSt3__16vectorINS_5tupleIJiiii9DirectionEEENS_9allocatorIS3_EEE11__recommendB7v160006Em, symObjAddr: 0xA770, symBinAddr: 0x10000D3F0, symSize: 0xB4 }
  - { offsetInCU: 0x2A4DC, offset: 0x2A4DC, size: 0x8, addend: 0x0, symName: __ZNKSt3__16vectorINS_5tupleIJiiii9DirectionEEENS_9allocatorIS3_EEE4sizeB7v160006Ev, symObjAddr: 0xA824, symBinAddr: 0x10000D4A4, symSize: 0x28 }
  - { offsetInCU: 0x2A502, offset: 0x2A502, size: 0x8, addend: 0x0, symName: __ZNSt3__114__split_bufferINS_5tupleIJiiii9DirectionEEERNS_9allocatorIS3_EEEC1EmmS6_, symObjAddr: 0xA84C, symBinAddr: 0x10000D4CC, symSize: 0x44 }
  - { offsetInCU: 0x2A558, offset: 0x2A558, size: 0x8, addend: 0x0, symName: __ZNSt3__114__split_bufferINS_5tupleIJiiii9DirectionEEERNS_9allocatorIS3_EEED1Ev, symObjAddr: 0xA9A8, symBinAddr: 0x10000D628, symSize: 0x2C }
  - { offsetInCU: 0x2A584, offset: 0x2A584, size: 0x8, addend: 0x0, symName: __ZNKSt3__16vectorINS_5tupleIJiiii9DirectionEEENS_9allocatorIS3_EEE8max_sizeEv, symObjAddr: 0xA9D4, symBinAddr: 0x10000D654, symSize: 0x60 }
  - { offsetInCU: 0x2A5AC, offset: 0x2A5AC, size: 0x8, addend: 0x0, symName: __ZNKSt3__16vectorINS_5tupleIJiiii9DirectionEEENS_9allocatorIS3_EEE20__throw_length_errorB7v160006Ev, symObjAddr: 0xAA34, symBinAddr: 0x10000D6B4, symSize: 0x1C }
  - { offsetInCU: 0x2A5D2, offset: 0x2A5D2, size: 0x8, addend: 0x0, symName: __ZNKSt3__16vectorINS_5tupleIJiiii9DirectionEEENS_9allocatorIS3_EEE8capacityB7v160006Ev, symObjAddr: 0xAA50, symBinAddr: 0x10000D6D0, symSize: 0x40 }
  - { offsetInCU: 0x2A603, offset: 0x2A603, size: 0x8, addend: 0x0, symName: __ZNSt3__116allocator_traitsINS_9allocatorINS_5tupleIJiiii9DirectionEEEEEE8max_sizeB7v160006IS5_vvEEmRKS5_, symObjAddr: 0xAA90, symBinAddr: 0x10000D710, symSize: 0x28 }
  - { offsetInCU: 0x2A62E, offset: 0x2A62E, size: 0x8, addend: 0x0, symName: __ZNKSt3__16vectorINS_5tupleIJiiii9DirectionEEENS_9allocatorIS3_EEE7__allocB7v160006Ev, symObjAddr: 0xAAB8, symBinAddr: 0x10000D738, symSize: 0x28 }
  - { offsetInCU: 0x2A654, offset: 0x2A654, size: 0x8, addend: 0x0, symName: __ZNKSt3__117__compressed_pairIPNS_5tupleIJiiii9DirectionEEENS_9allocatorIS3_EEE6secondB7v160006Ev, symObjAddr: 0xAAE0, symBinAddr: 0x10000D760, symSize: 0x24 }
  - { offsetInCU: 0x2A67A, offset: 0x2A67A, size: 0x8, addend: 0x0, symName: __ZNKSt3__122__compressed_pair_elemINS_9allocatorINS_5tupleIJiiii9DirectionEEEEELi1ELb1EE5__getB7v160006Ev, symObjAddr: 0xAB04, symBinAddr: 0x10000D784, symSize: 0x14 }
  - { offsetInCU: 0x2A6A0, offset: 0x2A6A0, size: 0x8, addend: 0x0, symName: __ZNKSt3__16vectorINS_5tupleIJiiii9DirectionEEENS_9allocatorIS3_EEE9__end_capB7v160006Ev, symObjAddr: 0xAB18, symBinAddr: 0x10000D798, symSize: 0x28 }
  - { offsetInCU: 0x2A6C6, offset: 0x2A6C6, size: 0x8, addend: 0x0, symName: __ZNKSt3__117__compressed_pairIPNS_5tupleIJiiii9DirectionEEENS_9allocatorIS3_EEE5firstB7v160006Ev, symObjAddr: 0xAB40, symBinAddr: 0x10000D7C0, symSize: 0x24 }
  - { offsetInCU: 0x2A6EC, offset: 0x2A6EC, size: 0x8, addend: 0x0, symName: __ZNKSt3__122__compressed_pair_elemIPNS_5tupleIJiiii9DirectionEEELi0ELb0EE5__getB7v160006Ev, symObjAddr: 0xAB64, symBinAddr: 0x10000D7E4, symSize: 0x14 }
  - { offsetInCU: 0x2A712, offset: 0x2A712, size: 0x8, addend: 0x0, symName: __ZNSt3__114__split_bufferINS_5tupleIJiiii9DirectionEEERNS_9allocatorIS3_EEEC2EmmS6_, symObjAddr: 0xAB78, symBinAddr: 0x10000D7F8, symSize: 0xE0 }
  - { offsetInCU: 0x2A785, offset: 0x2A785, size: 0x8, addend: 0x0, symName: __ZNSt3__117__compressed_pairIPNS_5tupleIJiiii9DirectionEEERNS_9allocatorIS3_EEEC1B7v160006IDnS7_EEOT_OT0_, symObjAddr: 0xAC58, symBinAddr: 0x10000D8D8, symSize: 0x3C }
  - { offsetInCU: 0x2A7DD, offset: 0x2A7DD, size: 0x8, addend: 0x0, symName: __ZNSt3__114__split_bufferINS_5tupleIJiiii9DirectionEEERNS_9allocatorIS3_EEE7__allocB7v160006Ev, symObjAddr: 0xACD4, symBinAddr: 0x10000D954, symSize: 0x28 }
  - { offsetInCU: 0x2A803, offset: 0x2A803, size: 0x8, addend: 0x0, symName: __ZNSt3__114__split_bufferINS_5tupleIJiiii9DirectionEEERNS_9allocatorIS3_EEE9__end_capB7v160006Ev, symObjAddr: 0xACFC, symBinAddr: 0x10000D97C, symSize: 0x28 }
  - { offsetInCU: 0x2A829, offset: 0x2A829, size: 0x8, addend: 0x0, symName: __ZNSt3__117__compressed_pairIPNS_5tupleIJiiii9DirectionEEERNS_9allocatorIS3_EEEC2B7v160006IDnS7_EEOT_OT0_, symObjAddr: 0xAD24, symBinAddr: 0x10000D9A4, symSize: 0x48 }
  - { offsetInCU: 0x2A881, offset: 0x2A881, size: 0x8, addend: 0x0, symName: __ZNSt3__122__compressed_pair_elemIRNS_9allocatorINS_5tupleIJiiii9DirectionEEEEELi1ELb0EEC2B7v160006IS6_vEEOT_, symObjAddr: 0xAD6C, symBinAddr: 0x10000D9EC, symSize: 0x20 }
  - { offsetInCU: 0x2A8C3, offset: 0x2A8C3, size: 0x8, addend: 0x0, symName: __ZNSt3__19allocatorINS_5tupleIJiiii9DirectionEEEE8allocateB7v160006Em, symObjAddr: 0xAD8C, symBinAddr: 0x10000DA0C, symSize: 0x5C }
  - { offsetInCU: 0x2A8F7, offset: 0x2A8F7, size: 0x8, addend: 0x0, symName: __ZNSt3__117__compressed_pairIPNS_5tupleIJiiii9DirectionEEERNS_9allocatorIS3_EEE6secondB7v160006Ev, symObjAddr: 0xADE8, symBinAddr: 0x10000DA68, symSize: 0x28 }
  - { offsetInCU: 0x2A91D, offset: 0x2A91D, size: 0x8, addend: 0x0, symName: __ZNSt3__122__compressed_pair_elemIRNS_9allocatorINS_5tupleIJiiii9DirectionEEEEELi1ELb0EE5__getB7v160006Ev, symObjAddr: 0xAE10, symBinAddr: 0x10000DA90, symSize: 0x18 }
  - { offsetInCU: 0x2A943, offset: 0x2A943, size: 0x8, addend: 0x0, symName: __ZNSt3__117__compressed_pairIPNS_5tupleIJiiii9DirectionEEERNS_9allocatorIS3_EEE5firstB7v160006Ev, symObjAddr: 0xAE28, symBinAddr: 0x10000DAA8, symSize: 0x24 }
  - { offsetInCU: 0x2A969, offset: 0x2A969, size: 0x8, addend: 0x0, symName: __ZNKSt3__16vectorINS_5tupleIJiiii9DirectionEEENS_9allocatorIS3_EEE17__annotate_deleteB7v160006Ev, symObjAddr: 0xAE4C, symBinAddr: 0x10000DACC, symSize: 0xD4 }
  - { offsetInCU: 0x2A98F, offset: 0x2A98F, size: 0x8, addend: 0x0, symName: __ZNSt3__116reverse_iteratorIPNS_5tupleIJiiii9DirectionEEEEC1B7v160006ES4_, symObjAddr: 0xB04C, symBinAddr: 0x10000DCCC, symSize: 0x34 }
  - { offsetInCU: 0x2A9C7, offset: 0x2A9C7, size: 0x8, addend: 0x0, symName: __ZNKSt3__116reverse_iteratorIPNS_5tupleIJiiii9DirectionEEEE4baseB7v160006Ev, symObjAddr: 0xB080, symBinAddr: 0x10000DD00, symSize: 0x18 }
  - { offsetInCU: 0x2A9ED, offset: 0x2A9ED, size: 0x8, addend: 0x0, symName: __ZNKSt3__16vectorINS_5tupleIJiiii9DirectionEEENS_9allocatorIS3_EEE14__annotate_newB7v160006Em, symObjAddr: 0xB0D4, symBinAddr: 0x10000DD54, symSize: 0xC8 }
  - { offsetInCU: 0x2AA22, offset: 0x2AA22, size: 0x8, addend: 0x0, symName: __ZNKSt3__16vectorINS_5tupleIJiiii9DirectionEEENS_9allocatorIS3_EEE31__annotate_contiguous_containerB7v160006EPKvS8_S8_S8_, symObjAddr: 0xB1AC, symBinAddr: 0x10000DE2C, symSize: 0x20 }
  - { offsetInCU: 0x2AA74, offset: 0x2AA74, size: 0x8, addend: 0x0, symName: __ZNKSt3__16vectorINS_5tupleIJiiii9DirectionEEENS_9allocatorIS3_EEE4dataB7v160006Ev, symObjAddr: 0xB1CC, symBinAddr: 0x10000DE4C, symSize: 0x28 }
  - { offsetInCU: 0x2AA9A, offset: 0x2AA9A, size: 0x8, addend: 0x0, symName: __ZNSt3__129_AllocatorDestroyRangeReverseINS_9allocatorINS_5tupleIJiiii9DirectionEEEEENS_16reverse_iteratorIPS4_EEEC1B7v160006ERS5_RS8_SB_, symObjAddr: 0xB240, symBinAddr: 0x10000DEC0, symSize: 0x44 }
  - { offsetInCU: 0x2AAF1, offset: 0x2AAF1, size: 0x8, addend: 0x0, symName: __ZNKSt3__116reverse_iteratorIPNS_5tupleIJiiii9DirectionEEEEdeB7v160006Ev, symObjAddr: 0xB2F0, symBinAddr: 0x10000DF70, symSize: 0x28 }
  - { offsetInCU: 0x2AB25, offset: 0x2AB25, size: 0x8, addend: 0x0, symName: __ZNSt3__116reverse_iteratorIPNS_5tupleIJiiii9DirectionEEEEppB7v160006Ev, symObjAddr: 0xB318, symBinAddr: 0x10000DF98, symSize: 0x20 }
  - { offsetInCU: 0x2AB4B, offset: 0x2AB4B, size: 0x8, addend: 0x0, symName: __ZNSt3__128__exception_guard_exceptionsINS_29_AllocatorDestroyRangeReverseINS_9allocatorINS_5tupleIJiiii9DirectionEEEEENS_16reverse_iteratorIPS5_EEEEE10__completeB7v160006Ev, symObjAddr: 0xB338, symBinAddr: 0x10000DFB8, symSize: 0x1C }
  - { offsetInCU: 0x2AB71, offset: 0x2AB71, size: 0x8, addend: 0x0, symName: __ZNSt3__128__exception_guard_exceptionsINS_29_AllocatorDestroyRangeReverseINS_9allocatorINS_5tupleIJiiii9DirectionEEEEENS_16reverse_iteratorIPS5_EEEEED1B7v160006Ev, symObjAddr: 0xB354, symBinAddr: 0x10000DFD4, symSize: 0x2C }
  - { offsetInCU: 0x2AB9B, offset: 0x2AB9B, size: 0x8, addend: 0x0, symName: __ZNSt3__128__exception_guard_exceptionsINS_29_AllocatorDestroyRangeReverseINS_9allocatorINS_5tupleIJiiii9DirectionEEEEENS_16reverse_iteratorIPS5_EEEEEC1B7v160006ESA_, symObjAddr: 0xB380, symBinAddr: 0x10000E000, symSize: 0x34 }
  - { offsetInCU: 0x2ABD4, offset: 0x2ABD4, size: 0x8, addend: 0x0, symName: __ZNSt3__128__exception_guard_exceptionsINS_29_AllocatorDestroyRangeReverseINS_9allocatorINS_5tupleIJiiii9DirectionEEEEENS_16reverse_iteratorIPS5_EEEEEC2B7v160006ESA_, symObjAddr: 0xB3B4, symBinAddr: 0x10000E034, symSize: 0x30 }
  - { offsetInCU: 0x2AC0D, offset: 0x2AC0D, size: 0x8, addend: 0x0, symName: __ZNSt3__129_AllocatorDestroyRangeReverseINS_9allocatorINS_5tupleIJiiii9DirectionEEEEENS_16reverse_iteratorIPS4_EEEC2B7v160006ERS5_RS8_SB_, symObjAddr: 0xB3E4, symBinAddr: 0x10000E064, symSize: 0x38 }
  - { offsetInCU: 0x2AC6A, offset: 0x2AC6A, size: 0x8, addend: 0x0, symName: __ZNSt3__119__to_address_helperINS_16reverse_iteratorIPNS_5tupleIJiiii9DirectionEEEEEvE6__callB7v160006ERKS6_, symObjAddr: 0xB41C, symBinAddr: 0x10000E09C, symSize: 0x38 }
  - { offsetInCU: 0x2AC8D, offset: 0x2AC8D, size: 0x8, addend: 0x0, symName: __ZNKSt3__116reverse_iteratorIPNS_5tupleIJiiii9DirectionEEEEptB7v160006Ev, symObjAddr: 0xB454, symBinAddr: 0x10000E0D4, symSize: 0x2C }
  - { offsetInCU: 0x2ACB3, offset: 0x2ACB3, size: 0x8, addend: 0x0, symName: __ZNSt3__128__exception_guard_exceptionsINS_29_AllocatorDestroyRangeReverseINS_9allocatorINS_5tupleIJiiii9DirectionEEEEENS_16reverse_iteratorIPS5_EEEEED2B7v160006Ev, symObjAddr: 0xB550, symBinAddr: 0x10000E1D0, symSize: 0x50 }
  - { offsetInCU: 0x2ACDD, offset: 0x2ACDD, size: 0x8, addend: 0x0, symName: __ZNKSt3__129_AllocatorDestroyRangeReverseINS_9allocatorINS_5tupleIJiiii9DirectionEEEEENS_16reverse_iteratorIPS4_EEEclB7v160006Ev, symObjAddr: 0xB5A0, symBinAddr: 0x10000E220, symSize: 0xB4 }
  - { offsetInCU: 0x2AD04, offset: 0x2AD04, size: 0x8, addend: 0x0, symName: __ZNSt3__116reverse_iteratorINS0_IPNS_5tupleIJiiii9DirectionEEEEEEC1B7v160006ES5_, symObjAddr: 0xB6C4, symBinAddr: 0x10000E344, symSize: 0x3C }
  - { offsetInCU: 0x2AD3C, offset: 0x2AD3C, size: 0x8, addend: 0x0, symName: __ZNSt3__116allocator_traitsINS_9allocatorINS_5tupleIJiiii9DirectionEEEEEE7destroyB7v160006IS4_vvEEvRS5_PT_, symObjAddr: 0xB760, symBinAddr: 0x10000E3E0, symSize: 0x28 }
  - { offsetInCU: 0x2AD76, offset: 0x2AD76, size: 0x8, addend: 0x0, symName: __ZNSt3__116reverse_iteratorINS0_IPNS_5tupleIJiiii9DirectionEEEEEEppB7v160006Ev, symObjAddr: 0xB7AC, symBinAddr: 0x10000E42C, symSize: 0x30 }
  - { offsetInCU: 0x2AD9C, offset: 0x2AD9C, size: 0x8, addend: 0x0, symName: __ZNKSt3__116reverse_iteratorINS0_IPNS_5tupleIJiiii9DirectionEEEEEE4baseB7v160006Ev, symObjAddr: 0xB7DC, symBinAddr: 0x10000E45C, symSize: 0x24 }
  - { offsetInCU: 0x2ADC8, offset: 0x2ADC8, size: 0x8, addend: 0x0, symName: __ZNSt3__119__to_address_helperINS_16reverse_iteratorINS1_IPNS_5tupleIJiiii9DirectionEEEEEEEvE6__callB7v160006ERKS7_, symObjAddr: 0xB834, symBinAddr: 0x10000E4B4, symSize: 0x38 }
  - { offsetInCU: 0x2ADEB, offset: 0x2ADEB, size: 0x8, addend: 0x0, symName: __ZNKSt3__116reverse_iteratorINS0_IPNS_5tupleIJiiii9DirectionEEEEEEptB7v160006Ev, symObjAddr: 0xB86C, symBinAddr: 0x10000E4EC, symSize: 0x4C }
  - { offsetInCU: 0x2AE11, offset: 0x2AE11, size: 0x8, addend: 0x0, symName: __ZNSt3__116reverse_iteratorIPNS_5tupleIJiiii9DirectionEEEEpLB7v160006El, symObjAddr: 0xB994, symBinAddr: 0x10000E614, symSize: 0x30 }
  - { offsetInCU: 0x2AE45, offset: 0x2AE45, size: 0x8, addend: 0x0, symName: __ZNSt3__116reverse_iteratorIPNS_5tupleIJiiii9DirectionEEEEmmB7v160006Ev, symObjAddr: 0xB9C4, symBinAddr: 0x10000E644, symSize: 0x20 }
  - { offsetInCU: 0x2AE6B, offset: 0x2AE6B, size: 0x8, addend: 0x0, symName: __ZNSt3__116reverse_iteratorINS0_IPNS_5tupleIJiiii9DirectionEEEEEEC2B7v160006ES5_, symObjAddr: 0xB9E4, symBinAddr: 0x10000E664, symSize: 0x2C }
  - { offsetInCU: 0x2AEA3, offset: 0x2AEA3, size: 0x8, addend: 0x0, symName: __ZNSt3__116reverse_iteratorIPNS_5tupleIJiiii9DirectionEEEEC2B7v160006ES4_, symObjAddr: 0xBA10, symBinAddr: 0x10000E690, symSize: 0x28 }
  - { offsetInCU: 0x2AEDB, offset: 0x2AEDB, size: 0x8, addend: 0x0, symName: __ZNSt3__114__split_bufferINS_5tupleIJiiii9DirectionEEERNS_9allocatorIS3_EEED2Ev, symObjAddr: 0xBA38, symBinAddr: 0x10000E6B8, symSize: 0x8C }
  - { offsetInCU: 0x2AF07, offset: 0x2AF07, size: 0x8, addend: 0x0, symName: __ZNSt3__114__split_bufferINS_5tupleIJiiii9DirectionEEERNS_9allocatorIS3_EEE5clearB7v160006Ev, symObjAddr: 0xBAC4, symBinAddr: 0x10000E744, symSize: 0x28 }
  - { offsetInCU: 0x2AF2D, offset: 0x2AF2D, size: 0x8, addend: 0x0, symName: __ZNSt3__116allocator_traitsINS_9allocatorINS_5tupleIJiiii9DirectionEEEEEE10deallocateB7v160006ERS5_PS4_m, symObjAddr: 0xBAEC, symBinAddr: 0x10000E76C, symSize: 0x34 }
  - { offsetInCU: 0x2AF6F, offset: 0x2AF6F, size: 0x8, addend: 0x0, symName: __ZNKSt3__114__split_bufferINS_5tupleIJiiii9DirectionEEERNS_9allocatorIS3_EEE8capacityB7v160006Ev, symObjAddr: 0xBB20, symBinAddr: 0x10000E7A0, symSize: 0x40 }
  - { offsetInCU: 0x2AF95, offset: 0x2AF95, size: 0x8, addend: 0x0, symName: __ZNSt3__114__split_bufferINS_5tupleIJiiii9DirectionEEERNS_9allocatorIS3_EEE17__destruct_at_endB7v160006EPS3_, symObjAddr: 0xBB60, symBinAddr: 0x10000E7E0, symSize: 0x2C }
  - { offsetInCU: 0x2AFC9, offset: 0x2AFC9, size: 0x8, addend: 0x0, symName: __ZNSt3__114__split_bufferINS_5tupleIJiiii9DirectionEEERNS_9allocatorIS3_EEE17__destruct_at_endB7v160006EPS3_NS_17integral_constantIbLb0EEE, symObjAddr: 0xBB8C, symBinAddr: 0x10000E80C, symSize: 0x80 }
  - { offsetInCU: 0x2B009, offset: 0x2B009, size: 0x8, addend: 0x0, symName: __ZNSt3__19allocatorINS_5tupleIJiiii9DirectionEEEE10deallocateB7v160006EPS3_m, symObjAddr: 0xBC0C, symBinAddr: 0x10000E88C, symSize: 0x44 }
  - { offsetInCU: 0x2B04B, offset: 0x2B04B, size: 0x8, addend: 0x0, symName: __ZNKSt3__114__split_bufferINS_5tupleIJiiii9DirectionEEERNS_9allocatorIS3_EEE9__end_capB7v160006Ev, symObjAddr: 0xBC50, symBinAddr: 0x10000E8D0, symSize: 0x28 }
  - { offsetInCU: 0x2B071, offset: 0x2B071, size: 0x8, addend: 0x0, symName: __ZNKSt3__117__compressed_pairIPNS_5tupleIJiiii9DirectionEEERNS_9allocatorIS3_EEE5firstB7v160006Ev, symObjAddr: 0xBC78, symBinAddr: 0x10000E8F8, symSize: 0x24 }
  - { offsetInCU: 0x2B097, offset: 0x2B097, size: 0x8, addend: 0x0, symName: __ZNKSt3__111__wrap_iterIPNS_5tupleIJiiii9DirectionEEEE4baseB7v160006Ev, symObjAddr: 0xBEA4, symBinAddr: 0x10000EB24, symSize: 0x18 }
  - { offsetInCU: 0x2B0BD, offset: 0x2B0BD, size: 0x8, addend: 0x0, symName: __ZNKSt3__111__wrap_iterIPNS_5tupleIJiiii9DirectionEEEEplB7v160006El, symObjAddr: 0xBEBC, symBinAddr: 0x10000EB3C, symSize: 0x3C }
  - { offsetInCU: 0x2B0FF, offset: 0x2B0FF, size: 0x8, addend: 0x0, symName: __ZNKSt3__14lessINS_5tupleIJiiii9DirectionEEEEclB7v160006ERKS3_S6_, symObjAddr: 0xBEF8, symBinAddr: 0x10000EB78, symSize: 0x50 }
  - { offsetInCU: 0x2B143, offset: 0x2B143, size: 0x8, addend: 0x0, symName: __ZNKSt3__111__wrap_iterIPNS_5tupleIJiiii9DirectionEEEEdeB7v160006Ev, symObjAddr: 0xBF48, symBinAddr: 0x10000EBC8, symSize: 0x18 }
  - { offsetInCU: 0x2B169, offset: 0x2B169, size: 0x8, addend: 0x0, symName: __ZNSt3__111__wrap_iterIPNS_5tupleIJiiii9DirectionEEEEmmB7v160006Ev, symObjAddr: 0xBF60, symBinAddr: 0x10000EBE0, symSize: 0x20 }
  - { offsetInCU: 0x2B18F, offset: 0x2B18F, size: 0x8, addend: 0x0, symName: __ZNSt3__18_IterOpsINS_17_ClassicAlgPolicyEE11__iter_moveB7v160006IRNS_11__wrap_iterIPNS_5tupleIJiiii9DirectionEEEEEEENS_9enable_ifIXsr12is_referenceIDTdeclsr3stdE7declvalIRT_EEEEE5valueEDTclsr3stdE4movedeclsr3stdE7declvalISD_EEEEE4typeEOSC_, symObjAddr: 0xBF80, symBinAddr: 0x10000EC00, symSize: 0x28 }
  - { offsetInCU: 0x2B1BB, offset: 0x2B1BB, size: 0x8, addend: 0x0, symName: __ZNSt3__15tupleIJiiii9DirectionEEaSB7v160006EOS2_, symObjAddr: 0xBFA8, symBinAddr: 0x10000EC28, symSize: 0x3C }
  - { offsetInCU: 0x2B1F0, offset: 0x2B1F0, size: 0x8, addend: 0x0, symName: __ZNSt3__111__wrap_iterIPNS_5tupleIJiiii9DirectionEEEEpLB7v160006El, symObjAddr: 0xBFE4, symBinAddr: 0x10000EC64, symSize: 0x30 }
  - { offsetInCU: 0x2B234, offset: 0x2B234, size: 0x8, addend: 0x0, symName: __ZNSt3__120_CmpUnspecifiedParamC1B7v160006EMS0_i, symObjAddr: 0xC06C, symBinAddr: 0x10000ECEC, symSize: 0x34 }
  - { offsetInCU: 0x2B26E, offset: 0x2B26E, size: 0x8, addend: 0x0, symName: __ZNKSt3__117__synth_three_wayMUlTyTyRKT_RKT0_E_clIiiEEDaS2_S5_, symObjAddr: 0xC2B0, symBinAddr: 0x10000EF30, symSize: 0x60 }
  - { offsetInCU: 0x2B2C2, offset: 0x2B2C2, size: 0x8, addend: 0x0, symName: __ZNKSt3__117__synth_three_wayMUlTyTyRKT_RKT0_E_clI9DirectionS8_EEDaS2_S5_, symObjAddr: 0xC3D0, symBinAddr: 0x10000F050, symSize: 0x60 }
  - { offsetInCU: 0x2B316, offset: 0x2B316, size: 0x8, addend: 0x0, symName: __ZNKSt3__112__tuple_leafILm0EiLb0EE3getB7v160006Ev, symObjAddr: 0xC458, symBinAddr: 0x10000F0D8, symSize: 0x14 }
  - { offsetInCU: 0x2B33C, offset: 0x2B33C, size: 0x8, addend: 0x0, symName: __ZNKSt3__112__tuple_leafILm1EiLb0EE3getB7v160006Ev, symObjAddr: 0xC46C, symBinAddr: 0x10000F0EC, symSize: 0x14 }
  - { offsetInCU: 0x2B362, offset: 0x2B362, size: 0x8, addend: 0x0, symName: __ZNKSt3__112__tuple_leafILm2EiLb0EE3getB7v160006Ev, symObjAddr: 0xC480, symBinAddr: 0x10000F100, symSize: 0x14 }
  - { offsetInCU: 0x2B388, offset: 0x2B388, size: 0x8, addend: 0x0, symName: __ZNKSt3__112__tuple_leafILm3EiLb0EE3getB7v160006Ev, symObjAddr: 0xC494, symBinAddr: 0x10000F114, symSize: 0x14 }
  - { offsetInCU: 0x2B3AE, offset: 0x2B3AE, size: 0x8, addend: 0x0, symName: __ZNKSt3__112__tuple_leafILm4E9DirectionLb0EE3getB7v160006Ev, symObjAddr: 0xC4A8, symBinAddr: 0x10000F128, symSize: 0x14 }
  - { offsetInCU: 0x2B3D4, offset: 0x2B3D4, size: 0x8, addend: 0x0, symName: __ZNSt3__120_CmpUnspecifiedParamC2B7v160006EMS0_i, symObjAddr: 0xC4BC, symBinAddr: 0x10000F13C, symSize: 0x18 }
  - { offsetInCU: 0x2B408, offset: 0x2B408, size: 0x8, addend: 0x0, symName: __ZNSt3__18_IterOpsINS_17_ClassicAlgPolicyEE25__validate_iter_referenceB7v160006IRNS_11__wrap_iterIPNS_5tupleIJiiii9DirectionEEEEEEEvv, symObjAddr: 0xC4D4, symBinAddr: 0x10000F154, symSize: 0x4 }
  - { offsetInCU: 0x2B426, offset: 0x2B426, size: 0x8, addend: 0x0, symName: __ZNSt3__112__tuple_leafILm0EiLb0EE3getB7v160006Ev, symObjAddr: 0xC6CC, symBinAddr: 0x10000F34C, symSize: 0x14 }
  - { offsetInCU: 0x2B44C, offset: 0x2B44C, size: 0x8, addend: 0x0, symName: __ZNSt3__112__tuple_leafILm1EiLb0EE3getB7v160006Ev, symObjAddr: 0xC6E0, symBinAddr: 0x10000F360, symSize: 0x14 }
  - { offsetInCU: 0x2B472, offset: 0x2B472, size: 0x8, addend: 0x0, symName: __ZNSt3__112__tuple_leafILm2EiLb0EE3getB7v160006Ev, symObjAddr: 0xC6F4, symBinAddr: 0x10000F374, symSize: 0x14 }
  - { offsetInCU: 0x2B498, offset: 0x2B498, size: 0x8, addend: 0x0, symName: __ZNSt3__112__tuple_leafILm3EiLb0EE3getB7v160006Ev, symObjAddr: 0xC708, symBinAddr: 0x10000F388, symSize: 0x14 }
  - { offsetInCU: 0x2B4BE, offset: 0x2B4BE, size: 0x8, addend: 0x0, symName: __ZNSt3__112__tuple_leafILm4E9DirectionLb0EE3getB7v160006Ev, symObjAddr: 0xC71C, symBinAddr: 0x10000F39C, symSize: 0x14 }
  - { offsetInCU: 0x2B4E4, offset: 0x2B4E4, size: 0x8, addend: 0x0, symName: __ZNSt3__16vectorINS_5tupleIJiiii9DirectionEEENS_9allocatorIS3_EEE11__make_iterB7v160006EPS3_, symObjAddr: 0xC730, symBinAddr: 0x10000F3B0, symSize: 0x34 }
  - { offsetInCU: 0x2B519, offset: 0x2B519, size: 0x8, addend: 0x0, symName: __ZNSt3__111__wrap_iterIPNS_5tupleIJiiii9DirectionEEEEC1B7v160006EPKvS4_, symObjAddr: 0xC764, symBinAddr: 0x10000F3E4, symSize: 0x3C }
  - { offsetInCU: 0x2B55F, offset: 0x2B55F, size: 0x8, addend: 0x0, symName: __ZNSt3__111__wrap_iterIPNS_5tupleIJiiii9DirectionEEEEC2B7v160006EPKvS4_, symObjAddr: 0xC7A0, symBinAddr: 0x10000F420, symSize: 0x24 }
  - { offsetInCU: 0x2B5AB, offset: 0x2B5AB, size: 0x8, addend: 0x0, symName: __ZNSt3__15tupleIJiiii9DirectionEEC1B7v160006IJiiiiRS1_ELi0EEEDpOT_, symObjAddr: 0xC7C4, symBinAddr: 0x10000F444, symSize: 0x54 }
  - { offsetInCU: 0x2B645, offset: 0x2B645, size: 0x8, addend: 0x0, symName: __ZNSt3__15tupleIJiiii9DirectionEEC2B7v160006IJiiiiRS1_ELi0EEEDpOT_, symObjAddr: 0xC818, symBinAddr: 0x10000F498, symSize: 0x54 }
  - { offsetInCU: 0x2B6DF, offset: 0x2B6DF, size: 0x8, addend: 0x0, symName: __ZNSt3__112__tuple_implINS_15__tuple_indicesIJLm0ELm1ELm2ELm3ELm4EEEEJiiii9DirectionEEC1B7v160006IJLm0ELm1ELm2ELm3ELm4EEJiiiiS3_EJEJEJiiiiRS3_EEENS1_IJXspT_EEEENS_13__tuple_typesIJDpT0_EEENS1_IJXspT1_EEEENS8_IJDpT2_EEEDpOT3_, symObjAddr: 0xC86C, symBinAddr: 0x10000F4EC, symSize: 0x54 }
  - { offsetInCU: 0x2B7EC, offset: 0x2B7EC, size: 0x8, addend: 0x0, symName: __ZNSt3__112__tuple_implINS_15__tuple_indicesIJLm0ELm1ELm2ELm3ELm4EEEEJiiii9DirectionEEC2B7v160006IJLm0ELm1ELm2ELm3ELm4EEJiiiiS3_EJEJEJiiiiRS3_EEENS1_IJXspT_EEEENS_13__tuple_typesIJDpT0_EEENS1_IJXspT1_EEEENS8_IJDpT2_EEEDpOT3_, symObjAddr: 0xC8C0, symBinAddr: 0x10000F540, symSize: 0x84 }
  - { offsetInCU: 0x2B8F9, offset: 0x2B8F9, size: 0x8, addend: 0x0, symName: __ZNSt3__112__tuple_leafILm0EiLb0EEC2B7v160006IivEEOT_, symObjAddr: 0xC944, symBinAddr: 0x10000F5C4, symSize: 0x24 }
  - { offsetInCU: 0x2B93C, offset: 0x2B93C, size: 0x8, addend: 0x0, symName: __ZNSt3__112__tuple_leafILm1EiLb0EEC2B7v160006IivEEOT_, symObjAddr: 0xC968, symBinAddr: 0x10000F5E8, symSize: 0x24 }
  - { offsetInCU: 0x2B97F, offset: 0x2B97F, size: 0x8, addend: 0x0, symName: __ZNSt3__112__tuple_leafILm2EiLb0EEC2B7v160006IivEEOT_, symObjAddr: 0xC98C, symBinAddr: 0x10000F60C, symSize: 0x24 }
  - { offsetInCU: 0x2B9C2, offset: 0x2B9C2, size: 0x8, addend: 0x0, symName: __ZNSt3__112__tuple_leafILm3EiLb0EEC2B7v160006IivEEOT_, symObjAddr: 0xC9B0, symBinAddr: 0x10000F630, symSize: 0x24 }
  - { offsetInCU: 0x2BA05, offset: 0x2BA05, size: 0x8, addend: 0x0, symName: __ZNSt3__112__tuple_leafILm4E9DirectionLb0EEC2B7v160006IRS1_vEEOT_, symObjAddr: 0xC9D4, symBinAddr: 0x10000F654, symSize: 0x24 }
  - { offsetInCU: 0x2BA48, offset: 0x2BA48, size: 0x8, addend: 0x0, symName: __ZNKSt3__16vectorINS_5tupleIJiiii9DirectionEEENS_9allocatorIS3_EEE5emptyB7v160006Ev, symObjAddr: 0xC9F8, symBinAddr: 0x10000F678, symSize: 0x28 }
  - { offsetInCU: 0x2BA6E, offset: 0x2BA6E, size: 0x8, addend: 0x0, symName: __ZNKSt3__16vectorINS_5tupleIJiiii9DirectionEEENS_9allocatorIS3_EEE5frontB7v160006Ev, symObjAddr: 0xCA20, symBinAddr: 0x10000F6A0, symSize: 0x18 }
  - { offsetInCU: 0x2BA94, offset: 0x2BA94, size: 0x8, addend: 0x0, symName: __ZNSt3__16vectorINS_5tupleIJiiii9DirectionEEENS_9allocatorIS3_EEE8pop_backEv, symObjAddr: 0xCA90, symBinAddr: 0x10000F710, symSize: 0x2C }
  - { offsetInCU: 0x2BABC, offset: 0x2BABC, size: 0x8, addend: 0x0, symName: __ZNSt3__111__wrap_iterIPNS_5tupleIJiiii9DirectionEEEEppB7v160006Ev, symObjAddr: 0xCD7C, symBinAddr: 0x10000F9FC, symSize: 0x20 }
  - { offsetInCU: 0x2BAE2, offset: 0x2BAE2, size: 0x8, addend: 0x0, symName: __ZNSt3__16vectorINS_5tupleIJiiii9DirectionEEENS_9allocatorIS3_EEE17__destruct_at_endB7v160006EPS3_, symObjAddr: 0xCD9C, symBinAddr: 0x10000FA1C, symSize: 0x60 }
  - { offsetInCU: 0x2BB26, offset: 0x2BB26, size: 0x8, addend: 0x0, symName: __ZNSt3__16vectorINS_5tupleIJiiii9DirectionEEENS_9allocatorIS3_EEE27__invalidate_iterators_pastB7v160006EPS3_, symObjAddr: 0xCDFC, symBinAddr: 0x10000FA7C, symSize: 0x14 }
  - { offsetInCU: 0x2BB5D, offset: 0x2BB5D, size: 0x8, addend: 0x0, symName: __ZNSt3__16vectorINS_5tupleIJiiii9DirectionEEENS_9allocatorIS3_EEE22__base_destruct_at_endB7v160006EPS3_, symObjAddr: 0xCE10, symBinAddr: 0x10000FA90, symSize: 0x8C }
  - { offsetInCU: 0x2BBA1, offset: 0x2BBA1, size: 0x8, addend: 0x0, symName: __ZNKSt3__16vectorINS_5tupleIJiiii9DirectionEEENS_9allocatorIS3_EEE17__annotate_shrinkB7v160006Em, symObjAddr: 0xCE9C, symBinAddr: 0x10000FB1C, symSize: 0xD0 }
  - { offsetInCU: 0x2BBD6, offset: 0x2BBD6, size: 0x8, addend: 0x0, symName: __ZNSt3__16vectorINS_5tupleIJiii9DirectionEEENS_9allocatorIS3_EEEC1B7v160006Ev, symObjAddr: 0xCF6C, symBinAddr: 0x10000FBEC, symSize: 0x2C }
  - { offsetInCU: 0x2BC00, offset: 0x2BC00, size: 0x8, addend: 0x0, symName: __ZNSt3__16vectorINS_5tupleIJiii9DirectionEEENS_9allocatorIS3_EEE9push_backB7v160006EOS3_, symObjAddr: 0xCF98, symBinAddr: 0x10000FC18, symSize: 0x6C }
  - { offsetInCU: 0x2BC3D, offset: 0x2BC3D, size: 0x8, addend: 0x0, symName: __ZNSt3__15tupleIJiii9DirectionEEC1B7v160006IJiiiS1_ELi0EEEDpOT_, symObjAddr: 0xD004, symBinAddr: 0x10000FC84, symSize: 0x4C }
  - { offsetInCU: 0x2BCC3, offset: 0x2BCC3, size: 0x8, addend: 0x0, symName: __ZNSt3__15tupleIJiii9DirectionEEC1B7v160006IJiiiRS1_ELi0EEEDpOT_, symObjAddr: 0xD050, symBinAddr: 0x10000FCD0, symSize: 0x4C }
  - { offsetInCU: 0x2BD49, offset: 0x2BD49, size: 0x8, addend: 0x0, symName: __ZNSt3__16vectorINS_5tupleIJiii9DirectionEEENS_9allocatorIS3_EEEC2B7v160006Ev, symObjAddr: 0xD09C, symBinAddr: 0x10000FD1C, symSize: 0x58 }
  - { offsetInCU: 0x2BD73, offset: 0x2BD73, size: 0x8, addend: 0x0, symName: __ZNSt3__117__compressed_pairIPNS_5tupleIJiii9DirectionEEENS_9allocatorIS3_EEEC1B7v160006IDnNS_18__default_init_tagEEEOT_OT0_, symObjAddr: 0xD0F4, symBinAddr: 0x10000FD74, symSize: 0x3C }
  - { offsetInCU: 0x2BDCB, offset: 0x2BDCB, size: 0x8, addend: 0x0, symName: __ZNSt3__117__compressed_pairIPNS_5tupleIJiii9DirectionEEENS_9allocatorIS3_EEEC2B7v160006IDnNS_18__default_init_tagEEEOT_OT0_, symObjAddr: 0xD140, symBinAddr: 0x10000FDC0, symSize: 0x40 }
  - { offsetInCU: 0x2BE23, offset: 0x2BE23, size: 0x8, addend: 0x0, symName: __ZNSt3__122__compressed_pair_elemIPNS_5tupleIJiii9DirectionEEELi0ELb0EEC2B7v160006IDnvEEOT_, symObjAddr: 0xD180, symBinAddr: 0x10000FE00, symSize: 0x1C }
  - { offsetInCU: 0x2BE65, offset: 0x2BE65, size: 0x8, addend: 0x0, symName: __ZNSt3__122__compressed_pair_elemINS_9allocatorINS_5tupleIJiii9DirectionEEEEELi1ELb1EEC2B7v160006ENS_18__default_init_tagE, symObjAddr: 0xD19C, symBinAddr: 0x10000FE1C, symSize: 0x2C }
  - { offsetInCU: 0x2BE99, offset: 0x2BE99, size: 0x8, addend: 0x0, symName: __ZNSt3__19allocatorINS_5tupleIJiii9DirectionEEEEC2B7v160006Ev, symObjAddr: 0xD1C8, symBinAddr: 0x10000FE48, symSize: 0x2C }
  - { offsetInCU: 0x2BEC3, offset: 0x2BEC3, size: 0x8, addend: 0x0, symName: __ZNSt3__116__non_trivial_ifILb1ENS_9allocatorINS_5tupleIJiii9DirectionEEEEEEC2B7v160006Ev, symObjAddr: 0xD1F4, symBinAddr: 0x10000FE74, symSize: 0x14 }
  - { offsetInCU: 0x2BEED, offset: 0x2BEED, size: 0x8, addend: 0x0, symName: __ZNSt3__16vectorINS_5tupleIJiii9DirectionEEENS_9allocatorIS3_EEE9__end_capB7v160006Ev, symObjAddr: 0xD208, symBinAddr: 0x10000FE88, symSize: 0x28 }
  - { offsetInCU: 0x2BF13, offset: 0x2BF13, size: 0x8, addend: 0x0, symName: __ZNSt3__16vectorINS_5tupleIJiii9DirectionEEENS_9allocatorIS3_EEE22__construct_one_at_endB7v160006IJS3_EEEvDpOT_, symObjAddr: 0xD230, symBinAddr: 0x10000FEB0, symSize: 0x90 }
  - { offsetInCU: 0x2BF62, offset: 0x2BF62, size: 0x8, addend: 0x0, symName: __ZNSt3__16vectorINS_5tupleIJiii9DirectionEEENS_9allocatorIS3_EEE21__push_back_slow_pathIS3_EEvOT_, symObjAddr: 0xD2C0, symBinAddr: 0x10000FF40, symSize: 0xD8 }
  - { offsetInCU: 0x2BFC0, offset: 0x2BFC0, size: 0x8, addend: 0x0, symName: __ZNSt3__117__compressed_pairIPNS_5tupleIJiii9DirectionEEENS_9allocatorIS3_EEE5firstB7v160006Ev, symObjAddr: 0xD398, symBinAddr: 0x100010018, symSize: 0x24 }
  - { offsetInCU: 0x2BFE6, offset: 0x2BFE6, size: 0x8, addend: 0x0, symName: __ZNSt3__122__compressed_pair_elemIPNS_5tupleIJiii9DirectionEEELi0ELb0EE5__getB7v160006Ev, symObjAddr: 0xD3BC, symBinAddr: 0x10001003C, symSize: 0x14 }
  - { offsetInCU: 0x2C028, offset: 0x2C028, size: 0x8, addend: 0x0, symName: __ZNSt3__16vectorINS_5tupleIJiii9DirectionEEENS_9allocatorIS3_EEE21_ConstructTransactionC1B7v160006ERS6_m, symObjAddr: 0xD3D0, symBinAddr: 0x100010050, symSize: 0x3C }
  - { offsetInCU: 0x2C070, offset: 0x2C070, size: 0x8, addend: 0x0, symName: __ZNSt3__116allocator_traitsINS_9allocatorINS_5tupleIJiii9DirectionEEEEEE9constructB7v160006IS4_JS4_EvvEEvRS5_PT_DpOT0_, symObjAddr: 0xD40C, symBinAddr: 0x10001008C, symSize: 0x30 }
  - { offsetInCU: 0x2C0C4, offset: 0x2C0C4, size: 0x8, addend: 0x0, symName: __ZNSt3__16vectorINS_5tupleIJiii9DirectionEEENS_9allocatorIS3_EEE7__allocB7v160006Ev, symObjAddr: 0xD43C, symBinAddr: 0x1000100BC, symSize: 0x28 }
  - { offsetInCU: 0x2C0EA, offset: 0x2C0EA, size: 0x8, addend: 0x0, symName: __ZNSt3__16vectorINS_5tupleIJiii9DirectionEEENS_9allocatorIS3_EEE21_ConstructTransactionD1B7v160006Ev, symObjAddr: 0xD478, symBinAddr: 0x1000100F8, symSize: 0x2C }
  - { offsetInCU: 0x2C114, offset: 0x2C114, size: 0x8, addend: 0x0, symName: __ZNSt3__16vectorINS_5tupleIJiii9DirectionEEENS_9allocatorIS3_EEE21_ConstructTransactionC2B7v160006ERS6_m, symObjAddr: 0xD4A4, symBinAddr: 0x100010124, symSize: 0x44 }
  - { offsetInCU: 0x2C15C, offset: 0x2C15C, size: 0x8, addend: 0x0, symName: __ZNSt3__117__compressed_pairIPNS_5tupleIJiii9DirectionEEENS_9allocatorIS3_EEE6secondB7v160006Ev, symObjAddr: 0xD514, symBinAddr: 0x100010194, symSize: 0x24 }
  - { offsetInCU: 0x2C182, offset: 0x2C182, size: 0x8, addend: 0x0, symName: __ZNSt3__122__compressed_pair_elemINS_9allocatorINS_5tupleIJiii9DirectionEEEEELi1ELb1EE5__getB7v160006Ev, symObjAddr: 0xD538, symBinAddr: 0x1000101B8, symSize: 0x14 }
  - { offsetInCU: 0x2C1A8, offset: 0x2C1A8, size: 0x8, addend: 0x0, symName: __ZNSt3__16vectorINS_5tupleIJiii9DirectionEEENS_9allocatorIS3_EEE21_ConstructTransactionD2B7v160006Ev, symObjAddr: 0xD54C, symBinAddr: 0x1000101CC, symSize: 0x20 }
  - { offsetInCU: 0x2C1D2, offset: 0x2C1D2, size: 0x8, addend: 0x0, symName: __ZNKSt3__16vectorINS_5tupleIJiii9DirectionEEENS_9allocatorIS3_EEE11__recommendB7v160006Em, symObjAddr: 0xD56C, symBinAddr: 0x1000101EC, symSize: 0xB4 }
  - { offsetInCU: 0x2C227, offset: 0x2C227, size: 0x8, addend: 0x0, symName: __ZNKSt3__16vectorINS_5tupleIJiii9DirectionEEENS_9allocatorIS3_EEE4sizeB7v160006Ev, symObjAddr: 0xD620, symBinAddr: 0x1000102A0, symSize: 0x28 }
  - { offsetInCU: 0x2C24D, offset: 0x2C24D, size: 0x8, addend: 0x0, symName: __ZNSt3__114__split_bufferINS_5tupleIJiii9DirectionEEERNS_9allocatorIS3_EEEC1EmmS6_, symObjAddr: 0xD648, symBinAddr: 0x1000102C8, symSize: 0x44 }
  - { offsetInCU: 0x2C2A3, offset: 0x2C2A3, size: 0x8, addend: 0x0, symName: __ZNSt3__114__split_bufferINS_5tupleIJiii9DirectionEEERNS_9allocatorIS3_EEED1Ev, symObjAddr: 0xD7A4, symBinAddr: 0x100010424, symSize: 0x2C }
  - { offsetInCU: 0x2C2CF, offset: 0x2C2CF, size: 0x8, addend: 0x0, symName: __ZNKSt3__16vectorINS_5tupleIJiii9DirectionEEENS_9allocatorIS3_EEE8max_sizeEv, symObjAddr: 0xD7D0, symBinAddr: 0x100010450, symSize: 0x60 }
  - { offsetInCU: 0x2C2F7, offset: 0x2C2F7, size: 0x8, addend: 0x0, symName: __ZNKSt3__16vectorINS_5tupleIJiii9DirectionEEENS_9allocatorIS3_EEE20__throw_length_errorB7v160006Ev, symObjAddr: 0xD830, symBinAddr: 0x1000104B0, symSize: 0x1C }
  - { offsetInCU: 0x2C31D, offset: 0x2C31D, size: 0x8, addend: 0x0, symName: __ZNKSt3__16vectorINS_5tupleIJiii9DirectionEEENS_9allocatorIS3_EEE8capacityB7v160006Ev, symObjAddr: 0xD84C, symBinAddr: 0x1000104CC, symSize: 0x40 }
  - { offsetInCU: 0x2C34E, offset: 0x2C34E, size: 0x8, addend: 0x0, symName: __ZNSt3__116allocator_traitsINS_9allocatorINS_5tupleIJiii9DirectionEEEEEE8max_sizeB7v160006IS5_vvEEmRKS5_, symObjAddr: 0xD88C, symBinAddr: 0x10001050C, symSize: 0x28 }
  - { offsetInCU: 0x2C379, offset: 0x2C379, size: 0x8, addend: 0x0, symName: __ZNKSt3__16vectorINS_5tupleIJiii9DirectionEEENS_9allocatorIS3_EEE7__allocB7v160006Ev, symObjAddr: 0xD8B4, symBinAddr: 0x100010534, symSize: 0x28 }
  - { offsetInCU: 0x2C39F, offset: 0x2C39F, size: 0x8, addend: 0x0, symName: __ZNKSt3__117__compressed_pairIPNS_5tupleIJiii9DirectionEEENS_9allocatorIS3_EEE6secondB7v160006Ev, symObjAddr: 0xD8DC, symBinAddr: 0x10001055C, symSize: 0x24 }
  - { offsetInCU: 0x2C3C5, offset: 0x2C3C5, size: 0x8, addend: 0x0, symName: __ZNKSt3__122__compressed_pair_elemINS_9allocatorINS_5tupleIJiii9DirectionEEEEELi1ELb1EE5__getB7v160006Ev, symObjAddr: 0xD900, symBinAddr: 0x100010580, symSize: 0x14 }
  - { offsetInCU: 0x2C3EB, offset: 0x2C3EB, size: 0x8, addend: 0x0, symName: __ZNKSt3__16vectorINS_5tupleIJiii9DirectionEEENS_9allocatorIS3_EEE9__end_capB7v160006Ev, symObjAddr: 0xD914, symBinAddr: 0x100010594, symSize: 0x28 }
  - { offsetInCU: 0x2C411, offset: 0x2C411, size: 0x8, addend: 0x0, symName: __ZNKSt3__117__compressed_pairIPNS_5tupleIJiii9DirectionEEENS_9allocatorIS3_EEE5firstB7v160006Ev, symObjAddr: 0xD93C, symBinAddr: 0x1000105BC, symSize: 0x24 }
  - { offsetInCU: 0x2C437, offset: 0x2C437, size: 0x8, addend: 0x0, symName: __ZNKSt3__122__compressed_pair_elemIPNS_5tupleIJiii9DirectionEEELi0ELb0EE5__getB7v160006Ev, symObjAddr: 0xD960, symBinAddr: 0x1000105E0, symSize: 0x14 }
  - { offsetInCU: 0x2C45D, offset: 0x2C45D, size: 0x8, addend: 0x0, symName: __ZNSt3__114__split_bufferINS_5tupleIJiii9DirectionEEERNS_9allocatorIS3_EEEC2EmmS6_, symObjAddr: 0xD974, symBinAddr: 0x1000105F4, symSize: 0xD4 }
  - { offsetInCU: 0x2C4D0, offset: 0x2C4D0, size: 0x8, addend: 0x0, symName: __ZNSt3__117__compressed_pairIPNS_5tupleIJiii9DirectionEEERNS_9allocatorIS3_EEEC1B7v160006IDnS7_EEOT_OT0_, symObjAddr: 0xDA48, symBinAddr: 0x1000106C8, symSize: 0x3C }
  - { offsetInCU: 0x2C528, offset: 0x2C528, size: 0x8, addend: 0x0, symName: __ZNSt3__114__split_bufferINS_5tupleIJiii9DirectionEEERNS_9allocatorIS3_EEE7__allocB7v160006Ev, symObjAddr: 0xDAC4, symBinAddr: 0x100010744, symSize: 0x28 }
  - { offsetInCU: 0x2C54E, offset: 0x2C54E, size: 0x8, addend: 0x0, symName: __ZNSt3__114__split_bufferINS_5tupleIJiii9DirectionEEERNS_9allocatorIS3_EEE9__end_capB7v160006Ev, symObjAddr: 0xDAEC, symBinAddr: 0x10001076C, symSize: 0x28 }
  - { offsetInCU: 0x2C574, offset: 0x2C574, size: 0x8, addend: 0x0, symName: __ZNSt3__117__compressed_pairIPNS_5tupleIJiii9DirectionEEERNS_9allocatorIS3_EEEC2B7v160006IDnS7_EEOT_OT0_, symObjAddr: 0xDB14, symBinAddr: 0x100010794, symSize: 0x48 }
  - { offsetInCU: 0x2C5CC, offset: 0x2C5CC, size: 0x8, addend: 0x0, symName: __ZNSt3__122__compressed_pair_elemIRNS_9allocatorINS_5tupleIJiii9DirectionEEEEELi1ELb0EEC2B7v160006IS6_vEEOT_, symObjAddr: 0xDB5C, symBinAddr: 0x1000107DC, symSize: 0x20 }
  - { offsetInCU: 0x2C60E, offset: 0x2C60E, size: 0x8, addend: 0x0, symName: __ZNSt3__19allocatorINS_5tupleIJiii9DirectionEEEE8allocateB7v160006Em, symObjAddr: 0xDB7C, symBinAddr: 0x1000107FC, symSize: 0x58 }
  - { offsetInCU: 0x2C642, offset: 0x2C642, size: 0x8, addend: 0x0, symName: __ZNSt3__117__compressed_pairIPNS_5tupleIJiii9DirectionEEERNS_9allocatorIS3_EEE6secondB7v160006Ev, symObjAddr: 0xDBD4, symBinAddr: 0x100010854, symSize: 0x28 }
  - { offsetInCU: 0x2C668, offset: 0x2C668, size: 0x8, addend: 0x0, symName: __ZNSt3__122__compressed_pair_elemIRNS_9allocatorINS_5tupleIJiii9DirectionEEEEELi1ELb0EE5__getB7v160006Ev, symObjAddr: 0xDBFC, symBinAddr: 0x10001087C, symSize: 0x18 }
  - { offsetInCU: 0x2C68E, offset: 0x2C68E, size: 0x8, addend: 0x0, symName: __ZNSt3__117__compressed_pairIPNS_5tupleIJiii9DirectionEEERNS_9allocatorIS3_EEE5firstB7v160006Ev, symObjAddr: 0xDC14, symBinAddr: 0x100010894, symSize: 0x24 }
  - { offsetInCU: 0x2C6B4, offset: 0x2C6B4, size: 0x8, addend: 0x0, symName: __ZNKSt3__16vectorINS_5tupleIJiii9DirectionEEENS_9allocatorIS3_EEE17__annotate_deleteB7v160006Ev, symObjAddr: 0xDC38, symBinAddr: 0x1000108B8, symSize: 0xB8 }
  - { offsetInCU: 0x2C6DA, offset: 0x2C6DA, size: 0x8, addend: 0x0, symName: __ZNSt3__116reverse_iteratorIPNS_5tupleIJiii9DirectionEEEEC1B7v160006ES4_, symObjAddr: 0xDE1C, symBinAddr: 0x100010A9C, symSize: 0x34 }
  - { offsetInCU: 0x2C712, offset: 0x2C712, size: 0x8, addend: 0x0, symName: __ZNKSt3__116reverse_iteratorIPNS_5tupleIJiii9DirectionEEEE4baseB7v160006Ev, symObjAddr: 0xDE50, symBinAddr: 0x100010AD0, symSize: 0x18 }
  - { offsetInCU: 0x2C738, offset: 0x2C738, size: 0x8, addend: 0x0, symName: __ZNKSt3__16vectorINS_5tupleIJiii9DirectionEEENS_9allocatorIS3_EEE14__annotate_newB7v160006Em, symObjAddr: 0xDEA4, symBinAddr: 0x100010B24, symSize: 0xAC }
  - { offsetInCU: 0x2C76D, offset: 0x2C76D, size: 0x8, addend: 0x0, symName: __ZNKSt3__16vectorINS_5tupleIJiii9DirectionEEENS_9allocatorIS3_EEE31__annotate_contiguous_containerB7v160006EPKvS8_S8_S8_, symObjAddr: 0xDF60, symBinAddr: 0x100010BE0, symSize: 0x20 }
  - { offsetInCU: 0x2C7BF, offset: 0x2C7BF, size: 0x8, addend: 0x0, symName: __ZNKSt3__16vectorINS_5tupleIJiii9DirectionEEENS_9allocatorIS3_EEE4dataB7v160006Ev, symObjAddr: 0xDF80, symBinAddr: 0x100010C00, symSize: 0x28 }
  - { offsetInCU: 0x2C7E5, offset: 0x2C7E5, size: 0x8, addend: 0x0, symName: __ZNSt3__129_AllocatorDestroyRangeReverseINS_9allocatorINS_5tupleIJiii9DirectionEEEEENS_16reverse_iteratorIPS4_EEEC1B7v160006ERS5_RS8_SB_, symObjAddr: 0xDFF4, symBinAddr: 0x100010C74, symSize: 0x44 }
  - { offsetInCU: 0x2C83C, offset: 0x2C83C, size: 0x8, addend: 0x0, symName: __ZNKSt3__116reverse_iteratorIPNS_5tupleIJiii9DirectionEEEEdeB7v160006Ev, symObjAddr: 0xE0A4, symBinAddr: 0x100010D24, symSize: 0x28 }
  - { offsetInCU: 0x2C870, offset: 0x2C870, size: 0x8, addend: 0x0, symName: __ZNSt3__116reverse_iteratorIPNS_5tupleIJiii9DirectionEEEEppB7v160006Ev, symObjAddr: 0xE0CC, symBinAddr: 0x100010D4C, symSize: 0x20 }
  - { offsetInCU: 0x2C896, offset: 0x2C896, size: 0x8, addend: 0x0, symName: __ZNSt3__128__exception_guard_exceptionsINS_29_AllocatorDestroyRangeReverseINS_9allocatorINS_5tupleIJiii9DirectionEEEEENS_16reverse_iteratorIPS5_EEEEE10__completeB7v160006Ev, symObjAddr: 0xE0EC, symBinAddr: 0x100010D6C, symSize: 0x1C }
  - { offsetInCU: 0x2C8BC, offset: 0x2C8BC, size: 0x8, addend: 0x0, symName: __ZNSt3__128__exception_guard_exceptionsINS_29_AllocatorDestroyRangeReverseINS_9allocatorINS_5tupleIJiii9DirectionEEEEENS_16reverse_iteratorIPS5_EEEEED1B7v160006Ev, symObjAddr: 0xE108, symBinAddr: 0x100010D88, symSize: 0x2C }
  - { offsetInCU: 0x2C8E6, offset: 0x2C8E6, size: 0x8, addend: 0x0, symName: __ZNSt3__128__exception_guard_exceptionsINS_29_AllocatorDestroyRangeReverseINS_9allocatorINS_5tupleIJiii9DirectionEEEEENS_16reverse_iteratorIPS5_EEEEEC1B7v160006ESA_, symObjAddr: 0xE134, symBinAddr: 0x100010DB4, symSize: 0x34 }
  - { offsetInCU: 0x2C91F, offset: 0x2C91F, size: 0x8, addend: 0x0, symName: __ZNSt3__128__exception_guard_exceptionsINS_29_AllocatorDestroyRangeReverseINS_9allocatorINS_5tupleIJiii9DirectionEEEEENS_16reverse_iteratorIPS5_EEEEEC2B7v160006ESA_, symObjAddr: 0xE168, symBinAddr: 0x100010DE8, symSize: 0x30 }
  - { offsetInCU: 0x2C958, offset: 0x2C958, size: 0x8, addend: 0x0, symName: __ZNSt3__129_AllocatorDestroyRangeReverseINS_9allocatorINS_5tupleIJiii9DirectionEEEEENS_16reverse_iteratorIPS4_EEEC2B7v160006ERS5_RS8_SB_, symObjAddr: 0xE198, symBinAddr: 0x100010E18, symSize: 0x38 }
  - { offsetInCU: 0x2C9B5, offset: 0x2C9B5, size: 0x8, addend: 0x0, symName: __ZNSt3__119__to_address_helperINS_16reverse_iteratorIPNS_5tupleIJiii9DirectionEEEEEvE6__callB7v160006ERKS6_, symObjAddr: 0xE1D0, symBinAddr: 0x100010E50, symSize: 0x38 }
  - { offsetInCU: 0x2C9D8, offset: 0x2C9D8, size: 0x8, addend: 0x0, symName: __ZNKSt3__116reverse_iteratorIPNS_5tupleIJiii9DirectionEEEEptB7v160006Ev, symObjAddr: 0xE208, symBinAddr: 0x100010E88, symSize: 0x2C }
  - { offsetInCU: 0x2C9FE, offset: 0x2C9FE, size: 0x8, addend: 0x0, symName: __ZNSt3__128__exception_guard_exceptionsINS_29_AllocatorDestroyRangeReverseINS_9allocatorINS_5tupleIJiii9DirectionEEEEENS_16reverse_iteratorIPS5_EEEEED2B7v160006Ev, symObjAddr: 0xE2FC, symBinAddr: 0x100010F7C, symSize: 0x50 }
  - { offsetInCU: 0x2CA28, offset: 0x2CA28, size: 0x8, addend: 0x0, symName: __ZNKSt3__129_AllocatorDestroyRangeReverseINS_9allocatorINS_5tupleIJiii9DirectionEEEEENS_16reverse_iteratorIPS4_EEEclB7v160006Ev, symObjAddr: 0xE34C, symBinAddr: 0x100010FCC, symSize: 0xB4 }
  - { offsetInCU: 0x2CA4F, offset: 0x2CA4F, size: 0x8, addend: 0x0, symName: __ZNSt3__116reverse_iteratorINS0_IPNS_5tupleIJiii9DirectionEEEEEEC1B7v160006ES5_, symObjAddr: 0xE470, symBinAddr: 0x1000110F0, symSize: 0x3C }
  - { offsetInCU: 0x2CA87, offset: 0x2CA87, size: 0x8, addend: 0x0, symName: __ZNSt3__116allocator_traitsINS_9allocatorINS_5tupleIJiii9DirectionEEEEEE7destroyB7v160006IS4_vvEEvRS5_PT_, symObjAddr: 0xE50C, symBinAddr: 0x10001118C, symSize: 0x28 }
  - { offsetInCU: 0x2CAC1, offset: 0x2CAC1, size: 0x8, addend: 0x0, symName: __ZNSt3__116reverse_iteratorINS0_IPNS_5tupleIJiii9DirectionEEEEEEppB7v160006Ev, symObjAddr: 0xE558, symBinAddr: 0x1000111D8, symSize: 0x30 }
  - { offsetInCU: 0x2CAE7, offset: 0x2CAE7, size: 0x8, addend: 0x0, symName: __ZNKSt3__116reverse_iteratorINS0_IPNS_5tupleIJiii9DirectionEEEEEE4baseB7v160006Ev, symObjAddr: 0xE588, symBinAddr: 0x100011208, symSize: 0x24 }
  - { offsetInCU: 0x2CB13, offset: 0x2CB13, size: 0x8, addend: 0x0, symName: __ZNSt3__119__to_address_helperINS_16reverse_iteratorINS1_IPNS_5tupleIJiii9DirectionEEEEEEEvE6__callB7v160006ERKS7_, symObjAddr: 0xE5E0, symBinAddr: 0x100011260, symSize: 0x38 }
  - { offsetInCU: 0x2CB36, offset: 0x2CB36, size: 0x8, addend: 0x0, symName: __ZNKSt3__116reverse_iteratorINS0_IPNS_5tupleIJiii9DirectionEEEEEEptB7v160006Ev, symObjAddr: 0xE618, symBinAddr: 0x100011298, symSize: 0x4C }
  - { offsetInCU: 0x2CB5C, offset: 0x2CB5C, size: 0x8, addend: 0x0, symName: __ZNSt3__116reverse_iteratorIPNS_5tupleIJiii9DirectionEEEEpLB7v160006El, symObjAddr: 0xE740, symBinAddr: 0x1000113C0, symSize: 0x30 }
  - { offsetInCU: 0x2CB90, offset: 0x2CB90, size: 0x8, addend: 0x0, symName: __ZNSt3__116reverse_iteratorIPNS_5tupleIJiii9DirectionEEEEmmB7v160006Ev, symObjAddr: 0xE770, symBinAddr: 0x1000113F0, symSize: 0x20 }
  - { offsetInCU: 0x2CBB6, offset: 0x2CBB6, size: 0x8, addend: 0x0, symName: __ZNSt3__116reverse_iteratorINS0_IPNS_5tupleIJiii9DirectionEEEEEEC2B7v160006ES5_, symObjAddr: 0xE790, symBinAddr: 0x100011410, symSize: 0x2C }
  - { offsetInCU: 0x2CBEE, offset: 0x2CBEE, size: 0x8, addend: 0x0, symName: __ZNSt3__116reverse_iteratorIPNS_5tupleIJiii9DirectionEEEEC2B7v160006ES4_, symObjAddr: 0xE7BC, symBinAddr: 0x10001143C, symSize: 0x28 }
  - { offsetInCU: 0x2CC26, offset: 0x2CC26, size: 0x8, addend: 0x0, symName: __ZNSt3__114__split_bufferINS_5tupleIJiii9DirectionEEERNS_9allocatorIS3_EEED2Ev, symObjAddr: 0xE7E4, symBinAddr: 0x100011464, symSize: 0x8C }
  - { offsetInCU: 0x2CC52, offset: 0x2CC52, size: 0x8, addend: 0x0, symName: __ZNSt3__114__split_bufferINS_5tupleIJiii9DirectionEEERNS_9allocatorIS3_EEE5clearB7v160006Ev, symObjAddr: 0xE870, symBinAddr: 0x1000114F0, symSize: 0x28 }
  - { offsetInCU: 0x2CC78, offset: 0x2CC78, size: 0x8, addend: 0x0, symName: __ZNSt3__116allocator_traitsINS_9allocatorINS_5tupleIJiii9DirectionEEEEEE10deallocateB7v160006ERS5_PS4_m, symObjAddr: 0xE898, symBinAddr: 0x100011518, symSize: 0x34 }
  - { offsetInCU: 0x2CCBA, offset: 0x2CCBA, size: 0x8, addend: 0x0, symName: __ZNKSt3__114__split_bufferINS_5tupleIJiii9DirectionEEERNS_9allocatorIS3_EEE8capacityB7v160006Ev, symObjAddr: 0xE8CC, symBinAddr: 0x10001154C, symSize: 0x40 }
  - { offsetInCU: 0x2CCE0, offset: 0x2CCE0, size: 0x8, addend: 0x0, symName: __ZNSt3__114__split_bufferINS_5tupleIJiii9DirectionEEERNS_9allocatorIS3_EEE17__destruct_at_endB7v160006EPS3_, symObjAddr: 0xE90C, symBinAddr: 0x10001158C, symSize: 0x2C }
  - { offsetInCU: 0x2CD14, offset: 0x2CD14, size: 0x8, addend: 0x0, symName: __ZNSt3__114__split_bufferINS_5tupleIJiii9DirectionEEERNS_9allocatorIS3_EEE17__destruct_at_endB7v160006EPS3_NS_17integral_constantIbLb0EEE, symObjAddr: 0xE938, symBinAddr: 0x1000115B8, symSize: 0x80 }
  - { offsetInCU: 0x2CD54, offset: 0x2CD54, size: 0x8, addend: 0x0, symName: __ZNSt3__19allocatorINS_5tupleIJiii9DirectionEEEE10deallocateB7v160006EPS3_m, symObjAddr: 0xE9B8, symBinAddr: 0x100011638, symSize: 0x40 }
  - { offsetInCU: 0x2CD96, offset: 0x2CD96, size: 0x8, addend: 0x0, symName: __ZNKSt3__114__split_bufferINS_5tupleIJiii9DirectionEEERNS_9allocatorIS3_EEE9__end_capB7v160006Ev, symObjAddr: 0xE9F8, symBinAddr: 0x100011678, symSize: 0x28 }
  - { offsetInCU: 0x2CDBC, offset: 0x2CDBC, size: 0x8, addend: 0x0, symName: __ZNKSt3__117__compressed_pairIPNS_5tupleIJiii9DirectionEEERNS_9allocatorIS3_EEE5firstB7v160006Ev, symObjAddr: 0xEA20, symBinAddr: 0x1000116A0, symSize: 0x24 }
  - { offsetInCU: 0x2CDE2, offset: 0x2CDE2, size: 0x8, addend: 0x0, symName: __ZNSt3__15tupleIJiii9DirectionEEC2B7v160006IJiiiS1_ELi0EEEDpOT_, symObjAddr: 0xEA44, symBinAddr: 0x1000116C4, symSize: 0x4C }
  - { offsetInCU: 0x2CE68, offset: 0x2CE68, size: 0x8, addend: 0x0, symName: __ZNSt3__112__tuple_implINS_15__tuple_indicesIJLm0ELm1ELm2ELm3EEEEJiii9DirectionEEC1B7v160006IJLm0ELm1ELm2ELm3EEJiiiS3_EJEJEJiiiS3_EEENS1_IJXspT_EEEENS_13__tuple_typesIJDpT0_EEENS1_IJXspT1_EEEENS7_IJDpT2_EEEDpOT3_, symObjAddr: 0xEA90, symBinAddr: 0x100011710, symSize: 0x4C }
  - { offsetInCU: 0x2CF56, offset: 0x2CF56, size: 0x8, addend: 0x0, symName: __ZNSt3__112__tuple_implINS_15__tuple_indicesIJLm0ELm1ELm2ELm3EEEEJiii9DirectionEEC2B7v160006IJLm0ELm1ELm2ELm3EEJiiiS3_EJEJEJiiiS3_EEENS1_IJXspT_EEEENS_13__tuple_typesIJDpT0_EEENS1_IJXspT1_EEEENS7_IJDpT2_EEEDpOT3_, symObjAddr: 0xEADC, symBinAddr: 0x10001175C, symSize: 0x70 }
  - { offsetInCU: 0x2D044, offset: 0x2D044, size: 0x8, addend: 0x0, symName: __ZNSt3__112__tuple_leafILm3E9DirectionLb0EEC2B7v160006IS1_vEEOT_, symObjAddr: 0xEB4C, symBinAddr: 0x1000117CC, symSize: 0x24 }
  - { offsetInCU: 0x2D087, offset: 0x2D087, size: 0x8, addend: 0x0, symName: __ZNSt3__15tupleIJiii9DirectionEEC2B7v160006IJiiiRS1_ELi0EEEDpOT_, symObjAddr: 0xEB70, symBinAddr: 0x1000117F0, symSize: 0x4C }
  - { offsetInCU: 0x2D10D, offset: 0x2D10D, size: 0x8, addend: 0x0, symName: __ZNSt3__112__tuple_implINS_15__tuple_indicesIJLm0ELm1ELm2ELm3EEEEJiii9DirectionEEC1B7v160006IJLm0ELm1ELm2ELm3EEJiiiS3_EJEJEJiiiRS3_EEENS1_IJXspT_EEEENS_13__tuple_typesIJDpT0_EEENS1_IJXspT1_EEEENS8_IJDpT2_EEEDpOT3_, symObjAddr: 0xEBBC, symBinAddr: 0x10001183C, symSize: 0x4C }
  - { offsetInCU: 0x2D1FB, offset: 0x2D1FB, size: 0x8, addend: 0x0, symName: __ZNSt3__112__tuple_implINS_15__tuple_indicesIJLm0ELm1ELm2ELm3EEEEJiii9DirectionEEC2B7v160006IJLm0ELm1ELm2ELm3EEJiiiS3_EJEJEJiiiRS3_EEENS1_IJXspT_EEEENS_13__tuple_typesIJDpT0_EEENS1_IJXspT1_EEEENS8_IJDpT2_EEEDpOT3_, symObjAddr: 0xEC08, symBinAddr: 0x100011888, symSize: 0x70 }
  - { offsetInCU: 0x2D2E9, offset: 0x2D2E9, size: 0x8, addend: 0x0, symName: __ZNSt3__112__tuple_leafILm3E9DirectionLb0EEC2B7v160006IRS1_vEEOT_, symObjAddr: 0xEC78, symBinAddr: 0x1000118F8, symSize: 0x24 }
  - { offsetInCU: 0x2D32C, offset: 0x2D32C, size: 0x8, addend: 0x0, symName: __ZNSt3__16vectorINS_5tupleIJiii9DirectionEEENS_9allocatorIS3_EEE11__make_iterB7v160006EPS3_, symObjAddr: 0xEC9C, symBinAddr: 0x10001191C, symSize: 0x34 }
  - { offsetInCU: 0x2D361, offset: 0x2D361, size: 0x8, addend: 0x0, symName: __ZNSt3__111__wrap_iterIPNS_5tupleIJiii9DirectionEEEEC1B7v160006EPKvS4_, symObjAddr: 0xECD0, symBinAddr: 0x100011950, symSize: 0x3C }
  - { offsetInCU: 0x2D3A7, offset: 0x2D3A7, size: 0x8, addend: 0x0, symName: __ZNSt3__111__wrap_iterIPNS_5tupleIJiii9DirectionEEEEC2B7v160006EPKvS4_, symObjAddr: 0xED0C, symBinAddr: 0x10001198C, symSize: 0x24 }
  - { offsetInCU: 0x2D3ED, offset: 0x2D3ED, size: 0x8, addend: 0x0, symName: __ZNKSt3__111__wrap_iterIPNS_5tupleIJiii9DirectionEEEE4baseB7v160006Ev, symObjAddr: 0xED78, symBinAddr: 0x1000119F8, symSize: 0x18 }
  - { offsetInCU: 0x2D413, offset: 0x2D413, size: 0x8, addend: 0x0, symName: __ZNSt3__112__tuple_leafILm3E9DirectionLb0EE3getB7v160006Ev, symObjAddr: 0xED90, symBinAddr: 0x100011A10, symSize: 0x14 }
  - { offsetInCU: 0x2D439, offset: 0x2D439, size: 0x8, addend: 0x0, symName: __ZNSt3__112basic_stringIcNS_11char_traitsIcEENS_9allocatorIcEEE13__get_pointerB7v160006Ev, symObjAddr: 0xEDA4, symBinAddr: 0x100011A24, symSize: 0x54 }
  - { offsetInCU: 0x2D45F, offset: 0x2D45F, size: 0x8, addend: 0x0, symName: __ZNSt3__15tupleIJiiii9DirectionEEC2B7v160006IJRiS4_S4_S4_RS1_ELi0EEEDpOT_, symObjAddr: 0xEDF8, symBinAddr: 0x100011A78, symSize: 0x54 }
  - { offsetInCU: 0x2D4F9, offset: 0x2D4F9, size: 0x8, addend: 0x0, symName: __ZNSt3__112__tuple_implINS_15__tuple_indicesIJLm0ELm1ELm2ELm3ELm4EEEEJiiii9DirectionEEC1B7v160006IJLm0ELm1ELm2ELm3ELm4EEJiiiiS3_EJEJEJRiS6_S6_S6_RS3_EEENS1_IJXspT_EEEENS_13__tuple_typesIJDpT0_EEENS1_IJXspT1_EEEENS9_IJDpT2_EEEDpOT3_, symObjAddr: 0xEE4C, symBinAddr: 0x100011ACC, symSize: 0x54 }
  - { offsetInCU: 0x2D606, offset: 0x2D606, size: 0x8, addend: 0x0, symName: __ZNSt3__112__tuple_implINS_15__tuple_indicesIJLm0ELm1ELm2ELm3ELm4EEEEJiiii9DirectionEEC2B7v160006IJLm0ELm1ELm2ELm3ELm4EEJiiiiS3_EJEJEJRiS6_S6_S6_RS3_EEENS1_IJXspT_EEEENS_13__tuple_typesIJDpT0_EEENS1_IJXspT1_EEEENS9_IJDpT2_EEEDpOT3_, symObjAddr: 0xEEA0, symBinAddr: 0x100011B20, symSize: 0x84 }
  - { offsetInCU: 0x2D713, offset: 0x2D713, size: 0x8, addend: 0x0, symName: __ZNSt3__112__tuple_leafILm0EiLb0EEC2B7v160006IRivEEOT_, symObjAddr: 0xEF24, symBinAddr: 0x100011BA4, symSize: 0x24 }
  - { offsetInCU: 0x2D756, offset: 0x2D756, size: 0x8, addend: 0x0, symName: __ZNSt3__112__tuple_leafILm1EiLb0EEC2B7v160006IRivEEOT_, symObjAddr: 0xEF48, symBinAddr: 0x100011BC8, symSize: 0x24 }
  - { offsetInCU: 0x2D799, offset: 0x2D799, size: 0x8, addend: 0x0, symName: __ZNSt3__112__tuple_leafILm2EiLb0EEC2B7v160006IRivEEOT_, symObjAddr: 0xEF6C, symBinAddr: 0x100011BEC, symSize: 0x24 }
  - { offsetInCU: 0x2D7DC, offset: 0x2D7DC, size: 0x8, addend: 0x0, symName: __ZNSt3__112__tuple_leafILm3EiLb0EEC2B7v160006IRivEEOT_, symObjAddr: 0xEF90, symBinAddr: 0x100011C10, symSize: 0x24 }
  - { offsetInCU: 0x2D81F, offset: 0x2D81F, size: 0x8, addend: 0x0, symName: __ZNSt3__16vectorINS_5tupleIJiii9DirectionEEENS_9allocatorIS3_EEED2B7v160006Ev, symObjAddr: 0xEFB4, symBinAddr: 0x100011C34, symSize: 0x44 }
  - { offsetInCU: 0x2D849, offset: 0x2D849, size: 0x8, addend: 0x0, symName: __ZNSt3__16vectorINS_5tupleIJiii9DirectionEEENS_9allocatorIS3_EEE16__destroy_vectorC1ERS6_, symObjAddr: 0xEFF8, symBinAddr: 0x100011C78, symSize: 0x34 }
  - { offsetInCU: 0x2D882, offset: 0x2D882, size: 0x8, addend: 0x0, symName: __ZNSt3__16vectorINS_5tupleIJiii9DirectionEEENS_9allocatorIS3_EEE16__destroy_vectorclB7v160006Ev, symObjAddr: 0xF02C, symBinAddr: 0x100011CAC, symSize: 0x9C }
  - { offsetInCU: 0x2D8A8, offset: 0x2D8A8, size: 0x8, addend: 0x0, symName: __ZNSt3__16vectorINS_5tupleIJiii9DirectionEEENS_9allocatorIS3_EEE16__destroy_vectorC2ERS6_, symObjAddr: 0xF0C8, symBinAddr: 0x100011D48, symSize: 0x20 }
  - { offsetInCU: 0x2D8E1, offset: 0x2D8E1, size: 0x8, addend: 0x0, symName: __ZNSt3__16vectorINS_5tupleIJiii9DirectionEEENS_9allocatorIS3_EEE7__clearB7v160006Ev, symObjAddr: 0xF0F8, symBinAddr: 0x100011D78, symSize: 0x28 }
  - { offsetInCU: 0x2D907, offset: 0x2D907, size: 0x8, addend: 0x0, symName: __ZNSt3__16vectorINS_5tupleIJiii9DirectionEEENS_9allocatorIS3_EEE22__base_destruct_at_endB7v160006EPS3_, symObjAddr: 0xF120, symBinAddr: 0x100011DA0, symSize: 0x8C }
  - { offsetInCU: 0x2D956, offset: 0x2D956, size: 0x8, addend: 0x0, symName: __ZNKSt3__16__lessIiiEclB7v160006ERKiS3_, symObjAddr: 0xF200, symBinAddr: 0x100011E80, symSize: 0x34 }
  - { offsetInCU: 0x2D998, offset: 0x2D998, size: 0x8, addend: 0x0, symName: __ZNSt3__16vectorINS0_INS0_INS0_IiNS_9allocatorIiEEEENS1_IS3_EEEENS1_IS5_EEEENS1_IS7_EEED2B7v160006Ev, symObjAddr: 0xF234, symBinAddr: 0x100011EB4, symSize: 0x44 }
  - { offsetInCU: 0x2D9C2, offset: 0x2D9C2, size: 0x8, addend: 0x0, symName: __ZNSt3__114priority_queueINS_5tupleIJiiii9DirectionEEENS_6vectorIS3_NS_9allocatorIS3_EEEENS_4lessIS3_EEED2Ev, symObjAddr: 0xF278, symBinAddr: 0x100011EF8, symSize: 0x2C }
  - { offsetInCU: 0x2D9EF, offset: 0x2D9EF, size: 0x8, addend: 0x0, symName: __ZNSt3__16vectorINS_5tupleIJiiii9DirectionEEENS_9allocatorIS3_EEED1B7v160006Ev, symObjAddr: 0xF2A4, symBinAddr: 0x100011F24, symSize: 0x2C }
  - { offsetInCU: 0x2DA19, offset: 0x2DA19, size: 0x8, addend: 0x0, symName: __ZNSt3__16vectorINS_5tupleIJiiii9DirectionEEENS_9allocatorIS3_EEED2B7v160006Ev, symObjAddr: 0xF2D0, symBinAddr: 0x100011F50, symSize: 0x44 }
  - { offsetInCU: 0x2DA43, offset: 0x2DA43, size: 0x8, addend: 0x0, symName: __ZNSt3__16vectorINS_5tupleIJiiii9DirectionEEENS_9allocatorIS3_EEE16__destroy_vectorC1ERS6_, symObjAddr: 0xF314, symBinAddr: 0x100011F94, symSize: 0x34 }
  - { offsetInCU: 0x2DA7C, offset: 0x2DA7C, size: 0x8, addend: 0x0, symName: __ZNSt3__16vectorINS_5tupleIJiiii9DirectionEEENS_9allocatorIS3_EEE16__destroy_vectorclB7v160006Ev, symObjAddr: 0xF348, symBinAddr: 0x100011FC8, symSize: 0x9C }
  - { offsetInCU: 0x2DAA2, offset: 0x2DAA2, size: 0x8, addend: 0x0, symName: __ZNSt3__16vectorINS_5tupleIJiiii9DirectionEEENS_9allocatorIS3_EEE16__destroy_vectorC2ERS6_, symObjAddr: 0xF3E4, symBinAddr: 0x100012064, symSize: 0x20 }
  - { offsetInCU: 0x2DADB, offset: 0x2DADB, size: 0x8, addend: 0x0, symName: __ZNSt3__16vectorINS_5tupleIJiiii9DirectionEEENS_9allocatorIS3_EEE7__clearB7v160006Ev, symObjAddr: 0xF414, symBinAddr: 0x100012094, symSize: 0x28 }
  - { offsetInCU: 0x2DB01, offset: 0x2DB01, size: 0x8, addend: 0x0, symName: __ZN8SolutionD2Ev, symObjAddr: 0xF43C, symBinAddr: 0x1000120BC, symSize: 0x38 }
  - { offsetInCU: 0x2DB50, offset: 0x2DB50, size: 0x8, addend: 0x0, symName: __ZNKSt3__113basic_ostreamIcNS_11char_traitsIcEEE6sentrycvbB7v160006Ev, symObjAddr: 0xF660, symBinAddr: 0x1000122E0, symSize: 0x1C }
  - { offsetInCU: 0x2DB76, offset: 0x2DB76, size: 0x8, addend: 0x0, symName: __ZNSt3__119ostreambuf_iteratorIcNS_11char_traitsIcEEEC1B7v160006ERNS_13basic_ostreamIcS2_EE, symObjAddr: 0xF8BC, symBinAddr: 0x10001253C, symSize: 0x34 }
  - { offsetInCU: 0x2DBAE, offset: 0x2DBAE, size: 0x8, addend: 0x0, symName: __ZNKSt3__18ios_base5flagsB7v160006Ev, symObjAddr: 0xF8F0, symBinAddr: 0x100012570, symSize: 0x18 }
  - { offsetInCU: 0x2DBD6, offset: 0x2DBD6, size: 0x8, addend: 0x0, symName: __ZNKSt3__19basic_iosIcNS_11char_traitsIcEEE4fillB7v160006Ev, symObjAddr: 0xF908, symBinAddr: 0x100012588, symSize: 0x64 }
  - { offsetInCU: 0x2DBFE, offset: 0x2DBFE, size: 0x8, addend: 0x0, symName: __ZNKSt3__119ostreambuf_iteratorIcNS_11char_traitsIcEEE6failedB7v160006Ev, symObjAddr: 0xF96C, symBinAddr: 0x1000125EC, symSize: 0x24 }
  - { offsetInCU: 0x2DC24, offset: 0x2DC24, size: 0x8, addend: 0x0, symName: __ZNKSt3__18ios_base5widthB7v160006Ev, symObjAddr: 0xF990, symBinAddr: 0x100012610, symSize: 0x18 }
  - { offsetInCU: 0x2DC4C, offset: 0x2DC4C, size: 0x8, addend: 0x0, symName: __ZNSt3__115basic_streambufIcNS_11char_traitsIcEEE5sputnB7v160006EPKcl, symObjAddr: 0xF9A8, symBinAddr: 0x100012628, symSize: 0x3C }
  - { offsetInCU: 0x2DC8E, offset: 0x2DC8E, size: 0x8, addend: 0x0, symName: __ZNSt3__112basic_stringIcNS_11char_traitsIcEENS_9allocatorIcEEEC1B7v160006Emc, symObjAddr: 0xF9E4, symBinAddr: 0x100012664, symSize: 0x3C }
  - { offsetInCU: 0x2DCD6, offset: 0x2DCD6, size: 0x8, addend: 0x0, symName: __ZNSt3__112basic_stringIcNS_11char_traitsIcEENS_9allocatorIcEEE4dataB7v160006Ev, symObjAddr: 0xFA20, symBinAddr: 0x1000126A0, symSize: 0x28 }
  - { offsetInCU: 0x2DCFC, offset: 0x2DCFC, size: 0x8, addend: 0x0, symName: __ZNSt3__18ios_base5widthB7v160006El, symObjAddr: 0xFA48, symBinAddr: 0x1000126C8, symSize: 0x2C }
  - { offsetInCU: 0x2DD42, offset: 0x2DD42, size: 0x8, addend: 0x0, symName: __ZNSt3__112basic_stringIcNS_11char_traitsIcEENS_9allocatorIcEEEC2B7v160006Emc, symObjAddr: 0xFA74, symBinAddr: 0x1000126F4, symSize: 0x54 }
  - { offsetInCU: 0x2DD8A, offset: 0x2DD8A, size: 0x8, addend: 0x0, symName: __ZNSt3__119ostreambuf_iteratorIcNS_11char_traitsIcEEEC2B7v160006ERNS_13basic_ostreamIcS2_EE, symObjAddr: 0xFADC, symBinAddr: 0x10001275C, symSize: 0x54 }
...
