---
triple:          'arm64-apple-darwin'
binary-path:     '/Users/matteokinkela/Documents/advent-of-code/2023/day-5/solution'
relocations:
  - { offsetInCU: 0xE02A, offset: 0xE02A, size: 0x8, addend: 0x0, symName: __ZNSt3__124__put_character_sequenceB7v160006IcNS_11char_traitsIcEEEERNS_13basic_ostreamIT_T0_EES7_PKS4_m, symObjAddr: 0xD964, symBinAddr: 0x10000E1AC, symSize: 0x1EC }
  - { offsetInCU: 0xF0B6, offset: 0xF0B6, size: 0x8, addend: 0x0, symName: __ZNSt3__1lsB7v160006INS_11char_traitsIcEEEERNS_13basic_ostreamIcT_EES6_PKc, symObjAddr: 0x7B0, symBinAddr: 0x100000FF8, symSize: 0x48 }
  - { offsetInCU: 0xF0FC, offset: 0xF0FC, size: 0x8, addend: 0x0, symName: __ZNSt3__14endlB7v160006IcNS_11char_traitsIcEEEERNS_13basic_ostreamIT_T0_EES7_, symObjAddr: 0xA44, symBinAddr: 0x10000128C, symSize: 0x58 }
  - { offsetInCU: 0xF13C, offset: 0xF13C, size: 0x8, addend: 0x0, symName: __ZNSt3__119__debug_db_insert_cB7v160006INS_6vectorIxNS_9allocatorIxEEEEEEvPT_, symObjAddr: 0x1748, symBinAddr: 0x100001F90, symSize: 0x10 }
  - { offsetInCU: 0xF16D, offset: 0xF16D, size: 0x8, addend: 0x0, symName: __ZNSt3__119__debug_db_insert_cB7v160006INS_6vectorINS1_I5RangeNS_9allocatorIS2_EEEENS3_IS5_EEEEEEvPT_, symObjAddr: 0x18B4, symBinAddr: 0x1000020FC, symSize: 0x10 }
  - { offsetInCU: 0xF19E, offset: 0xF19E, size: 0x8, addend: 0x0, symName: __ZNSt3__112__to_addressB7v160006IKcEEPT_S3_, symObjAddr: 0x1A74, symBinAddr: 0x1000022BC, symSize: 0x14 }
  - { offsetInCU: 0xF206, offset: 0xF206, size: 0x8, addend: 0x0, symName: __ZNSt3__17getlineB7v160006IcNS_11char_traitsIcEENS_9allocatorIcEEEERNS_13basic_istreamIT_T0_EES9_RNS_12basic_stringIS6_S7_T1_EE, symObjAddr: 0x1BE4, symBinAddr: 0x10000242C, symSize: 0x5C }
  - { offsetInCU: 0xF25E, offset: 0xF25E, size: 0x8, addend: 0x0, symName: __ZNSt3__1neB7v160006IPNS_12basic_stringIcNS_11char_traitsIcEENS_9allocatorIcEEEEEEbRKNS_11__wrap_iterIT_EESC_, symObjAddr: 0x1CCC, symBinAddr: 0x100002514, symSize: 0x34 }
  - { offsetInCU: 0xF2A1, offset: 0xF2A1, size: 0x8, addend: 0x0, symName: __ZNSt3__1neB7v160006IcNS_11char_traitsIcEENS_9allocatorIcEEEEbRKNS_12basic_stringIT_T0_T1_EEPKS6_, symObjAddr: 0x1D18, symBinAddr: 0x100002560, symSize: 0x34 }
  - { offsetInCU: 0xF2F9, offset: 0xF2F9, size: 0x8, addend: 0x0, symName: __ZNSt3__1eqB7v160006IcNS_11char_traitsIcEENS_9allocatorIcEEEEbRKNS_12basic_stringIT_T0_T1_EEPKS6_, symObjAddr: 0x1E04, symBinAddr: 0x10000264C, symSize: 0xAC }
  - { offsetInCU: 0xF360, offset: 0xF360, size: 0x8, addend: 0x0, symName: __ZNSt3__17getlineB7v160006IcNS_11char_traitsIcEENS_9allocatorIcEEEERNS_13basic_istreamIT_T0_EES9_RNS_12basic_stringIS6_S7_T1_EES6_, symObjAddr: 0x204C, symBinAddr: 0x100002894, symSize: 0x238 }
  - { offsetInCU: 0xF41E, offset: 0xF41E, size: 0x8, addend: 0x0, symName: __ZNSt3__125__debug_db_invalidate_allB7v160006INS_12basic_stringIcNS_11char_traitsIcEENS_9allocatorIcEEEEEEvPT_, symObjAddr: 0x2638, symBinAddr: 0x100002E80, symSize: 0x10 }
  - { offsetInCU: 0xF684, offset: 0xF684, size: 0x8, addend: 0x0, symName: __ZNSt3__19use_facetB7v160006INS_5ctypeIcEEEERKT_RKNS_6localeE, symObjAddr: 0x2908, symBinAddr: 0x100003150, symSize: 0x2C }
  - { offsetInCU: 0xFB53, offset: 0xFB53, size: 0x8, addend: 0x0, symName: __ZNSt3__1eqB7v160006IPNS_12basic_stringIcNS_11char_traitsIcEENS_9allocatorIcEEEEEEbRKNS_11__wrap_iterIT_EESC_, symObjAddr: 0x2A00, symBinAddr: 0x100003248, symSize: 0x48 }
  - { offsetInCU: 0xFB96, offset: 0xFB96, size: 0x8, addend: 0x0, symName: __ZNSt3__112__to_addressB7v160006IxEEPT_S2_, symObjAddr: 0x2CC0, symBinAddr: 0x100003508, symSize: 0x14 }
  - { offsetInCU: 0xFBCB, offset: 0xFBCB, size: 0x8, addend: 0x0, symName: __ZNSt3__13maxB7v160006ImEERKT_S3_S3_, symObjAddr: 0x30E4, symBinAddr: 0x10000392C, symSize: 0x2C }
  - { offsetInCU: 0xFC0E, offset: 0xFC0E, size: 0x8, addend: 0x0, symName: __ZNSt3__13minB7v160006ImEERKT_S3_S3_, symObjAddr: 0x3110, symBinAddr: 0x100003958, symSize: 0x2C }
  - { offsetInCU: 0xFE52, offset: 0xFE52, size: 0x8, addend: 0x0, symName: __ZNSt3__13minB7v160006ImNS_6__lessImmEEEERKT_S5_S5_T0_, symObjAddr: 0x319C, symBinAddr: 0x1000039E4, symSize: 0x54 }
  - { offsetInCU: 0xFEE7, offset: 0xFEE7, size: 0x8, addend: 0x0, symName: __ZNSt3__120__throw_length_errorB7v160006EPKc, symObjAddr: 0x3278, symBinAddr: 0x100003AC0, symSize: 0x64 }
  - { offsetInCU: 0xFF0F, offset: 0xFF0F, size: 0x8, addend: 0x0, symName: __ZNSt3__13maxB7v160006ImNS_6__lessImmEEEERKT_S5_S5_T0_, symObjAddr: 0x33BC, symBinAddr: 0x100003C04, symSize: 0x54 }
  - { offsetInCU: 0xFF69, offset: 0xFF69, size: 0x8, addend: 0x0, symName: __ZNSt3__119__allocate_at_leastB7v160006INS_9allocatorIxEEEENS_19__allocation_resultINS_16allocator_traitsIT_E7pointerEEERS5_m, symObjAddr: 0x3520, symBinAddr: 0x100003D68, symSize: 0x40 }
  - { offsetInCU: 0xFFAC, offset: 0xFFAC, size: 0x8, addend: 0x0, symName: __ZNSt3__117__libcpp_allocateB7v160006Emm, symObjAddr: 0x36A4, symBinAddr: 0x100003EEC, symSize: 0x28 }
  - { offsetInCU: 0xFFE9, offset: 0xFFE9, size: 0x8, addend: 0x0, symName: __ZNSt3__121__libcpp_operator_newB7v160006IJmEEEPvDpT_, symObjAddr: 0x36CC, symBinAddr: 0x100003F14, symSize: 0x24 }
  - { offsetInCU: 0x10022, offset: 0x10022, size: 0x8, addend: 0x0, symName: __ZNSt3__142__uninitialized_allocator_move_if_noexceptB7v160006INS_9allocatorIxEENS_16reverse_iteratorIPxEES5_xvEET1_RT_T0_S9_S6_, symObjAddr: 0x380C, symBinAddr: 0x100004054, symSize: 0x78 }
  - { offsetInCU: 0x1009F, offset: 0x1009F, size: 0x8, addend: 0x0, symName: __ZNSt3__14swapB7v160006IPxEENS_9enable_ifIXaasr21is_move_constructibleIT_EE5valuesr18is_move_assignableIS3_EE5valueEvE4typeERS3_S6_, symObjAddr: 0x38D0, symBinAddr: 0x100004118, symSize: 0x3C }
  - { offsetInCU: 0x100F0, offset: 0x100F0, size: 0x8, addend: 0x0, symName: __ZNSt3__125__debug_db_invalidate_allB7v160006INS_6vectorIxNS_9allocatorIxEEEEEEvPT_, symObjAddr: 0x39B8, symBinAddr: 0x100004200, symSize: 0x10 }
  - { offsetInCU: 0x10121, offset: 0x10121, size: 0x8, addend: 0x0, symName: __ZNSt3__14moveB7v160006INS_16reverse_iteratorIPxEES3_EET0_T_S5_S4_, symObjAddr: 0x3A10, symBinAddr: 0x100004258, symSize: 0x78 }
  - { offsetInCU: 0x1017B, offset: 0x1017B, size: 0x8, addend: 0x0, symName: __ZNSt3__16__moveB7v160006INS_17_ClassicAlgPolicyENS_16reverse_iteratorIPxEES4_S4_EENS_4pairIT0_T2_EES6_T1_S7_, symObjAddr: 0x3A88, symBinAddr: 0x1000042D0, symSize: 0x64 }
  - { offsetInCU: 0x101E7, offset: 0x101E7, size: 0x8, addend: 0x0, symName: __ZNSt3__123__dispatch_copy_or_moveB7v160006INS_17_ClassicAlgPolicyENS_11__move_loopIS1_EENS_14__move_trivialENS_16reverse_iteratorIPxEES7_S7_EENS_4pairIT2_T4_EES9_T3_SA_, symObjAddr: 0x3AEC, symBinAddr: 0x100004334, symSize: 0x64 }
  - { offsetInCU: 0x10265, offset: 0x10265, size: 0x8, addend: 0x0, symName: __ZNSt3__121__unwrap_and_dispatchB7v160006INS_10__overloadINS_11__move_loopINS_17_ClassicAlgPolicyEEENS_14__move_trivialEEENS_16reverse_iteratorIPxEES9_S9_Li0EEENS_4pairIT0_T2_EESB_T1_SC_, symObjAddr: 0x3B50, symBinAddr: 0x100004398, symSize: 0x12C }
  - { offsetInCU: 0x102F5, offset: 0x102F5, size: 0x8, addend: 0x0, symName: __ZNSt3__114__unwrap_rangeB7v160006INS_16reverse_iteratorIPxEES3_EENS_4pairIT0_S5_EET_S7_, symObjAddr: 0x3C7C, symBinAddr: 0x1000044C4, symSize: 0x84 }
  - { offsetInCU: 0x104AF, offset: 0x104AF, size: 0x8, addend: 0x0, symName: __ZNSt3__113__unwrap_iterB7v160006INS_16reverse_iteratorIPxEENS_18__unwrap_iter_implIS3_Lb0EEELi0EEEDTclsrT0_8__unwrapclsr3stdE7declvalIT_EEEES7_, symObjAddr: 0x3DA0, symBinAddr: 0x1000045E8, symSize: 0x44 }
  - { offsetInCU: 0x104F3, offset: 0x104F3, size: 0x8, addend: 0x0, symName: __ZNSt3__19make_pairB7v160006INS_16reverse_iteratorIPxEES3_EENS_4pairINS_18__unwrap_ref_decayIT_E4typeENS5_IT0_E4typeEEEOS6_OS9_, symObjAddr: 0x3DE4, symBinAddr: 0x10000462C, symSize: 0x38 }
  - { offsetInCU: 0x10542, offset: 0x10542, size: 0x8, addend: 0x0, symName: __ZNSt3__114__rewrap_rangeB7v160006INS_16reverse_iteratorIPxEES3_EET_S4_T0_, symObjAddr: 0x3E1C, symBinAddr: 0x100004664, symSize: 0x5C }
  - { offsetInCU: 0x1058E, offset: 0x1058E, size: 0x8, addend: 0x0, symName: __ZNSt3__113__rewrap_iterB7v160006INS_16reverse_iteratorIPxEES3_NS_18__unwrap_iter_implIS3_Lb0EEEEET_S6_T0_, symObjAddr: 0x3E78, symBinAddr: 0x1000046C0, symSize: 0x74 }
  - { offsetInCU: 0x105E3, offset: 0x105E3, size: 0x8, addend: 0x0, symName: __ZNSt3__1neB7v160006IPxS1_EEbRKNS_16reverse_iteratorIT_EERKNS2_IT0_EE, symObjAddr: 0x3EEC, symBinAddr: 0x100004734, symSize: 0x48 }
  - { offsetInCU: 0x1073C, offset: 0x1073C, size: 0x8, addend: 0x0, symName: __ZNSt3__119__libcpp_deallocateB7v160006EPvmm, symObjAddr: 0x42E4, symBinAddr: 0x100004B2C, symSize: 0x30 }
  - { offsetInCU: 0x10784, offset: 0x10784, size: 0x8, addend: 0x0, symName: __ZNSt3__127__do_deallocate_handle_sizeB7v160006IJEEEvPvmDpT_, symObjAddr: 0x4314, symBinAddr: 0x100004B5C, symSize: 0x28 }
  - { offsetInCU: 0x107C2, offset: 0x107C2, size: 0x8, addend: 0x0, symName: __ZNSt3__124__libcpp_operator_deleteB7v160006IJPvEEEvDpT_, symObjAddr: 0x433C, symBinAddr: 0x100004B84, symSize: 0x24 }
  - { offsetInCU: 0x107F7, offset: 0x107F7, size: 0x8, addend: 0x0, symName: __ZNSt3__119__debug_db_insert_cB7v160006INS_6vectorI5RangeNS_9allocatorIS2_EEEEEEvPT_, symObjAddr: 0x4440, symBinAddr: 0x100004C88, symSize: 0x10 }
  - { offsetInCU: 0x10828, offset: 0x10828, size: 0x8, addend: 0x0, symName: __ZNSt3__118__constexpr_strlenB7v160006EPKc, symObjAddr: 0x454C, symBinAddr: 0x100004D94, symSize: 0x24 }
  - { offsetInCU: 0x10854, offset: 0x10854, size: 0x8, addend: 0x0, symName: __ZNSt3__112__to_addressB7v160006INS_6vectorI5RangeNS_9allocatorIS2_EEEEEEPT_S7_, symObjAddr: 0x47D0, symBinAddr: 0x100005018, symSize: 0x14 }
  - { offsetInCU: 0x10889, offset: 0x10889, size: 0x8, addend: 0x0, symName: __ZNSt3__122__make_exception_guardB7v160006INS_6vectorI5RangeNS_9allocatorIS2_EEE16__destroy_vectorEEENS_28__exception_guard_exceptionsIT_EES8_, symObjAddr: 0x4A44, symBinAddr: 0x10000528C, symSize: 0x40 }
  - { offsetInCU: 0x108BE, offset: 0x108BE, size: 0x8, addend: 0x0, symName: __ZNSt3__119__allocate_at_leastB7v160006INS_9allocatorI5RangeEEEENS_19__allocation_resultINS_16allocator_traitsIT_E7pointerEEERS6_m, symObjAddr: 0x4DF0, symBinAddr: 0x100005638, symSize: 0x40 }
  - { offsetInCU: 0x10901, offset: 0x10901, size: 0x8, addend: 0x0, symName: __ZNSt3__112__to_addressB7v160006I5RangeEEPT_S3_, symObjAddr: 0x50D8, symBinAddr: 0x100005920, symSize: 0x14 }
  - { offsetInCU: 0x10936, offset: 0x10936, size: 0x8, addend: 0x0, symName: __ZNSt3__130__uninitialized_allocator_copyB7v160006INS_9allocatorI5RangeEEPS2_S4_S4_EET2_RT_T0_T1_S5_, symObjAddr: 0x5188, symBinAddr: 0x1000059D0, symSize: 0xF4 }
  - { offsetInCU: 0x109D4, offset: 0x109D4, size: 0x8, addend: 0x0, symName: __ZNSt3__122__make_exception_guardB7v160006INS_29_AllocatorDestroyRangeReverseINS_9allocatorI5RangeEEPS3_EEEENS_28__exception_guard_exceptionsIT_EES8_, symObjAddr: 0x52F4, symBinAddr: 0x100005B3C, symSize: 0x4C }
  - { offsetInCU: 0x10A0A, offset: 0x10A0A, size: 0x8, addend: 0x0, symName: __ZNSt3__119__allocator_destroyB7v160006INS_9allocatorI5RangeEENS_16reverse_iteratorIPS2_EES6_EEvRT_T0_T1_, symObjAddr: 0x5584, symBinAddr: 0x100005DCC, symSize: 0x70 }
  - { offsetInCU: 0x10A6D, offset: 0x10A6D, size: 0x8, addend: 0x0, symName: __ZNSt3__1neB7v160006IP5RangeS2_EEbRKNS_16reverse_iteratorIT_EERKNS3_IT0_EE, symObjAddr: 0x5628, symBinAddr: 0x100005E70, symSize: 0x48 }
  - { offsetInCU: 0x10AB9, offset: 0x10AB9, size: 0x8, addend: 0x0, symName: __ZNSt3__112__to_addressB7v160006INS_16reverse_iteratorIP5RangeEEvEENS_5decayIDTclsr19__to_address_helperIT_EE6__callclsr3stdE7declvalIRKS6_EEEEE4typeES8_, symObjAddr: 0x569C, symBinAddr: 0x100005EE4, symSize: 0x24 }
  - { offsetInCU: 0x10B18, offset: 0x10B18, size: 0x8, addend: 0x0, symName: __ZNSt3__118__debug_db_erase_cB7v160006INS_6vectorI5RangeNS_9allocatorIS2_EEEEEEvPT_, symObjAddr: 0x5998, symBinAddr: 0x1000061E0, symSize: 0x10 }
  - { offsetInCU: 0x10B49, offset: 0x10B49, size: 0x8, addend: 0x0, symName: __ZNSt3__119__allocate_at_leastB7v160006INS_9allocatorINS_6vectorI5RangeNS1_IS3_EEEEEEEENS_19__allocation_resultINS_16allocator_traitsIT_E7pointerEEERS9_m, symObjAddr: 0x6064, symBinAddr: 0x1000068AC, symSize: 0x40 }
  - { offsetInCU: 0x10B8C, offset: 0x10B8C, size: 0x8, addend: 0x0, symName: __ZNSt3__142__uninitialized_allocator_move_if_noexceptB7v160006INS_9allocatorINS_6vectorI5RangeNS1_IS3_EEEEEENS_16reverse_iteratorIPS5_EES9_S9_EET2_RT_T0_T1_SA_, symObjAddr: 0x62F0, symBinAddr: 0x100006B38, symSize: 0x12C }
  - { offsetInCU: 0x10C2C, offset: 0x10C2C, size: 0x8, addend: 0x0, symName: __ZNSt3__14swapB7v160006IPNS_6vectorI5RangeNS_9allocatorIS2_EEEEEENS_9enable_ifIXaasr21is_move_constructibleIT_EE5valuesr18is_move_assignableIS8_EE5valueEvE4typeERS8_SB_, symObjAddr: 0x6468, symBinAddr: 0x100006CB0, symSize: 0x3C }
  - { offsetInCU: 0x10C7D, offset: 0x10C7D, size: 0x8, addend: 0x0, symName: __ZNSt3__125__debug_db_invalidate_allB7v160006INS_6vectorINS1_I5RangeNS_9allocatorIS2_EEEENS3_IS5_EEEEEEvPT_, symObjAddr: 0x656C, symBinAddr: 0x100006DB4, symSize: 0x10 }
  - { offsetInCU: 0x10CAE, offset: 0x10CAE, size: 0x8, addend: 0x0, symName: __ZNSt3__122__make_exception_guardB7v160006INS_29_AllocatorDestroyRangeReverseINS_9allocatorINS_6vectorI5RangeNS2_IS4_EEEEEENS_16reverse_iteratorIPS6_EEEEEENS_28__exception_guard_exceptionsIT_EESD_, symObjAddr: 0x65C4, symBinAddr: 0x100006E0C, symSize: 0x4C }
  - { offsetInCU: 0x10CE4, offset: 0x10CE4, size: 0x8, addend: 0x0, symName: __ZNSt3__1neB7v160006IPNS_6vectorI5RangeNS_9allocatorIS2_EEEES6_EEbRKNS_16reverse_iteratorIT_EERKNS7_IT0_EE, symObjAddr: 0x6654, symBinAddr: 0x100006E9C, symSize: 0x48 }
  - { offsetInCU: 0x10D30, offset: 0x10D30, size: 0x8, addend: 0x0, symName: __ZNSt3__112__to_addressB7v160006INS_16reverse_iteratorIPNS_6vectorI5RangeNS_9allocatorIS3_EEEEEEvEENS_5decayIDTclsr19__to_address_helperIT_EE6__callclsr3stdE7declvalIRKSA_EEEEE4typeESC_, symObjAddr: 0x66D0, symBinAddr: 0x100006F18, symSize: 0x24 }
  - { offsetInCU: 0x10D66, offset: 0x10D66, size: 0x8, addend: 0x0, symName: __ZNSt3__115__debug_db_swapB7v160006INS_6vectorI5RangeNS_9allocatorIS2_EEEEEEvPT_S7_, symObjAddr: 0x6960, symBinAddr: 0x1000071A8, symSize: 0x14 }
  - { offsetInCU: 0x10DCE, offset: 0x10DCE, size: 0x8, addend: 0x0, symName: __ZNSt3__119__allocator_destroyB7v160006INS_9allocatorINS_6vectorI5RangeNS1_IS3_EEEEEENS_16reverse_iteratorINS7_IPS5_EEEESA_EEvRT_T0_T1_, symObjAddr: 0x6AD4, symBinAddr: 0x10000731C, symSize: 0x70 }
  - { offsetInCU: 0x10E33, offset: 0x10E33, size: 0x8, addend: 0x0, symName: __ZNSt3__1neB7v160006INS_16reverse_iteratorIPNS_6vectorI5RangeNS_9allocatorIS3_EEEEEES8_EEbRKNS1_IT_EERKNS1_IT0_EE, symObjAddr: 0x6B80, symBinAddr: 0x1000073C8, symSize: 0x60 }
  - { offsetInCU: 0x10E7F, offset: 0x10E7F, size: 0x8, addend: 0x0, symName: __ZNSt3__112__to_addressB7v160006INS_16reverse_iteratorINS1_IPNS_6vectorI5RangeNS_9allocatorIS3_EEEEEEEEvEENS_5decayIDTclsr19__to_address_helperIT_EE6__callclsr3stdE7declvalIRKSB_EEEEE4typeESD_, symObjAddr: 0x6C0C, symBinAddr: 0x100007454, symSize: 0x24 }
  - { offsetInCU: 0x10EDE, offset: 0x10EDE, size: 0x8, addend: 0x0, symName: __ZNSt3__125__debug_db_invalidate_allB7v160006INS_6vectorI5RangeNS_9allocatorIS2_EEEEEEvPT_, symObjAddr: 0x70E4, symBinAddr: 0x10000792C, symSize: 0x10 }
  - { offsetInCU: 0x10F0F, offset: 0x10F0F, size: 0x8, addend: 0x0, symName: __ZNSt3__142__uninitialized_allocator_move_if_noexceptB7v160006INS_9allocatorI5RangeEENS_16reverse_iteratorIPS2_EES6_S2_vEET1_RT_T0_SA_S7_, symObjAddr: 0x7734, symBinAddr: 0x100007F7C, symSize: 0x78 }
  - { offsetInCU: 0x10F8C, offset: 0x10F8C, size: 0x8, addend: 0x0, symName: __ZNSt3__14swapB7v160006IP5RangeEENS_9enable_ifIXaasr21is_move_constructibleIT_EE5valuesr18is_move_assignableIS4_EE5valueEvE4typeERS4_S7_, symObjAddr: 0x77AC, symBinAddr: 0x100007FF4, symSize: 0x3C }
  - { offsetInCU: 0x10FDD, offset: 0x10FDD, size: 0x8, addend: 0x0, symName: __ZNSt3__14moveB7v160006INS_16reverse_iteratorIP5RangeEES4_EET0_T_S6_S5_, symObjAddr: 0x77E8, symBinAddr: 0x100008030, symSize: 0x78 }
  - { offsetInCU: 0x11037, offset: 0x11037, size: 0x8, addend: 0x0, symName: __ZNSt3__16__moveB7v160006INS_17_ClassicAlgPolicyENS_16reverse_iteratorIP5RangeEES5_S5_EENS_4pairIT0_T2_EES7_T1_S8_, symObjAddr: 0x7860, symBinAddr: 0x1000080A8, symSize: 0x64 }
  - { offsetInCU: 0x110A3, offset: 0x110A3, size: 0x8, addend: 0x0, symName: __ZNSt3__123__dispatch_copy_or_moveB7v160006INS_17_ClassicAlgPolicyENS_11__move_loopIS1_EENS_14__move_trivialENS_16reverse_iteratorIP5RangeEES8_S8_EENS_4pairIT2_T4_EESA_T3_SB_, symObjAddr: 0x78C4, symBinAddr: 0x10000810C, symSize: 0x64 }
  - { offsetInCU: 0x11121, offset: 0x11121, size: 0x8, addend: 0x0, symName: __ZNSt3__121__unwrap_and_dispatchB7v160006INS_10__overloadINS_11__move_loopINS_17_ClassicAlgPolicyEEENS_14__move_trivialEEENS_16reverse_iteratorIP5RangeEESA_SA_Li0EEENS_4pairIT0_T2_EESC_T1_SD_, symObjAddr: 0x7928, symBinAddr: 0x100008170, symSize: 0x12C }
  - { offsetInCU: 0x111B1, offset: 0x111B1, size: 0x8, addend: 0x0, symName: __ZNSt3__114__unwrap_rangeB7v160006INS_16reverse_iteratorIP5RangeEES4_EENS_4pairIT0_S6_EET_S8_, symObjAddr: 0x7A54, symBinAddr: 0x10000829C, symSize: 0x84 }
  - { offsetInCU: 0x112D1, offset: 0x112D1, size: 0x8, addend: 0x0, symName: __ZNSt3__113__unwrap_iterB7v160006INS_16reverse_iteratorIP5RangeEENS_18__unwrap_iter_implIS4_Lb0EEELi0EEEDTclsrT0_8__unwrapclsr3stdE7declvalIT_EEEES8_, symObjAddr: 0x7B80, symBinAddr: 0x1000083C8, symSize: 0x44 }
  - { offsetInCU: 0x11315, offset: 0x11315, size: 0x8, addend: 0x0, symName: __ZNSt3__19make_pairB7v160006INS_16reverse_iteratorIP5RangeEES4_EENS_4pairINS_18__unwrap_ref_decayIT_E4typeENS6_IT0_E4typeEEEOS7_OSA_, symObjAddr: 0x7BC4, symBinAddr: 0x10000840C, symSize: 0x38 }
  - { offsetInCU: 0x11364, offset: 0x11364, size: 0x8, addend: 0x0, symName: __ZNSt3__114__rewrap_rangeB7v160006INS_16reverse_iteratorIP5RangeEES4_EET_S5_T0_, symObjAddr: 0x7BFC, symBinAddr: 0x100008444, symSize: 0x5C }
  - { offsetInCU: 0x113B0, offset: 0x113B0, size: 0x8, addend: 0x0, symName: __ZNSt3__113__rewrap_iterB7v160006INS_16reverse_iteratorIP5RangeEES4_NS_18__unwrap_iter_implIS4_Lb0EEEEET_S7_T0_, symObjAddr: 0x7C58, symBinAddr: 0x1000084A0, symSize: 0x74 }
  - { offsetInCU: 0x11471, offset: 0x11471, size: 0x8, addend: 0x0, symName: __ZNSt3__118__debug_db_erase_cB7v160006INS_6vectorINS1_I5RangeNS_9allocatorIS2_EEEENS3_IS5_EEEEEEvPT_, symObjAddr: 0x8154, symBinAddr: 0x10000899C, symSize: 0x10 }
  - { offsetInCU: 0x114A2, offset: 0x114A2, size: 0x8, addend: 0x0, symName: __ZNSt3__118__debug_db_erase_cB7v160006INS_6vectorIxNS_9allocatorIxEEEEEEvPT_, symObjAddr: 0x834C, symBinAddr: 0x100008B94, symSize: 0x10 }
  - { offsetInCU: 0x114D3, offset: 0x114D3, size: 0x8, addend: 0x0, symName: __ZNSt3__1neB7v160006IPNS_6vectorI5RangeNS_9allocatorIS2_EEEEEEbRKNS_11__wrap_iterIT_EESB_, symObjAddr: 0x84DC, symBinAddr: 0x100008D24, symSize: 0x34 }
  - { offsetInCU: 0x11516, offset: 0x11516, size: 0x8, addend: 0x0, symName: __ZNSt3__1neB7v160006IPxEEbRKNS_11__wrap_iterIT_EES6_, symObjAddr: 0x8588, symBinAddr: 0x100008DD0, symSize: 0x34 }
  - { offsetInCU: 0x11559, offset: 0x11559, size: 0x8, addend: 0x0, symName: __ZNSt3__1neB7v160006IP5RangeEEbRKNS_11__wrap_iterIT_EES7_, symObjAddr: 0x8634, symBinAddr: 0x100008E7C, symSize: 0x34 }
  - { offsetInCU: 0x1159C, offset: 0x1159C, size: 0x8, addend: 0x0, symName: __ZNSt3__13minB7v160006IxEERKT_S3_S3_, symObjAddr: 0x86E0, symBinAddr: 0x100008F28, symSize: 0x2C }
  - { offsetInCU: 0x115DF, offset: 0x115DF, size: 0x8, addend: 0x0, symName: __ZNSt3__1eqB7v160006IPNS_6vectorI5RangeNS_9allocatorIS2_EEEEEEbRKNS_11__wrap_iterIT_EESB_, symObjAddr: 0x87A0, symBinAddr: 0x100008FE8, symSize: 0x48 }
  - { offsetInCU: 0x11622, offset: 0x11622, size: 0x8, addend: 0x0, symName: __ZNSt3__1eqB7v160006IPxEEbRKNS_11__wrap_iterIT_EES6_, symObjAddr: 0x8894, symBinAddr: 0x1000090DC, symSize: 0x48 }
  - { offsetInCU: 0x11665, offset: 0x11665, size: 0x8, addend: 0x0, symName: __ZNSt3__1eqB7v160006IP5RangeEEbRKNS_11__wrap_iterIT_EES7_, symObjAddr: 0x8988, symBinAddr: 0x1000091D0, symSize: 0x48 }
  - { offsetInCU: 0x116A8, offset: 0x116A8, size: 0x8, addend: 0x0, symName: __ZNSt3__13minB7v160006IxNS_6__lessIxxEEEERKT_S5_S5_T0_, symObjAddr: 0x89E8, symBinAddr: 0x100009230, symSize: 0x54 }
  - { offsetInCU: 0x1173D, offset: 0x1173D, size: 0x8, addend: 0x0, symName: __ZNSt3__19make_pairB7v160006IRxxEENS_4pairINS_18__unwrap_ref_decayIT_E4typeENS3_IT0_E4typeEEEOS4_OS7_, symObjAddr: 0x8B08, symBinAddr: 0x100009350, symSize: 0x38 }
  - { offsetInCU: 0x1178C, offset: 0x1178C, size: 0x8, addend: 0x0, symName: __ZNSt3__17reverseB7v160006INS_11__wrap_iterIPNS_6vectorI5RangeNS_9allocatorIS3_EEEEEEEEvT_S9_, symObjAddr: 0x8B64, symBinAddr: 0x1000093AC, symSize: 0x3C }
  - { offsetInCU: 0x117CB, offset: 0x117CB, size: 0x8, addend: 0x0, symName: __ZNSt3__119__debug_db_insert_cB7v160006INS_6vectorINS_4pairIxxEENS_9allocatorIS3_EEEEEEvPT_, symObjAddr: 0x8E94, symBinAddr: 0x1000096DC, symSize: 0x10 }
  - { offsetInCU: 0x117FC, offset: 0x117FC, size: 0x8, addend: 0x0, symName: __ZNSt3__112__to_addressB7v160006INS_4pairIxxEEEEPT_S4_, symObjAddr: 0x91CC, symBinAddr: 0x100009A14, symSize: 0x14 }
  - { offsetInCU: 0x11831, offset: 0x11831, size: 0x8, addend: 0x0, symName: __ZNSt3__119__allocate_at_leastB7v160006INS_9allocatorINS_4pairIxxEEEEEENS_19__allocation_resultINS_16allocator_traitsIT_E7pointerEEERS7_m, symObjAddr: 0x97F8, symBinAddr: 0x10000A040, symSize: 0x40 }
  - { offsetInCU: 0x11874, offset: 0x11874, size: 0x8, addend: 0x0, symName: __ZNSt3__142__uninitialized_allocator_move_if_noexceptB7v160006INS_9allocatorINS_4pairIxxEEEENS_16reverse_iteratorIPS3_EES7_S7_EET2_RT_T0_T1_S8_, symObjAddr: 0x9A64, symBinAddr: 0x10000A2AC, symSize: 0x12C }
  - { offsetInCU: 0x11914, offset: 0x11914, size: 0x8, addend: 0x0, symName: __ZNSt3__14swapB7v160006IPNS_4pairIxxEEEENS_9enable_ifIXaasr21is_move_constructibleIT_EE5valuesr18is_move_assignableIS5_EE5valueEvE4typeERS5_S8_, symObjAddr: 0x9BDC, symBinAddr: 0x10000A424, symSize: 0x3C }
  - { offsetInCU: 0x11965, offset: 0x11965, size: 0x8, addend: 0x0, symName: __ZNSt3__125__debug_db_invalidate_allB7v160006INS_6vectorINS_4pairIxxEENS_9allocatorIS3_EEEEEEvPT_, symObjAddr: 0x9CC4, symBinAddr: 0x10000A50C, symSize: 0x10 }
  - { offsetInCU: 0x11996, offset: 0x11996, size: 0x8, addend: 0x0, symName: __ZNSt3__122__make_exception_guardB7v160006INS_29_AllocatorDestroyRangeReverseINS_9allocatorINS_4pairIxxEEEENS_16reverse_iteratorIPS4_EEEEEENS_28__exception_guard_exceptionsIT_EESB_, symObjAddr: 0x9D1C, symBinAddr: 0x10000A564, symSize: 0x4C }
  - { offsetInCU: 0x119CC, offset: 0x119CC, size: 0x8, addend: 0x0, symName: __ZNSt3__1neB7v160006IPNS_4pairIxxEES3_EEbRKNS_16reverse_iteratorIT_EERKNS4_IT0_EE, symObjAddr: 0x9DAC, symBinAddr: 0x10000A5F4, symSize: 0x48 }
  - { offsetInCU: 0x11A18, offset: 0x11A18, size: 0x8, addend: 0x0, symName: __ZNSt3__112__to_addressB7v160006INS_16reverse_iteratorIPNS_4pairIxxEEEEvEENS_5decayIDTclsr19__to_address_helperIT_EE6__callclsr3stdE7declvalIRKS7_EEEEE4typeES9_, symObjAddr: 0x9DF4, symBinAddr: 0x10000A63C, symSize: 0x24 }
  - { offsetInCU: 0x11A77, offset: 0x11A77, size: 0x8, addend: 0x0, symName: __ZNSt3__119__allocator_destroyB7v160006INS_9allocatorINS_4pairIxxEEEENS_16reverse_iteratorINS5_IPS3_EEEES8_EEvRT_T0_T1_, symObjAddr: 0xA0A4, symBinAddr: 0x10000A8EC, symSize: 0x70 }
  - { offsetInCU: 0x11ADC, offset: 0x11ADC, size: 0x8, addend: 0x0, symName: __ZNSt3__1neB7v160006INS_16reverse_iteratorIPNS_4pairIxxEEEES5_EEbRKNS1_IT_EERKNS1_IT0_EE, symObjAddr: 0xA150, symBinAddr: 0x10000A998, symSize: 0x60 }
  - { offsetInCU: 0x11B28, offset: 0x11B28, size: 0x8, addend: 0x0, symName: __ZNSt3__112__to_addressB7v160006INS_16reverse_iteratorINS1_IPNS_4pairIxxEEEEEEvEENS_5decayIDTclsr19__to_address_helperIT_EE6__callclsr3stdE7declvalIRKS8_EEEEE4typeESA_, symObjAddr: 0xA1DC, symBinAddr: 0x10000AA24, symSize: 0x24 }
  - { offsetInCU: 0x11B87, offset: 0x11B87, size: 0x8, addend: 0x0, symName: __ZNSt3__19__reverseB7v160006INS_17_ClassicAlgPolicyENS_11__wrap_iterIPNS_6vectorI5RangeNS_9allocatorIS4_EEEEEES9_EEvT0_T1_, symObjAddr: 0xA63C, symBinAddr: 0x10000AE84, symSize: 0x3C }
  - { offsetInCU: 0x11BD8, offset: 0x11BD8, size: 0x8, addend: 0x0, symName: __ZNSt3__114__reverse_implB7v160006INS_17_ClassicAlgPolicyENS_11__wrap_iterIPNS_6vectorI5RangeNS_9allocatorIS4_EEEEEEEEvT0_SA_NS_26random_access_iterator_tagE, symObjAddr: 0xA678, symBinAddr: 0x10000AEC0, symSize: 0x7C }
  - { offsetInCU: 0x11C2A, offset: 0x11C2A, size: 0x8, addend: 0x0, symName: __ZNSt3__1ltB7v160006IPNS_6vectorI5RangeNS_9allocatorIS2_EEEEEEbRKNS_11__wrap_iterIT_EESB_, symObjAddr: 0xA6F4, symBinAddr: 0x10000AF3C, symSize: 0x48 }
  - { offsetInCU: 0x11C6D, offset: 0x11C6D, size: 0x8, addend: 0x0, symName: __ZNSt3__19iter_swapB7v160006INS_11__wrap_iterIPNS_6vectorI5RangeNS_9allocatorIS3_EEEEEES8_EEvT_T0_, symObjAddr: 0xA7A0, symBinAddr: 0x10000AFE8, symSize: 0x50 }
  - { offsetInCU: 0x11CB5, offset: 0x11CB5, size: 0x8, addend: 0x0, symName: __ZNSt3__14swapB7v160006I5RangeNS_9allocatorIS1_EEEEvRNS_6vectorIT_T0_EES8_, symObjAddr: 0xA7F0, symBinAddr: 0x10000B038, symSize: 0x2C }
  - { offsetInCU: 0x11D00, offset: 0x11D00, size: 0x8, addend: 0x0, symName: __ZNSt3__116__swap_allocatorB7v160006INS_9allocatorI5RangeEEEEvRT_S5_NS_17integral_constantIbLb0EEE, symObjAddr: 0xA8AC, symBinAddr: 0x10000B0F4, symSize: 0x14 }
  - { offsetInCU: 0x11D41, offset: 0x11D41, size: 0x8, addend: 0x0, symName: __ZNSt3__1neB7v160006IPNS_4pairIxxEEEEbRKNS_11__wrap_iterIT_EES8_, symObjAddr: 0xA920, symBinAddr: 0x10000B168, symSize: 0x34 }
  - { offsetInCU: 0x11D84, offset: 0x11D84, size: 0x8, addend: 0x0, symName: __ZNSt3__1eqB7v160006IPNS_4pairIxxEEEEbRKNS_11__wrap_iterIT_EES8_, symObjAddr: 0xAA20, symBinAddr: 0x10000B268, symSize: 0x48 }
  - { offsetInCU: 0x11DC7, offset: 0x11DC7, size: 0x8, addend: 0x0, symName: __ZNSt3__122__make_exception_guardB7v160006INS_6vectorINS_4pairIxxEENS_9allocatorIS3_EEE16__destroy_vectorEEENS_28__exception_guard_exceptionsIT_EES9_, symObjAddr: 0xABDC, symBinAddr: 0x10000B424, symSize: 0x40 }
  - { offsetInCU: 0x11DFC, offset: 0x11DFC, size: 0x8, addend: 0x0, symName: __ZNSt3__130__uninitialized_allocator_copyB7v160006INS_9allocatorINS_4pairIxxEEEEPS3_S5_S5_EET2_RT_T0_T1_S6_, symObjAddr: 0xAEA4, symBinAddr: 0x10000B6EC, symSize: 0xF4 }
  - { offsetInCU: 0x11E9A, offset: 0x11E9A, size: 0x8, addend: 0x0, symName: __ZNSt3__122__make_exception_guardB7v160006INS_29_AllocatorDestroyRangeReverseINS_9allocatorINS_4pairIxxEEEEPS4_EEEENS_28__exception_guard_exceptionsIT_EES9_, symObjAddr: 0xAF98, symBinAddr: 0x10000B7E0, symSize: 0x4C }
  - { offsetInCU: 0x11ED0, offset: 0x11ED0, size: 0x8, addend: 0x0, symName: __ZNSt3__119__allocator_destroyB7v160006INS_9allocatorINS_4pairIxxEEEENS_16reverse_iteratorIPS3_EES7_EEvRT_T0_T1_, symObjAddr: 0xB220, symBinAddr: 0x10000BA68, symSize: 0x70 }
  - { offsetInCU: 0x11F33, offset: 0x11F33, size: 0x8, addend: 0x0, symName: __ZNSt3__118__debug_db_erase_cB7v160006INS_6vectorINS_4pairIxxEENS_9allocatorIS3_EEEEEEvPT_, symObjAddr: 0xB37C, symBinAddr: 0x10000BBC4, symSize: 0x10 }
  - { offsetInCU: 0x11F64, offset: 0x11F64, size: 0x8, addend: 0x0, symName: __ZNSt3__119__debug_db_insert_cB7v160006INS_12basic_stringIcNS_11char_traitsIcEENS_9allocatorIcEEEEEEvPT_, symObjAddr: 0xB558, symBinAddr: 0x10000BDA0, symSize: 0x10 }
  - { offsetInCU: 0x11F95, offset: 0x11F95, size: 0x8, addend: 0x0, symName: __ZNSt3__119__debug_db_insert_cB7v160006INS_6vectorINS_12basic_stringIcNS_11char_traitsIcEENS_9allocatorIcEEEENS5_IS7_EEEEEEvPT_, symObjAddr: 0xB924, symBinAddr: 0x10000C16C, symSize: 0x10 }
  - { offsetInCU: 0x11FC6, offset: 0x11FC6, size: 0x8, addend: 0x0, symName: __ZNSt3__118__debug_db_erase_cB7v160006INS_6vectorINS_12basic_stringIcNS_11char_traitsIcEENS_9allocatorIcEEEENS5_IS7_EEEEEEvPT_, symObjAddr: 0xBC04, symBinAddr: 0x10000C44C, symSize: 0x10 }
  - { offsetInCU: 0x11FF7, offset: 0x11FF7, size: 0x8, addend: 0x0, symName: __ZNSt3__112__to_addressB7v160006INS_12basic_stringIcNS_11char_traitsIcEENS_9allocatorIcEEEEEEPT_S8_, symObjAddr: 0xBD48, symBinAddr: 0x10000C590, symSize: 0x14 }
  - { offsetInCU: 0x1202C, offset: 0x1202C, size: 0x8, addend: 0x0, symName: __ZNSt3__110__str_findB7v160006IcmNS_11char_traitsIcEELm18446744073709551615EEET0_PKT_S3_S6_S3_S3_, symObjAddr: 0xBF18, symBinAddr: 0x10000C760, symSize: 0xE4 }
  - { offsetInCU: 0x120D3, offset: 0x120D3, size: 0x8, addend: 0x0, symName: __ZNSt3__118__search_substringB7v160006IcNS_11char_traitsIcEEEEPKT_S5_S5_S5_S5_, symObjAddr: 0xBFFC, symBinAddr: 0x10000C844, symSize: 0x154 }
  - { offsetInCU: 0x1216D, offset: 0x1216D, size: 0x8, addend: 0x0, symName: __ZNSt3__123__constexpr_char_memchrB7v160006EPKcim, symObjAddr: 0xC22C, symBinAddr: 0x10000CA74, symSize: 0x34 }
  - { offsetInCU: 0x121B5, offset: 0x121B5, size: 0x8, addend: 0x0, symName: __ZNSt3__118__constexpr_memcmpB7v160006IcEEiPKT_S3_m, symObjAddr: 0xC260, symBinAddr: 0x10000CAA8, symSize: 0x34 }
  - { offsetInCU: 0x12206, offset: 0x12206, size: 0x8, addend: 0x0, symName: __ZNSt3__119__allocate_at_leastB7v160006INS_9allocatorINS_12basic_stringIcNS_11char_traitsIcEENS1_IcEEEEEEEENS_19__allocation_resultINS_16allocator_traitsIT_E7pointerEEERSA_m, symObjAddr: 0xCA30, symBinAddr: 0x10000D278, symSize: 0x40 }
  - { offsetInCU: 0x12249, offset: 0x12249, size: 0x8, addend: 0x0, symName: __ZNSt3__142__uninitialized_allocator_move_if_noexceptB7v160006INS_9allocatorINS_12basic_stringIcNS_11char_traitsIcEENS1_IcEEEEEENS_16reverse_iteratorIPS6_EESA_SA_EET2_RT_T0_T1_SB_, symObjAddr: 0xCBE8, symBinAddr: 0x10000D430, symSize: 0x12C }
  - { offsetInCU: 0x122E9, offset: 0x122E9, size: 0x8, addend: 0x0, symName: __ZNSt3__14swapB7v160006IPNS_12basic_stringIcNS_11char_traitsIcEENS_9allocatorIcEEEEEENS_9enable_ifIXaasr21is_move_constructibleIT_EE5valuesr18is_move_assignableIS9_EE5valueEvE4typeERS9_SC_, symObjAddr: 0xCD60, symBinAddr: 0x10000D5A8, symSize: 0x3C }
  - { offsetInCU: 0x1233A, offset: 0x1233A, size: 0x8, addend: 0x0, symName: __ZNSt3__125__debug_db_invalidate_allB7v160006INS_6vectorINS_12basic_stringIcNS_11char_traitsIcEENS_9allocatorIcEEEENS5_IS7_EEEEEEvPT_, symObjAddr: 0xCE64, symBinAddr: 0x10000D6AC, symSize: 0x10 }
  - { offsetInCU: 0x1236B, offset: 0x1236B, size: 0x8, addend: 0x0, symName: __ZNSt3__122__make_exception_guardB7v160006INS_29_AllocatorDestroyRangeReverseINS_9allocatorINS_12basic_stringIcNS_11char_traitsIcEENS2_IcEEEEEENS_16reverse_iteratorIPS7_EEEEEENS_28__exception_guard_exceptionsIT_EESE_, symObjAddr: 0xCE74, symBinAddr: 0x10000D6BC, symSize: 0x4C }
  - { offsetInCU: 0x123A1, offset: 0x123A1, size: 0x8, addend: 0x0, symName: __ZNSt3__1neB7v160006IPNS_12basic_stringIcNS_11char_traitsIcEENS_9allocatorIcEEEES7_EEbRKNS_16reverse_iteratorIT_EERKNS8_IT0_EE, symObjAddr: 0xCF04, symBinAddr: 0x10000D74C, symSize: 0x48 }
  - { offsetInCU: 0x123ED, offset: 0x123ED, size: 0x8, addend: 0x0, symName: __ZNSt3__112__to_addressB7v160006INS_16reverse_iteratorIPNS_12basic_stringIcNS_11char_traitsIcEENS_9allocatorIcEEEEEEvEENS_5decayIDTclsr19__to_address_helperIT_EE6__callclsr3stdE7declvalIRKSB_EEEEE4typeESD_, symObjAddr: 0xCF80, symBinAddr: 0x10000D7C8, symSize: 0x24 }
  - { offsetInCU: 0x12423, offset: 0x12423, size: 0x8, addend: 0x0, symName: __ZNSt3__115__debug_db_swapB7v160006INS_12basic_stringIcNS_11char_traitsIcEENS_9allocatorIcEEEEEEvPT_S8_, symObjAddr: 0xD1B4, symBinAddr: 0x10000D9FC, symSize: 0x14 }
  - { offsetInCU: 0x1248B, offset: 0x1248B, size: 0x8, addend: 0x0, symName: __ZNSt3__119__allocator_destroyB7v160006INS_9allocatorINS_12basic_stringIcNS_11char_traitsIcEENS1_IcEEEEEENS_16reverse_iteratorINS8_IPS6_EEEESB_EEvRT_T0_T1_, symObjAddr: 0xD328, symBinAddr: 0x10000DB70, symSize: 0x70 }
  - { offsetInCU: 0x124F0, offset: 0x124F0, size: 0x8, addend: 0x0, symName: __ZNSt3__1neB7v160006INS_16reverse_iteratorIPNS_12basic_stringIcNS_11char_traitsIcEENS_9allocatorIcEEEEEES9_EEbRKNS1_IT_EERKNS1_IT0_EE, symObjAddr: 0xD3D4, symBinAddr: 0x10000DC1C, symSize: 0x60 }
  - { offsetInCU: 0x1253C, offset: 0x1253C, size: 0x8, addend: 0x0, symName: __ZNSt3__112__to_addressB7v160006INS_16reverse_iteratorINS1_IPNS_12basic_stringIcNS_11char_traitsIcEENS_9allocatorIcEEEEEEEEvEENS_5decayIDTclsr19__to_address_helperIT_EE6__callclsr3stdE7declvalIRKSC_EEEEE4typeESE_, symObjAddr: 0xD434, symBinAddr: 0x10000DC7C, symSize: 0x24 }
  - { offsetInCU: 0x1259B, offset: 0x1259B, size: 0x8, addend: 0x0, symName: __ZNSt3__116__pad_and_outputB7v160006IcNS_11char_traitsIcEEEENS_19ostreambuf_iteratorIT_T0_EES6_PKS4_S8_S8_RNS_8ios_baseES4_, symObjAddr: 0xDB6C, symBinAddr: 0x10000E3B4, symSize: 0x240 }
  - { offsetInCU: 0x12CAC, offset: 0x12CAC, size: 0x8, addend: 0x0, symName: __ZSt28__throw_bad_array_new_lengthB7v160006v, symObjAddr: 0x3670, symBinAddr: 0x100003EB8, symSize: 0x34 }
  - { offsetInCU: 0x13BBA, offset: 0x13BBA, size: 0x8, addend: 0x0, symName: __ZNSt3__16vectorIxNS_9allocatorIxEEE26__swap_out_circular_bufferERNS_14__split_bufferIxRS2_EE, symObjAddr: 0x2EE4, symBinAddr: 0x10000372C, symSize: 0x118 }
  - { offsetInCU: 0x13C6B, offset: 0x13C6B, size: 0x8, addend: 0x0, symName: __ZNSt3__16vectorINS0_I5RangeNS_9allocatorIS1_EEEENS2_IS4_EEE26__swap_out_circular_bufferERNS_14__split_bufferIS4_RS5_EE, symObjAddr: 0x5C4C, symBinAddr: 0x100006494, symSize: 0x118 }
  - { offsetInCU: 0x13CFE, offset: 0x13CFE, size: 0x8, addend: 0x0, symName: __ZNSt3__16vectorI5RangeNS_9allocatorIS1_EEE26__swap_out_circular_bufferERNS_14__split_bufferIS1_RS3_EE, symObjAddr: 0x73B8, symBinAddr: 0x100007C00, symSize: 0x118 }
  - { offsetInCU: 0x13D4B, offset: 0x13D4B, size: 0x8, addend: 0x0, symName: __ZNSt3__16vectorINS_4pairIxxEENS_9allocatorIS2_EEE26__swap_out_circular_bufferERNS_14__split_bufferIS2_RS4_EE, symObjAddr: 0x93F0, symBinAddr: 0x100009C38, symSize: 0x118 }
  - { offsetInCU: 0x13FB4, offset: 0x13FB4, size: 0x8, addend: 0x0, symName: __ZNSt3__16vectorINS_12basic_stringIcNS_11char_traitsIcEENS_9allocatorIcEEEENS4_IS6_EEE26__swap_out_circular_bufferERNS_14__split_bufferIS6_RS7_EE, symObjAddr: 0xC6B8, symBinAddr: 0x10000CF00, symSize: 0x118 }
  - { offsetInCU: 0x1602C, offset: 0x1602C, size: 0x8, addend: 0x0, symName: __Z5splitNSt3__112basic_stringIcNS_11char_traitsIcEENS_9allocatorIcEEEES5_, symObjAddr: 0x0, symBinAddr: 0x100000848, symSize: 0x198 }
  - { offsetInCU: 0x160B1, offset: 0x160B1, size: 0x8, addend: 0x0, symName: __ZNKSt3__112basic_stringIcNS_11char_traitsIcEENS_9allocatorIcEEE6lengthB7v160006Ev, symObjAddr: 0x198, symBinAddr: 0x1000009E0, symSize: 0x24 }
  - { offsetInCU: 0x160D7, offset: 0x160D7, size: 0x8, addend: 0x0, symName: __ZNSt3__112basic_stringIcNS_11char_traitsIcEENS_9allocatorIcEEEC1B7v160006Ev, symObjAddr: 0x1BC, symBinAddr: 0x100000A04, symSize: 0x2C }
  - { offsetInCU: 0x16101, offset: 0x16101, size: 0x8, addend: 0x0, symName: __ZNSt3__16vectorINS_12basic_stringIcNS_11char_traitsIcEENS_9allocatorIcEEEENS4_IS6_EEEC1B7v160006Ev, symObjAddr: 0x1E8, symBinAddr: 0x100000A30, symSize: 0x2C }
  - { offsetInCU: 0x1612B, offset: 0x1612B, size: 0x8, addend: 0x0, symName: __ZNKSt3__112basic_stringIcNS_11char_traitsIcEENS_9allocatorIcEEE4findB7v160006ERKS5_m, symObjAddr: 0x214, symBinAddr: 0x100000A5C, symSize: 0x78 }
  - { offsetInCU: 0x16171, offset: 0x16171, size: 0x8, addend: 0x0, symName: __ZNKSt3__112basic_stringIcNS_11char_traitsIcEENS_9allocatorIcEEE6substrB7v160006Emm, symObjAddr: 0x28C, symBinAddr: 0x100000AD4, symSize: 0x68 }
  - { offsetInCU: 0x161B5, offset: 0x161B5, size: 0x8, addend: 0x0, symName: __ZNSt3__112basic_stringIcNS_11char_traitsIcEENS_9allocatorIcEEEaSB7v160006EOS5_, symObjAddr: 0x2F4, symBinAddr: 0x100000B3C, symSize: 0x34 }
  - { offsetInCU: 0x161EA, offset: 0x161EA, size: 0x8, addend: 0x0, symName: __ZNSt3__16vectorINS_12basic_stringIcNS_11char_traitsIcEENS_9allocatorIcEEEENS4_IS6_EEE9push_backB7v160006ERKS6_, symObjAddr: 0x328, symBinAddr: 0x100000B70, symSize: 0x6C }
  - { offsetInCU: 0x16221, offset: 0x16221, size: 0x8, addend: 0x0, symName: __ZNSt3__16vectorINS_12basic_stringIcNS_11char_traitsIcEENS_9allocatorIcEEEENS4_IS6_EEE9push_backB7v160006EOS6_, symObjAddr: 0x394, symBinAddr: 0x100000BDC, symSize: 0x6C }
  - { offsetInCU: 0x16258, offset: 0x16258, size: 0x8, addend: 0x0, symName: __ZNSt3__16vectorINS_12basic_stringIcNS_11char_traitsIcEENS_9allocatorIcEEEENS4_IS6_EEED1B7v160006Ev, symObjAddr: 0x400, symBinAddr: 0x100000C48, symSize: 0x2C }
  - { offsetInCU: 0x16282, offset: 0x16282, size: 0x8, addend: 0x0, symName: _main, symObjAddr: 0x42C, symBinAddr: 0x100000C74, symSize: 0x31C }
  - { offsetInCU: 0x162CF, offset: 0x162CF, size: 0x8, addend: 0x0, symName: __ZNSt3__112basic_stringIcNS_11char_traitsIcEENS_9allocatorIcEEEC1B7v160006IDnEEPKc, symObjAddr: 0x748, symBinAddr: 0x100000F90, symSize: 0x34 }
  - { offsetInCU: 0x1630D, offset: 0x1630D, size: 0x8, addend: 0x0, symName: __ZN8SolutionC1ENSt3__112basic_stringIcNS0_11char_traitsIcEENS0_9allocatorIcEEEE, symObjAddr: 0x77C, symBinAddr: 0x100000FC4, symSize: 0x34 }
  - { offsetInCU: 0x16346, offset: 0x16346, size: 0x8, addend: 0x0, symName: __ZN8Solution5part1Ev, symObjAddr: 0x7F8, symBinAddr: 0x100001040, symSize: 0x220 }
  - { offsetInCU: 0x164CC, offset: 0x164CC, size: 0x8, addend: 0x0, symName: __ZNSt3__113basic_ostreamIcNS_11char_traitsIcEEElsB7v160006EPFRS3_S4_E, symObjAddr: 0xA18, symBinAddr: 0x100001260, symSize: 0x2C }
  - { offsetInCU: 0x16500, offset: 0x16500, size: 0x8, addend: 0x0, symName: __ZN8Solution5part2Ev, symObjAddr: 0xA9C, symBinAddr: 0x1000012E4, symSize: 0x1FC }
  - { offsetInCU: 0x1657B, offset: 0x1657B, size: 0x8, addend: 0x0, symName: __ZN8SolutionD1Ev, symObjAddr: 0xC98, symBinAddr: 0x1000014E0, symSize: 0x2C }
  - { offsetInCU: 0x165A7, offset: 0x165A7, size: 0x8, addend: 0x0, symName: __ZN8SolutionC2ENSt3__112basic_stringIcNS0_11char_traitsIcEENS0_9allocatorIcEEEE, symObjAddr: 0xCC4, symBinAddr: 0x10000150C, symSize: 0xB4 }
  - { offsetInCU: 0x165E0, offset: 0x165E0, size: 0x8, addend: 0x0, symName: __ZNSt3__113basic_fstreamIcNS_11char_traitsIcEEEC1Ev, symObjAddr: 0xD78, symBinAddr: 0x1000015C0, symSize: 0x100 }
  - { offsetInCU: 0x1660C, offset: 0x1660C, size: 0x8, addend: 0x0, symName: __ZNSt3__16vectorIxNS_9allocatorIxEEEC1B7v160006Ev, symObjAddr: 0xE78, symBinAddr: 0x1000016C0, symSize: 0x2C }
  - { offsetInCU: 0x16636, offset: 0x16636, size: 0x8, addend: 0x0, symName: __ZNSt3__16vectorINS0_I5RangeNS_9allocatorIS1_EEEENS2_IS4_EEEC1B7v160006Ev, symObjAddr: 0xEA4, symBinAddr: 0x1000016EC, symSize: 0x2C }
  - { offsetInCU: 0x16660, offset: 0x16660, size: 0x8, addend: 0x0, symName: __ZNSt3__113basic_fstreamIcNS_11char_traitsIcEEE4openERKNS_12basic_stringIcS2_NS_9allocatorIcEEEEj, symObjAddr: 0xED0, symBinAddr: 0x100001718, symSize: 0x84 }
  - { offsetInCU: 0x166A6, offset: 0x166A6, size: 0x8, addend: 0x0, symName: __ZN8Solution5parseEv, symObjAddr: 0xF54, symBinAddr: 0x10000179C, symSize: 0x3C0 }
  - { offsetInCU: 0x167A3, offset: 0x167A3, size: 0x8, addend: 0x0, symName: __ZNSt3__113basic_fstreamIcNS_11char_traitsIcEEE5closeEv, symObjAddr: 0x1314, symBinAddr: 0x100001B5C, symSize: 0x58 }
  - { offsetInCU: 0x167CB, offset: 0x167CB, size: 0x8, addend: 0x0, symName: __ZNSt3__16vectorINS0_I5RangeNS_9allocatorIS1_EEEENS2_IS4_EEED1B7v160006Ev, symObjAddr: 0x136C, symBinAddr: 0x100001BB4, symSize: 0x2C }
  - { offsetInCU: 0x167F5, offset: 0x167F5, size: 0x8, addend: 0x0, symName: __ZNSt3__16vectorIxNS_9allocatorIxEEED1B7v160006Ev, symObjAddr: 0x1398, symBinAddr: 0x100001BE0, symSize: 0x2C }
  - { offsetInCU: 0x16824, offset: 0x16824, size: 0x8, addend: 0x0, symName: __ZNSt3__113basic_fstreamIcNS_11char_traitsIcEEED1Ev, symObjAddr: 0x13C4, symBinAddr: 0x100001C0C, symSize: 0x40 }
  - { offsetInCU: 0x16850, offset: 0x16850, size: 0x8, addend: 0x0, symName: __ZNSt3__19basic_iosIcNS_11char_traitsIcEEEC2B7v160006Ev, symObjAddr: 0x1404, symBinAddr: 0x100001C4C, symSize: 0x44 }
  - { offsetInCU: 0x1687A, offset: 0x1687A, size: 0x8, addend: 0x0, symName: __ZNSt3__114basic_iostreamIcNS_11char_traitsIcEEEC2B7v160006EPNS_15basic_streambufIcS2_EE, symObjAddr: 0x1448, symBinAddr: 0x100001C90, symSize: 0xAC }
  - { offsetInCU: 0x168C0, offset: 0x168C0, size: 0x8, addend: 0x0, symName: __ZNSt3__113basic_fstreamIcNS_11char_traitsIcEEED0Ev, symObjAddr: 0x14F4, symBinAddr: 0x100001D3C, symSize: 0x30 }
  - { offsetInCU: 0x168EC, offset: 0x168EC, size: 0x8, addend: 0x0, symName: __ZThn16_NSt3__113basic_fstreamIcNS_11char_traitsIcEEED1Ev, symObjAddr: 0x1524, symBinAddr: 0x100001D6C, symSize: 0x1C }
  - { offsetInCU: 0x16902, offset: 0x16902, size: 0x8, addend: 0x0, symName: __ZThn16_NSt3__113basic_fstreamIcNS_11char_traitsIcEEED0Ev, symObjAddr: 0x1540, symBinAddr: 0x100001D88, symSize: 0x18 }
  - { offsetInCU: 0x16918, offset: 0x16918, size: 0x8, addend: 0x0, symName: __ZTv0_n24_NSt3__113basic_fstreamIcNS_11char_traitsIcEEED1Ev, symObjAddr: 0x1558, symBinAddr: 0x100001DA0, symSize: 0x28 }
  - { offsetInCU: 0x1692E, offset: 0x1692E, size: 0x8, addend: 0x0, symName: __ZTv0_n24_NSt3__113basic_fstreamIcNS_11char_traitsIcEEED0Ev, symObjAddr: 0x1580, symBinAddr: 0x100001DC8, symSize: 0x20 }
  - { offsetInCU: 0x16944, offset: 0x16944, size: 0x8, addend: 0x0, symName: __ZNSt3__18ios_baseC2B7v160006Ev, symObjAddr: 0x15A0, symBinAddr: 0x100001DE8, symSize: 0x24 }
  - { offsetInCU: 0x1696E, offset: 0x1696E, size: 0x8, addend: 0x0, symName: __ZNSt3__113basic_istreamIcNS_11char_traitsIcEEEC2B7v160006EPNS_15basic_streambufIcS2_EE, symObjAddr: 0x15C4, symBinAddr: 0x100001E0C, symSize: 0x64 }
  - { offsetInCU: 0x169B3, offset: 0x169B3, size: 0x8, addend: 0x0, symName: __ZNSt3__113basic_ostreamIcNS_11char_traitsIcEEEC2B7v160006Ev, symObjAddr: 0x1628, symBinAddr: 0x100001E70, symSize: 0x34 }
  - { offsetInCU: 0x169EA, offset: 0x169EA, size: 0x8, addend: 0x0, symName: __ZNSt3__19basic_iosIcNS_11char_traitsIcEEE4initB7v160006EPNS_15basic_streambufIcS2_EE, symObjAddr: 0x165C, symBinAddr: 0x100001EA4, symSize: 0x44 }
  - { offsetInCU: 0x16A21, offset: 0x16A21, size: 0x8, addend: 0x0, symName: __ZNSt3__111char_traitsIcE3eofEv, symObjAddr: 0x16A0, symBinAddr: 0x100001EE8, symSize: 0x8 }
  - { offsetInCU: 0x16A35, offset: 0x16A35, size: 0x8, addend: 0x0, symName: __ZNSt3__16vectorIxNS_9allocatorIxEEEC2B7v160006Ev, symObjAddr: 0x16A8, symBinAddr: 0x100001EF0, symSize: 0x58 }
  - { offsetInCU: 0x16A69, offset: 0x16A69, size: 0x8, addend: 0x0, symName: __ZNSt3__117__compressed_pairIPxNS_9allocatorIxEEEC1B7v160006IDnNS_18__default_init_tagEEEOT_OT0_, symObjAddr: 0x1700, symBinAddr: 0x100001F48, symSize: 0x3C }
  - { offsetInCU: 0x16AC1, offset: 0x16AC1, size: 0x8, addend: 0x0, symName: __ZNSt3__117__compressed_pairIPxNS_9allocatorIxEEEC2B7v160006IDnNS_18__default_init_tagEEEOT_OT0_, symObjAddr: 0x1758, symBinAddr: 0x100001FA0, symSize: 0x40 }
  - { offsetInCU: 0x16B19, offset: 0x16B19, size: 0x8, addend: 0x0, symName: __ZNSt3__122__compressed_pair_elemIPxLi0ELb0EEC2B7v160006IDnvEEOT_, symObjAddr: 0x1798, symBinAddr: 0x100001FE0, symSize: 0x1C }
  - { offsetInCU: 0x16B5B, offset: 0x16B5B, size: 0x8, addend: 0x0, symName: __ZNSt3__122__compressed_pair_elemINS_9allocatorIxEELi1ELb1EEC2B7v160006ENS_18__default_init_tagE, symObjAddr: 0x17B4, symBinAddr: 0x100001FFC, symSize: 0x2C }
  - { offsetInCU: 0x16B8F, offset: 0x16B8F, size: 0x8, addend: 0x0, symName: __ZNSt3__19allocatorIxEC2B7v160006Ev, symObjAddr: 0x17E0, symBinAddr: 0x100002028, symSize: 0x2C }
  - { offsetInCU: 0x16BB9, offset: 0x16BB9, size: 0x8, addend: 0x0, symName: __ZNSt3__116__non_trivial_ifILb1ENS_9allocatorIxEEEC2B7v160006Ev, symObjAddr: 0x180C, symBinAddr: 0x100002054, symSize: 0x14 }
  - { offsetInCU: 0x16BE3, offset: 0x16BE3, size: 0x8, addend: 0x0, symName: __ZNSt3__16vectorINS0_I5RangeNS_9allocatorIS1_EEEENS2_IS4_EEEC2B7v160006Ev, symObjAddr: 0x1820, symBinAddr: 0x100002068, symSize: 0x58 }
  - { offsetInCU: 0x16C0D, offset: 0x16C0D, size: 0x8, addend: 0x0, symName: __ZNSt3__117__compressed_pairIPNS_6vectorI5RangeNS_9allocatorIS2_EEEENS3_IS5_EEEC1B7v160006IDnNS_18__default_init_tagEEEOT_OT0_, symObjAddr: 0x1878, symBinAddr: 0x1000020C0, symSize: 0x3C }
  - { offsetInCU: 0x16C65, offset: 0x16C65, size: 0x8, addend: 0x0, symName: __ZNSt3__117__compressed_pairIPNS_6vectorI5RangeNS_9allocatorIS2_EEEENS3_IS5_EEEC2B7v160006IDnNS_18__default_init_tagEEEOT_OT0_, symObjAddr: 0x18C4, symBinAddr: 0x10000210C, symSize: 0x40 }
  - { offsetInCU: 0x16CBD, offset: 0x16CBD, size: 0x8, addend: 0x0, symName: __ZNSt3__122__compressed_pair_elemIPNS_6vectorI5RangeNS_9allocatorIS2_EEEELi0ELb0EEC2B7v160006IDnvEEOT_, symObjAddr: 0x1904, symBinAddr: 0x10000214C, symSize: 0x1C }
  - { offsetInCU: 0x16CFF, offset: 0x16CFF, size: 0x8, addend: 0x0, symName: __ZNSt3__122__compressed_pair_elemINS_9allocatorINS_6vectorI5RangeNS1_IS3_EEEEEELi1ELb1EEC2B7v160006ENS_18__default_init_tagE, symObjAddr: 0x1920, symBinAddr: 0x100002168, symSize: 0x2C }
  - { offsetInCU: 0x16D33, offset: 0x16D33, size: 0x8, addend: 0x0, symName: __ZNSt3__19allocatorINS_6vectorI5RangeNS0_IS2_EEEEEC2B7v160006Ev, symObjAddr: 0x194C, symBinAddr: 0x100002194, symSize: 0x2C }
  - { offsetInCU: 0x16D5D, offset: 0x16D5D, size: 0x8, addend: 0x0, symName: __ZNSt3__116__non_trivial_ifILb1ENS_9allocatorINS_6vectorI5RangeNS1_IS3_EEEEEEEC2B7v160006Ev, symObjAddr: 0x1978, symBinAddr: 0x1000021C0, symSize: 0x14 }
  - { offsetInCU: 0x16D87, offset: 0x16D87, size: 0x8, addend: 0x0, symName: __ZNSt3__113basic_filebufIcNS_11char_traitsIcEEE4openERKNS_12basic_stringIcS2_NS_9allocatorIcEEEEj, symObjAddr: 0x198C, symBinAddr: 0x1000021D4, symSize: 0x44 }
  - { offsetInCU: 0x16DCB, offset: 0x16DCB, size: 0x8, addend: 0x0, symName: __ZNSt3__19basic_iosIcNS_11char_traitsIcEEE5clearB7v160006Ej, symObjAddr: 0x19D0, symBinAddr: 0x100002218, symSize: 0x2C }
  - { offsetInCU: 0x16E00, offset: 0x16E00, size: 0x8, addend: 0x0, symName: __ZNSt3__19basic_iosIcNS_11char_traitsIcEEE8setstateB7v160006Ej, symObjAddr: 0x19FC, symBinAddr: 0x100002244, symSize: 0x2C }
  - { offsetInCU: 0x16E35, offset: 0x16E35, size: 0x8, addend: 0x0, symName: __ZNKSt3__112basic_stringIcNS_11char_traitsIcEENS_9allocatorIcEEE5c_strB7v160006Ev, symObjAddr: 0x1A28, symBinAddr: 0x100002270, symSize: 0x24 }
  - { offsetInCU: 0x16E5B, offset: 0x16E5B, size: 0x8, addend: 0x0, symName: __ZNKSt3__112basic_stringIcNS_11char_traitsIcEENS_9allocatorIcEEE4dataB7v160006Ev, symObjAddr: 0x1A4C, symBinAddr: 0x100002294, symSize: 0x28 }
  - { offsetInCU: 0x16E81, offset: 0x16E81, size: 0x8, addend: 0x0, symName: __ZNKSt3__112basic_stringIcNS_11char_traitsIcEENS_9allocatorIcEEE13__get_pointerB7v160006Ev, symObjAddr: 0x1A88, symBinAddr: 0x1000022D0, symSize: 0x54 }
  - { offsetInCU: 0x16EA7, offset: 0x16EA7, size: 0x8, addend: 0x0, symName: __ZNKSt3__112basic_stringIcNS_11char_traitsIcEENS_9allocatorIcEEE9__is_longB7v160006Ev, symObjAddr: 0x1ADC, symBinAddr: 0x100002324, symSize: 0x38 }
  - { offsetInCU: 0x16ECD, offset: 0x16ECD, size: 0x8, addend: 0x0, symName: __ZNKSt3__112basic_stringIcNS_11char_traitsIcEENS_9allocatorIcEEE18__get_long_pointerB7v160006Ev, symObjAddr: 0x1B14, symBinAddr: 0x10000235C, symSize: 0x28 }
  - { offsetInCU: 0x16EF3, offset: 0x16EF3, size: 0x8, addend: 0x0, symName: __ZNKSt3__112basic_stringIcNS_11char_traitsIcEENS_9allocatorIcEEE19__get_short_pointerB7v160006Ev, symObjAddr: 0x1B3C, symBinAddr: 0x100002384, symSize: 0x28 }
  - { offsetInCU: 0x16F19, offset: 0x16F19, size: 0x8, addend: 0x0, symName: __ZNKSt3__117__compressed_pairINS_12basic_stringIcNS_11char_traitsIcEENS_9allocatorIcEEE5__repES5_E5firstB7v160006Ev, symObjAddr: 0x1B64, symBinAddr: 0x1000023AC, symSize: 0x24 }
  - { offsetInCU: 0x16F3F, offset: 0x16F3F, size: 0x8, addend: 0x0, symName: __ZNKSt3__122__compressed_pair_elemINS_12basic_stringIcNS_11char_traitsIcEENS_9allocatorIcEEE5__repELi0ELb0EE5__getB7v160006Ev, symObjAddr: 0x1B88, symBinAddr: 0x1000023D0, symSize: 0x14 }
  - { offsetInCU: 0x16F65, offset: 0x16F65, size: 0x8, addend: 0x0, symName: __ZNSt3__114pointer_traitsIPKcE10pointer_toB7v160006ERS1_, symObjAddr: 0x1B9C, symBinAddr: 0x1000023E4, symSize: 0x14 }
  - { offsetInCU: 0x16F88, offset: 0x16F88, size: 0x8, addend: 0x0, symName: __ZNSt3__18ios_base8setstateB7v160006Ej, symObjAddr: 0x1BB0, symBinAddr: 0x1000023F8, symSize: 0x34 }
  - { offsetInCU: 0x16FBF, offset: 0x16FBF, size: 0x8, addend: 0x0, symName: __ZNSt3__16vectorINS_12basic_stringIcNS_11char_traitsIcEENS_9allocatorIcEEEENS4_IS6_EEEixB7v160006Em, symObjAddr: 0x1C40, symBinAddr: 0x100002488, symSize: 0x2C }
  - { offsetInCU: 0x16FF6, offset: 0x16FF6, size: 0x8, addend: 0x0, symName: __ZNSt3__16vectorINS_12basic_stringIcNS_11char_traitsIcEENS_9allocatorIcEEEENS4_IS6_EEE5beginB7v160006Ev, symObjAddr: 0x1C6C, symBinAddr: 0x1000024B4, symSize: 0x30 }
  - { offsetInCU: 0x1701E, offset: 0x1701E, size: 0x8, addend: 0x0, symName: __ZNSt3__16vectorINS_12basic_stringIcNS_11char_traitsIcEENS_9allocatorIcEEEENS4_IS6_EEE3endB7v160006Ev, symObjAddr: 0x1C9C, symBinAddr: 0x1000024E4, symSize: 0x30 }
  - { offsetInCU: 0x17046, offset: 0x17046, size: 0x8, addend: 0x0, symName: __ZNKSt3__111__wrap_iterIPNS_12basic_stringIcNS_11char_traitsIcEENS_9allocatorIcEEEEEdeB7v160006Ev, symObjAddr: 0x1D00, symBinAddr: 0x100002548, symSize: 0x18 }
  - { offsetInCU: 0x1706C, offset: 0x1706C, size: 0x8, addend: 0x0, symName: __ZNSt3__16vectorIxNS_9allocatorIxEEE9push_backB7v160006EOx, symObjAddr: 0x1D4C, symBinAddr: 0x100002594, symSize: 0x6C }
  - { offsetInCU: 0x170A3, offset: 0x170A3, size: 0x8, addend: 0x0, symName: __ZNSt3__111__wrap_iterIPNS_12basic_stringIcNS_11char_traitsIcEENS_9allocatorIcEEEEEppB7v160006Ev, symObjAddr: 0x1DB8, symBinAddr: 0x100002600, symSize: 0x20 }
  - { offsetInCU: 0x170C9, offset: 0x170C9, size: 0x8, addend: 0x0, symName: __ZNSt3__16vectorI5RangeNS_9allocatorIS1_EEEC1B7v160006Ev, symObjAddr: 0x1DD8, symBinAddr: 0x100002620, symSize: 0x2C }
  - { offsetInCU: 0x170F3, offset: 0x170F3, size: 0x8, addend: 0x0, symName: __ZNSt3__16vectorINS0_I5RangeNS_9allocatorIS1_EEEENS2_IS4_EEE9push_backB7v160006ERKS4_, symObjAddr: 0x1EB0, symBinAddr: 0x1000026F8, symSize: 0x6C }
  - { offsetInCU: 0x1712A, offset: 0x1712A, size: 0x8, addend: 0x0, symName: __ZNSt3__16vectorI5RangeNS_9allocatorIS1_EEE5clearB7v160006Ev, symObjAddr: 0x1F1C, symBinAddr: 0x100002764, symSize: 0x54 }
  - { offsetInCU: 0x1715F, offset: 0x1715F, size: 0x8, addend: 0x0, symName: __ZNSt3__16vectorI5RangeNS_9allocatorIS1_EEE9push_backB7v160006EOS1_, symObjAddr: 0x1F70, symBinAddr: 0x1000027B8, symSize: 0x6C }
  - { offsetInCU: 0x17196, offset: 0x17196, size: 0x8, addend: 0x0, symName: __ZN5RangeC1Exxx, symObjAddr: 0x1FDC, symBinAddr: 0x100002824, symSize: 0x44 }
  - { offsetInCU: 0x171EA, offset: 0x171EA, size: 0x8, addend: 0x0, symName: __ZNSt3__16vectorI5RangeNS_9allocatorIS1_EEED1B7v160006Ev, symObjAddr: 0x2020, symBinAddr: 0x100002868, symSize: 0x2C }
  - { offsetInCU: 0x17214, offset: 0x17214, size: 0x8, addend: 0x0, symName: __ZNKSt3__19basic_iosIcNS_11char_traitsIcEEE5widenB7v160006Ec, symObjAddr: 0x2284, symBinAddr: 0x100002ACC, symSize: 0x84 }
  - { offsetInCU: 0x17269, offset: 0x17269, size: 0x8, addend: 0x0, symName: __ZNKSt3__113basic_istreamIcNS_11char_traitsIcEEE6sentrycvbB7v160006Ev, symObjAddr: 0x2308, symBinAddr: 0x100002B50, symSize: 0x1C }
  - { offsetInCU: 0x1728F, offset: 0x1728F, size: 0x8, addend: 0x0, symName: __ZNSt3__112basic_stringIcNS_11char_traitsIcEENS_9allocatorIcEEE5clearB7v160006Ev, symObjAddr: 0x2324, symBinAddr: 0x100002B6C, symSize: 0x88 }
  - { offsetInCU: 0x172B7, offset: 0x172B7, size: 0x8, addend: 0x0, symName: __ZNKSt3__19basic_iosIcNS_11char_traitsIcEEE5rdbufB7v160006Ev, symObjAddr: 0x23AC, symBinAddr: 0x100002BF4, symSize: 0x24 }
  - { offsetInCU: 0x172DF, offset: 0x172DF, size: 0x8, addend: 0x0, symName: __ZNSt3__115basic_streambufIcNS_11char_traitsIcEEE6sbumpcB7v160006Ev, symObjAddr: 0x23D0, symBinAddr: 0x100002C18, symSize: 0x78 }
  - { offsetInCU: 0x17305, offset: 0x17305, size: 0x8, addend: 0x0, symName: __ZNSt3__111char_traitsIcE11eq_int_typeEii, symObjAddr: 0x2448, symBinAddr: 0x100002C90, symSize: 0x28 }
  - { offsetInCU: 0x17336, offset: 0x17336, size: 0x8, addend: 0x0, symName: __ZNSt3__111char_traitsIcE12to_char_typeEi, symObjAddr: 0x2470, symBinAddr: 0x100002CB8, symSize: 0x18 }
  - { offsetInCU: 0x17359, offset: 0x17359, size: 0x8, addend: 0x0, symName: __ZNSt3__111char_traitsIcE2eqEcc, symObjAddr: 0x2488, symBinAddr: 0x100002CD0, symSize: 0x28 }
  - { offsetInCU: 0x1738A, offset: 0x1738A, size: 0x8, addend: 0x0, symName: __ZNKSt3__112basic_stringIcNS_11char_traitsIcEENS_9allocatorIcEEE4sizeB7v160006Ev, symObjAddr: 0x24B0, symBinAddr: 0x100002CF8, symSize: 0x54 }
  - { offsetInCU: 0x173B0, offset: 0x173B0, size: 0x8, addend: 0x0, symName: __ZNKSt3__112basic_stringIcNS_11char_traitsIcEENS_9allocatorIcEEE8max_sizeB7v160006Ev, symObjAddr: 0x2504, symBinAddr: 0x100002D4C, symSize: 0xAC }
  - { offsetInCU: 0x17403, offset: 0x17403, size: 0x8, addend: 0x0, symName: __ZNSt3__18ios_base18__setstate_nothrowB7v160006Ej, symObjAddr: 0x25B0, symBinAddr: 0x100002DF8, symSize: 0x64 }
  - { offsetInCU: 0x17438, offset: 0x17438, size: 0x8, addend: 0x0, symName: __ZNKSt3__19basic_iosIcNS_11char_traitsIcEEE10exceptionsB7v160006Ev, symObjAddr: 0x2614, symBinAddr: 0x100002E5C, symSize: 0x24 }
  - { offsetInCU: 0x1745E, offset: 0x1745E, size: 0x8, addend: 0x0, symName: __ZNSt3__111char_traitsIcE6assignERcRKc, symObjAddr: 0x2648, symBinAddr: 0x100002E90, symSize: 0x24 }
  - { offsetInCU: 0x1748F, offset: 0x1748F, size: 0x8, addend: 0x0, symName: __ZNSt3__112basic_stringIcNS_11char_traitsIcEENS_9allocatorIcEEE18__get_long_pointerB7v160006Ev, symObjAddr: 0x266C, symBinAddr: 0x100002EB4, symSize: 0x28 }
  - { offsetInCU: 0x174B5, offset: 0x174B5, size: 0x8, addend: 0x0, symName: __ZNSt3__112basic_stringIcNS_11char_traitsIcEENS_9allocatorIcEEE15__set_long_sizeB7v160006Em, symObjAddr: 0x2694, symBinAddr: 0x100002EDC, symSize: 0x38 }
  - { offsetInCU: 0x174EA, offset: 0x174EA, size: 0x8, addend: 0x0, symName: __ZNSt3__112basic_stringIcNS_11char_traitsIcEENS_9allocatorIcEEE19__get_short_pointerB7v160006Ev, symObjAddr: 0x26CC, symBinAddr: 0x100002F14, symSize: 0x28 }
  - { offsetInCU: 0x17510, offset: 0x17510, size: 0x8, addend: 0x0, symName: __ZNSt3__112basic_stringIcNS_11char_traitsIcEENS_9allocatorIcEEE16__set_short_sizeB7v160006Em, symObjAddr: 0x26F4, symBinAddr: 0x100002F3C, symSize: 0x78 }
  - { offsetInCU: 0x17545, offset: 0x17545, size: 0x8, addend: 0x0, symName: __ZNSt3__117__compressed_pairINS_12basic_stringIcNS_11char_traitsIcEENS_9allocatorIcEEE5__repES5_E5firstB7v160006Ev, symObjAddr: 0x276C, symBinAddr: 0x100002FB4, symSize: 0x24 }
  - { offsetInCU: 0x1756B, offset: 0x1756B, size: 0x8, addend: 0x0, symName: __ZNSt3__122__compressed_pair_elemINS_12basic_stringIcNS_11char_traitsIcEENS_9allocatorIcEEE5__repELi0ELb0EE5__getB7v160006Ev, symObjAddr: 0x2790, symBinAddr: 0x100002FD8, symSize: 0x14 }
  - { offsetInCU: 0x17591, offset: 0x17591, size: 0x8, addend: 0x0, symName: __ZNSt3__114pointer_traitsIPcE10pointer_toB7v160006ERc, symObjAddr: 0x27A4, symBinAddr: 0x100002FEC, symSize: 0x14 }
  - { offsetInCU: 0x175B4, offset: 0x175B4, size: 0x8, addend: 0x0, symName: __ZNKSt3__18ios_base5rdbufB7v160006Ev, symObjAddr: 0x27B8, symBinAddr: 0x100003000, symSize: 0x18 }
  - { offsetInCU: 0x175DA, offset: 0x175DA, size: 0x8, addend: 0x0, symName: __ZNSt3__111char_traitsIcE11to_int_typeEc, symObjAddr: 0x27D0, symBinAddr: 0x100003018, symSize: 0x14 }
  - { offsetInCU: 0x175FD, offset: 0x175FD, size: 0x8, addend: 0x0, symName: __ZNKSt3__112basic_stringIcNS_11char_traitsIcEENS_9allocatorIcEEE15__get_long_sizeB7v160006Ev, symObjAddr: 0x27E4, symBinAddr: 0x10000302C, symSize: 0x28 }
  - { offsetInCU: 0x17623, offset: 0x17623, size: 0x8, addend: 0x0, symName: __ZNKSt3__112basic_stringIcNS_11char_traitsIcEENS_9allocatorIcEEE16__get_short_sizeB7v160006Ev, symObjAddr: 0x280C, symBinAddr: 0x100003054, symSize: 0x34 }
  - { offsetInCU: 0x17653, offset: 0x17653, size: 0x8, addend: 0x0, symName: __ZNSt3__116allocator_traitsINS_9allocatorIcEEE8max_sizeB7v160006IS2_vEEmRKS2_, symObjAddr: 0x2840, symBinAddr: 0x100003088, symSize: 0x24 }
  - { offsetInCU: 0x17681, offset: 0x17681, size: 0x8, addend: 0x0, symName: __ZNKSt3__112basic_stringIcNS_11char_traitsIcEENS_9allocatorIcEEE7__allocB7v160006Ev, symObjAddr: 0x2864, symBinAddr: 0x1000030AC, symSize: 0x24 }
  - { offsetInCU: 0x176A7, offset: 0x176A7, size: 0x8, addend: 0x0, symName: __ZNSt3__114numeric_limitsImE3maxB7v160006Ev, symObjAddr: 0x2888, symBinAddr: 0x1000030D0, symSize: 0x14 }
  - { offsetInCU: 0x176BB, offset: 0x176BB, size: 0x8, addend: 0x0, symName: __ZNKSt3__19allocatorIcE8max_sizeB7v160006Ev, symObjAddr: 0x289C, symBinAddr: 0x1000030E4, symSize: 0x14 }
  - { offsetInCU: 0x176E1, offset: 0x176E1, size: 0x8, addend: 0x0, symName: __ZNKSt3__117__compressed_pairINS_12basic_stringIcNS_11char_traitsIcEENS_9allocatorIcEEE5__repES5_E6secondB7v160006Ev, symObjAddr: 0x28B0, symBinAddr: 0x1000030F8, symSize: 0x24 }
  - { offsetInCU: 0x17707, offset: 0x17707, size: 0x8, addend: 0x0, symName: __ZNKSt3__122__compressed_pair_elemINS_9allocatorIcEELi1ELb1EE5__getB7v160006Ev, symObjAddr: 0x28D4, symBinAddr: 0x10000311C, symSize: 0x14 }
  - { offsetInCU: 0x1772D, offset: 0x1772D, size: 0x8, addend: 0x0, symName: __ZNSt3__123__libcpp_numeric_limitsImLb1EE3maxB7v160006Ev, symObjAddr: 0x28E8, symBinAddr: 0x100003130, symSize: 0x8 }
  - { offsetInCU: 0x17741, offset: 0x17741, size: 0x8, addend: 0x0, symName: __ZNKSt3__18ios_base10exceptionsB7v160006Ev, symObjAddr: 0x28F0, symBinAddr: 0x100003138, symSize: 0x18 }
  - { offsetInCU: 0x177A0, offset: 0x177A0, size: 0x8, addend: 0x0, symName: __ZNKSt3__15ctypeIcE5widenB7v160006Ec, symObjAddr: 0x2934, symBinAddr: 0x10000317C, symSize: 0x38 }
  - { offsetInCU: 0x177D5, offset: 0x177D5, size: 0x8, addend: 0x0, symName: __ZNSt3__16vectorINS_12basic_stringIcNS_11char_traitsIcEENS_9allocatorIcEEEENS4_IS6_EEE11__make_iterB7v160006EPS6_, symObjAddr: 0x296C, symBinAddr: 0x1000031B4, symSize: 0x34 }
  - { offsetInCU: 0x1780A, offset: 0x1780A, size: 0x8, addend: 0x0, symName: __ZNSt3__111__wrap_iterIPNS_12basic_stringIcNS_11char_traitsIcEENS_9allocatorIcEEEEEC1B7v160006EPKvS7_, symObjAddr: 0x29A0, symBinAddr: 0x1000031E8, symSize: 0x3C }
  - { offsetInCU: 0x17850, offset: 0x17850, size: 0x8, addend: 0x0, symName: __ZNSt3__111__wrap_iterIPNS_12basic_stringIcNS_11char_traitsIcEENS_9allocatorIcEEEEEC2B7v160006EPKvS7_, symObjAddr: 0x29DC, symBinAddr: 0x100003224, symSize: 0x24 }
  - { offsetInCU: 0x17896, offset: 0x17896, size: 0x8, addend: 0x0, symName: __ZNKSt3__111__wrap_iterIPNS_12basic_stringIcNS_11char_traitsIcEENS_9allocatorIcEEEEE4baseB7v160006Ev, symObjAddr: 0x2A48, symBinAddr: 0x100003290, symSize: 0x18 }
  - { offsetInCU: 0x178BC, offset: 0x178BC, size: 0x8, addend: 0x0, symName: __ZNSt3__16vectorIxNS_9allocatorIxEEE9__end_capB7v160006Ev, symObjAddr: 0x2A60, symBinAddr: 0x1000032A8, symSize: 0x28 }
  - { offsetInCU: 0x178E7, offset: 0x178E7, size: 0x8, addend: 0x0, symName: __ZNSt3__16vectorIxNS_9allocatorIxEEE22__construct_one_at_endB7v160006IJxEEEvDpOT_, symObjAddr: 0x2A88, symBinAddr: 0x1000032D0, symSize: 0x90 }
  - { offsetInCU: 0x17936, offset: 0x17936, size: 0x8, addend: 0x0, symName: __ZNSt3__16vectorIxNS_9allocatorIxEEE21__push_back_slow_pathIxEEvOT_, symObjAddr: 0x2B18, symBinAddr: 0x100003360, symSize: 0xD8 }
  - { offsetInCU: 0x17994, offset: 0x17994, size: 0x8, addend: 0x0, symName: __ZNSt3__117__compressed_pairIPxNS_9allocatorIxEEE5firstB7v160006Ev, symObjAddr: 0x2BF0, symBinAddr: 0x100003438, symSize: 0x24 }
  - { offsetInCU: 0x179BA, offset: 0x179BA, size: 0x8, addend: 0x0, symName: __ZNSt3__122__compressed_pair_elemIPxLi0ELb0EE5__getB7v160006Ev, symObjAddr: 0x2C14, symBinAddr: 0x10000345C, symSize: 0x14 }
  - { offsetInCU: 0x179F9, offset: 0x179F9, size: 0x8, addend: 0x0, symName: __ZNSt3__16vectorIxNS_9allocatorIxEEE21_ConstructTransactionC1B7v160006ERS3_m, symObjAddr: 0x2C28, symBinAddr: 0x100003470, symSize: 0x3C }
  - { offsetInCU: 0x17A41, offset: 0x17A41, size: 0x8, addend: 0x0, symName: __ZNSt3__116allocator_traitsINS_9allocatorIxEEE9constructB7v160006IxJxEvEEvRS2_PT_DpOT0_, symObjAddr: 0x2C64, symBinAddr: 0x1000034AC, symSize: 0x34 }
  - { offsetInCU: 0x17A98, offset: 0x17A98, size: 0x8, addend: 0x0, symName: __ZNSt3__16vectorIxNS_9allocatorIxEEE7__allocB7v160006Ev, symObjAddr: 0x2C98, symBinAddr: 0x1000034E0, symSize: 0x28 }
  - { offsetInCU: 0x17ABE, offset: 0x17ABE, size: 0x8, addend: 0x0, symName: __ZNSt3__16vectorIxNS_9allocatorIxEEE21_ConstructTransactionD1B7v160006Ev, symObjAddr: 0x2CD4, symBinAddr: 0x10000351C, symSize: 0x2C }
  - { offsetInCU: 0x17AE8, offset: 0x17AE8, size: 0x8, addend: 0x0, symName: __ZNSt3__16vectorIxNS_9allocatorIxEEE21_ConstructTransactionC2B7v160006ERS3_m, symObjAddr: 0x2D00, symBinAddr: 0x100003548, symSize: 0x44 }
  - { offsetInCU: 0x17B30, offset: 0x17B30, size: 0x8, addend: 0x0, symName: __ZNSt3__19allocatorIxE9constructB7v160006IxJxEEEvPT_DpOT0_, symObjAddr: 0x2D44, symBinAddr: 0x10000358C, symSize: 0x28 }
  - { offsetInCU: 0x17B86, offset: 0x17B86, size: 0x8, addend: 0x0, symName: __ZNSt3__117__compressed_pairIPxNS_9allocatorIxEEE6secondB7v160006Ev, symObjAddr: 0x2D6C, symBinAddr: 0x1000035B4, symSize: 0x24 }
  - { offsetInCU: 0x17BAC, offset: 0x17BAC, size: 0x8, addend: 0x0, symName: __ZNSt3__122__compressed_pair_elemINS_9allocatorIxEELi1ELb1EE5__getB7v160006Ev, symObjAddr: 0x2D90, symBinAddr: 0x1000035D8, symSize: 0x14 }
  - { offsetInCU: 0x17BD2, offset: 0x17BD2, size: 0x8, addend: 0x0, symName: __ZNSt3__16vectorIxNS_9allocatorIxEEE21_ConstructTransactionD2B7v160006Ev, symObjAddr: 0x2DA4, symBinAddr: 0x1000035EC, symSize: 0x20 }
  - { offsetInCU: 0x17BFC, offset: 0x17BFC, size: 0x8, addend: 0x0, symName: __ZNKSt3__16vectorIxNS_9allocatorIxEEE11__recommendB7v160006Em, symObjAddr: 0x2DC4, symBinAddr: 0x10000360C, symSize: 0xB4 }
  - { offsetInCU: 0x17C51, offset: 0x17C51, size: 0x8, addend: 0x0, symName: __ZNKSt3__16vectorIxNS_9allocatorIxEEE4sizeB7v160006Ev, symObjAddr: 0x2E78, symBinAddr: 0x1000036C0, symSize: 0x28 }
  - { offsetInCU: 0x17C77, offset: 0x17C77, size: 0x8, addend: 0x0, symName: __ZNSt3__114__split_bufferIxRNS_9allocatorIxEEEC1EmmS3_, symObjAddr: 0x2EA0, symBinAddr: 0x1000036E8, symSize: 0x44 }
  - { offsetInCU: 0x17CCD, offset: 0x17CCD, size: 0x8, addend: 0x0, symName: __ZNSt3__114__split_bufferIxRNS_9allocatorIxEEED1Ev, symObjAddr: 0x2FFC, symBinAddr: 0x100003844, symSize: 0x2C }
  - { offsetInCU: 0x17CF9, offset: 0x17CF9, size: 0x8, addend: 0x0, symName: __ZNKSt3__16vectorIxNS_9allocatorIxEEE8max_sizeEv, symObjAddr: 0x3028, symBinAddr: 0x100003870, symSize: 0x60 }
  - { offsetInCU: 0x17D21, offset: 0x17D21, size: 0x8, addend: 0x0, symName: __ZNKSt3__16vectorIxNS_9allocatorIxEEE20__throw_length_errorB7v160006Ev, symObjAddr: 0x3088, symBinAddr: 0x1000038D0, symSize: 0x1C }
  - { offsetInCU: 0x17D47, offset: 0x17D47, size: 0x8, addend: 0x0, symName: __ZNKSt3__16vectorIxNS_9allocatorIxEEE8capacityB7v160006Ev, symObjAddr: 0x30A4, symBinAddr: 0x1000038EC, symSize: 0x40 }
  - { offsetInCU: 0x17D77, offset: 0x17D77, size: 0x8, addend: 0x0, symName: __ZNSt3__116allocator_traitsINS_9allocatorIxEEE8max_sizeB7v160006IS2_vEEmRKS2_, symObjAddr: 0x313C, symBinAddr: 0x100003984, symSize: 0x24 }
  - { offsetInCU: 0x17DA5, offset: 0x17DA5, size: 0x8, addend: 0x0, symName: __ZNKSt3__16vectorIxNS_9allocatorIxEEE7__allocB7v160006Ev, symObjAddr: 0x3160, symBinAddr: 0x1000039A8, symSize: 0x28 }
  - { offsetInCU: 0x17DCB, offset: 0x17DCB, size: 0x8, addend: 0x0, symName: __ZNSt3__114numeric_limitsIlE3maxB7v160006Ev, symObjAddr: 0x3188, symBinAddr: 0x1000039D0, symSize: 0x14 }
  - { offsetInCU: 0x17DF3, offset: 0x17DF3, size: 0x8, addend: 0x0, symName: __ZNKSt3__16__lessImmEclB7v160006ERKmS3_, symObjAddr: 0x31F0, symBinAddr: 0x100003A38, symSize: 0x34 }
  - { offsetInCU: 0x17E35, offset: 0x17E35, size: 0x8, addend: 0x0, symName: __ZNKSt3__19allocatorIxE8max_sizeB7v160006Ev, symObjAddr: 0x3224, symBinAddr: 0x100003A6C, symSize: 0x14 }
  - { offsetInCU: 0x17E5B, offset: 0x17E5B, size: 0x8, addend: 0x0, symName: __ZNKSt3__117__compressed_pairIPxNS_9allocatorIxEEE6secondB7v160006Ev, symObjAddr: 0x3238, symBinAddr: 0x100003A80, symSize: 0x24 }
  - { offsetInCU: 0x17E81, offset: 0x17E81, size: 0x8, addend: 0x0, symName: __ZNKSt3__122__compressed_pair_elemINS_9allocatorIxEELi1ELb1EE5__getB7v160006Ev, symObjAddr: 0x325C, symBinAddr: 0x100003AA4, symSize: 0x14 }
  - { offsetInCU: 0x17EA7, offset: 0x17EA7, size: 0x8, addend: 0x0, symName: __ZNSt3__123__libcpp_numeric_limitsIlLb1EE3maxB7v160006Ev, symObjAddr: 0x3270, symBinAddr: 0x100003AB8, symSize: 0x8 }
  - { offsetInCU: 0x17EBB, offset: 0x17EBB, size: 0x8, addend: 0x0, symName: __ZNSt12length_errorC1B7v160006EPKc, symObjAddr: 0x32DC, symBinAddr: 0x100003B24, symSize: 0x34 }
  - { offsetInCU: 0x17EF3, offset: 0x17EF3, size: 0x8, addend: 0x0, symName: __ZNSt12length_errorC2B7v160006EPKc, symObjAddr: 0x3310, symBinAddr: 0x100003B58, symSize: 0x4C }
  - { offsetInCU: 0x17F2B, offset: 0x17F2B, size: 0x8, addend: 0x0, symName: __ZNKSt3__16vectorIxNS_9allocatorIxEEE9__end_capB7v160006Ev, symObjAddr: 0x335C, symBinAddr: 0x100003BA4, symSize: 0x28 }
  - { offsetInCU: 0x17F51, offset: 0x17F51, size: 0x8, addend: 0x0, symName: __ZNKSt3__117__compressed_pairIPxNS_9allocatorIxEEE5firstB7v160006Ev, symObjAddr: 0x3384, symBinAddr: 0x100003BCC, symSize: 0x24 }
  - { offsetInCU: 0x17F77, offset: 0x17F77, size: 0x8, addend: 0x0, symName: __ZNKSt3__122__compressed_pair_elemIPxLi0ELb0EE5__getB7v160006Ev, symObjAddr: 0x33A8, symBinAddr: 0x100003BF0, symSize: 0x14 }
  - { offsetInCU: 0x17F9D, offset: 0x17F9D, size: 0x8, addend: 0x0, symName: __ZNSt3__114__split_bufferIxRNS_9allocatorIxEEEC2EmmS3_, symObjAddr: 0x3410, symBinAddr: 0x100003C58, symSize: 0xD4 }
  - { offsetInCU: 0x18011, offset: 0x18011, size: 0x8, addend: 0x0, symName: __ZNSt3__117__compressed_pairIPxRNS_9allocatorIxEEEC1B7v160006IDnS4_EEOT_OT0_, symObjAddr: 0x34E4, symBinAddr: 0x100003D2C, symSize: 0x3C }
  - { offsetInCU: 0x18069, offset: 0x18069, size: 0x8, addend: 0x0, symName: __ZNSt3__114__split_bufferIxRNS_9allocatorIxEEE7__allocB7v160006Ev, symObjAddr: 0x3560, symBinAddr: 0x100003DA8, symSize: 0x28 }
  - { offsetInCU: 0x1808F, offset: 0x1808F, size: 0x8, addend: 0x0, symName: __ZNSt3__114__split_bufferIxRNS_9allocatorIxEEE9__end_capB7v160006Ev, symObjAddr: 0x3588, symBinAddr: 0x100003DD0, symSize: 0x28 }
  - { offsetInCU: 0x180B5, offset: 0x180B5, size: 0x8, addend: 0x0, symName: __ZNSt3__117__compressed_pairIPxRNS_9allocatorIxEEEC2B7v160006IDnS4_EEOT_OT0_, symObjAddr: 0x35B0, symBinAddr: 0x100003DF8, symSize: 0x48 }
  - { offsetInCU: 0x1810D, offset: 0x1810D, size: 0x8, addend: 0x0, symName: __ZNSt3__122__compressed_pair_elemIRNS_9allocatorIxEELi1ELb0EEC2B7v160006IS3_vEEOT_, symObjAddr: 0x35F8, symBinAddr: 0x100003E40, symSize: 0x20 }
  - { offsetInCU: 0x1814F, offset: 0x1814F, size: 0x8, addend: 0x0, symName: __ZNSt3__19allocatorIxE8allocateB7v160006Em, symObjAddr: 0x3618, symBinAddr: 0x100003E60, symSize: 0x58 }
  - { offsetInCU: 0x18183, offset: 0x18183, size: 0x8, addend: 0x0, symName: __ZNSt3__117__compressed_pairIPxRNS_9allocatorIxEEE6secondB7v160006Ev, symObjAddr: 0x36F0, symBinAddr: 0x100003F38, symSize: 0x28 }
  - { offsetInCU: 0x181A9, offset: 0x181A9, size: 0x8, addend: 0x0, symName: __ZNSt3__122__compressed_pair_elemIRNS_9allocatorIxEELi1ELb0EE5__getB7v160006Ev, symObjAddr: 0x3718, symBinAddr: 0x100003F60, symSize: 0x18 }
  - { offsetInCU: 0x181CF, offset: 0x181CF, size: 0x8, addend: 0x0, symName: __ZNSt3__117__compressed_pairIPxRNS_9allocatorIxEEE5firstB7v160006Ev, symObjAddr: 0x3730, symBinAddr: 0x100003F78, symSize: 0x24 }
  - { offsetInCU: 0x181F5, offset: 0x181F5, size: 0x8, addend: 0x0, symName: __ZNKSt3__16vectorIxNS_9allocatorIxEEE17__annotate_deleteB7v160006Ev, symObjAddr: 0x3754, symBinAddr: 0x100003F9C, symSize: 0xB8 }
  - { offsetInCU: 0x1821B, offset: 0x1821B, size: 0x8, addend: 0x0, symName: __ZNSt3__116reverse_iteratorIPxEC1B7v160006ES1_, symObjAddr: 0x3884, symBinAddr: 0x1000040CC, symSize: 0x34 }
  - { offsetInCU: 0x18253, offset: 0x18253, size: 0x8, addend: 0x0, symName: __ZNKSt3__116reverse_iteratorIPxE4baseB7v160006Ev, symObjAddr: 0x38B8, symBinAddr: 0x100004100, symSize: 0x18 }
  - { offsetInCU: 0x18279, offset: 0x18279, size: 0x8, addend: 0x0, symName: __ZNKSt3__16vectorIxNS_9allocatorIxEEE14__annotate_newB7v160006Em, symObjAddr: 0x390C, symBinAddr: 0x100004154, symSize: 0xAC }
  - { offsetInCU: 0x182AE, offset: 0x182AE, size: 0x8, addend: 0x0, symName: __ZNKSt3__16vectorIxNS_9allocatorIxEEE31__annotate_contiguous_containerB7v160006EPKvS5_S5_S5_, symObjAddr: 0x39C8, symBinAddr: 0x100004210, symSize: 0x20 }
  - { offsetInCU: 0x18300, offset: 0x18300, size: 0x8, addend: 0x0, symName: __ZNKSt3__16vectorIxNS_9allocatorIxEEE4dataB7v160006Ev, symObjAddr: 0x39E8, symBinAddr: 0x100004230, symSize: 0x28 }
  - { offsetInCU: 0x18349, offset: 0x18349, size: 0x8, addend: 0x0, symName: __ZNKSt3__111__move_loopINS_17_ClassicAlgPolicyEEclB7v160006INS_16reverse_iteratorIPxEES6_S6_EENS_4pairIT_T1_EES8_T0_S9_, symObjAddr: 0x3D00, symBinAddr: 0x100004548, symSize: 0xA0 }
  - { offsetInCU: 0x183B4, offset: 0x183B4, size: 0x8, addend: 0x0, symName: __ZNSt3__18_IterOpsINS_17_ClassicAlgPolicyEE11__iter_moveB7v160006IRNS_16reverse_iteratorIPxEEEENS_9enable_ifIXsr12is_referenceIDTdeclsr3stdE7declvalIRT_EEEEE5valueEDTclsr3stdE4movedeclsr3stdE7declvalISA_EEEEE4typeEOS9_, symObjAddr: 0x3F34, symBinAddr: 0x10000477C, symSize: 0x28 }
  - { offsetInCU: 0x183E0, offset: 0x183E0, size: 0x8, addend: 0x0, symName: __ZNKSt3__116reverse_iteratorIPxEdeB7v160006Ev, symObjAddr: 0x3F5C, symBinAddr: 0x1000047A4, symSize: 0x28 }
  - { offsetInCU: 0x18414, offset: 0x18414, size: 0x8, addend: 0x0, symName: __ZNSt3__116reverse_iteratorIPxEppB7v160006Ev, symObjAddr: 0x3F84, symBinAddr: 0x1000047CC, symSize: 0x20 }
  - { offsetInCU: 0x1843A, offset: 0x1843A, size: 0x8, addend: 0x0, symName: __ZNSt3__18_IterOpsINS_17_ClassicAlgPolicyEE25__validate_iter_referenceB7v160006IRNS_16reverse_iteratorIPxEEEEvv, symObjAddr: 0x3FA4, symBinAddr: 0x1000047EC, symSize: 0x4 }
  - { offsetInCU: 0x18458, offset: 0x18458, size: 0x8, addend: 0x0, symName: __ZNSt3__118__unwrap_iter_implINS_16reverse_iteratorIPxEELb0EE8__unwrapB7v160006ES3_, symObjAddr: 0x3FA8, symBinAddr: 0x1000047F0, symSize: 0x24 }
  - { offsetInCU: 0x18480, offset: 0x18480, size: 0x8, addend: 0x0, symName: __ZNSt3__14pairINS_16reverse_iteratorIPxEES3_EC1B7v160006IS3_S3_LPv0EEEOT_OT0_, symObjAddr: 0x3FCC, symBinAddr: 0x100004814, symSize: 0x3C }
  - { offsetInCU: 0x184DE, offset: 0x184DE, size: 0x8, addend: 0x0, symName: __ZNSt3__14pairINS_16reverse_iteratorIPxEES3_EC2B7v160006IS3_S3_LPv0EEEOT_OT0_, symObjAddr: 0x4008, symBinAddr: 0x100004850, symSize: 0x34 }
  - { offsetInCU: 0x1853C, offset: 0x1853C, size: 0x8, addend: 0x0, symName: __ZNSt3__118__unwrap_iter_implINS_16reverse_iteratorIPxEELb0EE8__rewrapB7v160006ES3_S3_, symObjAddr: 0x403C, symBinAddr: 0x100004884, symSize: 0x2C }
  - { offsetInCU: 0x18569, offset: 0x18569, size: 0x8, addend: 0x0, symName: __ZNSt3__116reverse_iteratorIPxEC2B7v160006ES1_, symObjAddr: 0x4068, symBinAddr: 0x1000048B0, symSize: 0x28 }
  - { offsetInCU: 0x185A1, offset: 0x185A1, size: 0x8, addend: 0x0, symName: __ZNSt3__114__split_bufferIxRNS_9allocatorIxEEED2Ev, symObjAddr: 0x4090, symBinAddr: 0x1000048D8, symSize: 0x8C }
  - { offsetInCU: 0x185CD, offset: 0x185CD, size: 0x8, addend: 0x0, symName: __ZNSt3__114__split_bufferIxRNS_9allocatorIxEEE5clearB7v160006Ev, symObjAddr: 0x411C, symBinAddr: 0x100004964, symSize: 0x28 }
  - { offsetInCU: 0x185F3, offset: 0x185F3, size: 0x8, addend: 0x0, symName: __ZNSt3__116allocator_traitsINS_9allocatorIxEEE10deallocateB7v160006ERS2_Pxm, symObjAddr: 0x4144, symBinAddr: 0x10000498C, symSize: 0x34 }
  - { offsetInCU: 0x18635, offset: 0x18635, size: 0x8, addend: 0x0, symName: __ZNKSt3__114__split_bufferIxRNS_9allocatorIxEEE8capacityB7v160006Ev, symObjAddr: 0x4178, symBinAddr: 0x1000049C0, symSize: 0x40 }
  - { offsetInCU: 0x1865B, offset: 0x1865B, size: 0x8, addend: 0x0, symName: __ZNSt3__114__split_bufferIxRNS_9allocatorIxEEE17__destruct_at_endB7v160006EPx, symObjAddr: 0x41B8, symBinAddr: 0x100004A00, symSize: 0x2C }
  - { offsetInCU: 0x1868F, offset: 0x1868F, size: 0x8, addend: 0x0, symName: __ZNSt3__114__split_bufferIxRNS_9allocatorIxEEE17__destruct_at_endB7v160006EPxNS_17integral_constantIbLb0EEE, symObjAddr: 0x41E4, symBinAddr: 0x100004A2C, symSize: 0x80 }
  - { offsetInCU: 0x186CF, offset: 0x186CF, size: 0x8, addend: 0x0, symName: __ZNSt3__116allocator_traitsINS_9allocatorIxEEE7destroyB7v160006IxvEEvRS2_PT_, symObjAddr: 0x4264, symBinAddr: 0x100004AAC, symSize: 0x2C }
  - { offsetInCU: 0x1870C, offset: 0x1870C, size: 0x8, addend: 0x0, symName: __ZNSt3__19allocatorIxE7destroyB7v160006EPx, symObjAddr: 0x4290, symBinAddr: 0x100004AD8, symSize: 0x14 }
  - { offsetInCU: 0x18740, offset: 0x18740, size: 0x8, addend: 0x0, symName: __ZNSt3__19allocatorIxE10deallocateB7v160006EPxm, symObjAddr: 0x42A4, symBinAddr: 0x100004AEC, symSize: 0x40 }
  - { offsetInCU: 0x18782, offset: 0x18782, size: 0x8, addend: 0x0, symName: __ZNKSt3__114__split_bufferIxRNS_9allocatorIxEEE9__end_capB7v160006Ev, symObjAddr: 0x4360, symBinAddr: 0x100004BA8, symSize: 0x28 }
  - { offsetInCU: 0x187A8, offset: 0x187A8, size: 0x8, addend: 0x0, symName: __ZNKSt3__117__compressed_pairIPxRNS_9allocatorIxEEE5firstB7v160006Ev, symObjAddr: 0x4388, symBinAddr: 0x100004BD0, symSize: 0x24 }
  - { offsetInCU: 0x187CE, offset: 0x187CE, size: 0x8, addend: 0x0, symName: __ZNSt3__16vectorI5RangeNS_9allocatorIS1_EEEC2B7v160006Ev, symObjAddr: 0x43AC, symBinAddr: 0x100004BF4, symSize: 0x58 }
  - { offsetInCU: 0x187F8, offset: 0x187F8, size: 0x8, addend: 0x0, symName: __ZNSt3__117__compressed_pairIP5RangeNS_9allocatorIS1_EEEC1B7v160006IDnNS_18__default_init_tagEEEOT_OT0_, symObjAddr: 0x4404, symBinAddr: 0x100004C4C, symSize: 0x3C }
  - { offsetInCU: 0x18850, offset: 0x18850, size: 0x8, addend: 0x0, symName: __ZNSt3__117__compressed_pairIP5RangeNS_9allocatorIS1_EEEC2B7v160006IDnNS_18__default_init_tagEEEOT_OT0_, symObjAddr: 0x4450, symBinAddr: 0x100004C98, symSize: 0x40 }
  - { offsetInCU: 0x188A8, offset: 0x188A8, size: 0x8, addend: 0x0, symName: __ZNSt3__122__compressed_pair_elemIP5RangeLi0ELb0EEC2B7v160006IDnvEEOT_, symObjAddr: 0x4490, symBinAddr: 0x100004CD8, symSize: 0x1C }
  - { offsetInCU: 0x188EA, offset: 0x188EA, size: 0x8, addend: 0x0, symName: __ZNSt3__122__compressed_pair_elemINS_9allocatorI5RangeEELi1ELb1EEC2B7v160006ENS_18__default_init_tagE, symObjAddr: 0x44AC, symBinAddr: 0x100004CF4, symSize: 0x2C }
  - { offsetInCU: 0x1891E, offset: 0x1891E, size: 0x8, addend: 0x0, symName: __ZNSt3__19allocatorI5RangeEC2B7v160006Ev, symObjAddr: 0x44D8, symBinAddr: 0x100004D20, symSize: 0x2C }
  - { offsetInCU: 0x18948, offset: 0x18948, size: 0x8, addend: 0x0, symName: __ZNSt3__116__non_trivial_ifILb1ENS_9allocatorI5RangeEEEC2B7v160006Ev, symObjAddr: 0x4504, symBinAddr: 0x100004D4C, symSize: 0x14 }
  - { offsetInCU: 0x18972, offset: 0x18972, size: 0x8, addend: 0x0, symName: __ZNSt3__111char_traitsIcE6lengthEPKc, symObjAddr: 0x4518, symBinAddr: 0x100004D60, symSize: 0x34 }
  - { offsetInCU: 0x18995, offset: 0x18995, size: 0x8, addend: 0x0, symName: __ZNSt3__16vectorINS0_I5RangeNS_9allocatorIS1_EEEENS2_IS4_EEE9__end_capB7v160006Ev, symObjAddr: 0x4570, symBinAddr: 0x100004DB8, symSize: 0x28 }
  - { offsetInCU: 0x189BB, offset: 0x189BB, size: 0x8, addend: 0x0, symName: __ZNSt3__16vectorINS0_I5RangeNS_9allocatorIS1_EEEENS2_IS4_EEE22__construct_one_at_endB7v160006IJRKS4_EEEvDpOT_, symObjAddr: 0x4598, symBinAddr: 0x100004DE0, symSize: 0x90 }
  - { offsetInCU: 0x18A0A, offset: 0x18A0A, size: 0x8, addend: 0x0, symName: __ZNSt3__16vectorINS0_I5RangeNS_9allocatorIS1_EEEENS2_IS4_EEE21__push_back_slow_pathIRKS4_EEvOT_, symObjAddr: 0x4628, symBinAddr: 0x100004E70, symSize: 0xD8 }
  - { offsetInCU: 0x18A68, offset: 0x18A68, size: 0x8, addend: 0x0, symName: __ZNSt3__117__compressed_pairIPNS_6vectorI5RangeNS_9allocatorIS2_EEEENS3_IS5_EEE5firstB7v160006Ev, symObjAddr: 0x4700, symBinAddr: 0x100004F48, symSize: 0x24 }
  - { offsetInCU: 0x18A8E, offset: 0x18A8E, size: 0x8, addend: 0x0, symName: __ZNSt3__122__compressed_pair_elemIPNS_6vectorI5RangeNS_9allocatorIS2_EEEELi0ELb0EE5__getB7v160006Ev, symObjAddr: 0x4724, symBinAddr: 0x100004F6C, symSize: 0x14 }
  - { offsetInCU: 0x18ACD, offset: 0x18ACD, size: 0x8, addend: 0x0, symName: __ZNSt3__16vectorINS0_I5RangeNS_9allocatorIS1_EEEENS2_IS4_EEE21_ConstructTransactionC1B7v160006ERS6_m, symObjAddr: 0x4738, symBinAddr: 0x100004F80, symSize: 0x3C }
  - { offsetInCU: 0x18B15, offset: 0x18B15, size: 0x8, addend: 0x0, symName: __ZNSt3__116allocator_traitsINS_9allocatorINS_6vectorI5RangeNS1_IS3_EEEEEEE9constructB7v160006IS5_JRKS5_EvEEvRS6_PT_DpOT0_, symObjAddr: 0x4774, symBinAddr: 0x100004FBC, symSize: 0x34 }
  - { offsetInCU: 0x18B6C, offset: 0x18B6C, size: 0x8, addend: 0x0, symName: __ZNSt3__16vectorINS0_I5RangeNS_9allocatorIS1_EEEENS2_IS4_EEE7__allocB7v160006Ev, symObjAddr: 0x47A8, symBinAddr: 0x100004FF0, symSize: 0x28 }
  - { offsetInCU: 0x18B92, offset: 0x18B92, size: 0x8, addend: 0x0, symName: __ZNSt3__16vectorINS0_I5RangeNS_9allocatorIS1_EEEENS2_IS4_EEE21_ConstructTransactionD1B7v160006Ev, symObjAddr: 0x47E4, symBinAddr: 0x10000502C, symSize: 0x2C }
  - { offsetInCU: 0x18BBC, offset: 0x18BBC, size: 0x8, addend: 0x0, symName: __ZNSt3__16vectorINS0_I5RangeNS_9allocatorIS1_EEEENS2_IS4_EEE21_ConstructTransactionC2B7v160006ERS6_m, symObjAddr: 0x4810, symBinAddr: 0x100005058, symSize: 0x4C }
  - { offsetInCU: 0x18C04, offset: 0x18C04, size: 0x8, addend: 0x0, symName: __ZNSt3__19allocatorINS_6vectorI5RangeNS0_IS2_EEEEE9constructB7v160006IS4_JRKS4_EEEvPT_DpOT0_, symObjAddr: 0x485C, symBinAddr: 0x1000050A4, symSize: 0x30 }
  - { offsetInCU: 0x18C5A, offset: 0x18C5A, size: 0x8, addend: 0x0, symName: __ZNSt3__16vectorI5RangeNS_9allocatorIS1_EEEC1ERKS4_, symObjAddr: 0x488C, symBinAddr: 0x1000050D4, symSize: 0x34 }
  - { offsetInCU: 0x18C95, offset: 0x18C95, size: 0x8, addend: 0x0, symName: __ZNSt3__16vectorI5RangeNS_9allocatorIS1_EEEC2ERKS4_, symObjAddr: 0x48C0, symBinAddr: 0x100005108, symSize: 0x110 }
  - { offsetInCU: 0x18CFE, offset: 0x18CFE, size: 0x8, addend: 0x0, symName: __ZNSt3__116allocator_traitsINS_9allocatorI5RangeEEE37select_on_container_copy_constructionB7v160006IS3_vvEES3_RKS3_, symObjAddr: 0x49D0, symBinAddr: 0x100005218, symSize: 0x10 }
  - { offsetInCU: 0x18D2D, offset: 0x18D2D, size: 0x8, addend: 0x0, symName: __ZNKSt3__16vectorI5RangeNS_9allocatorIS1_EEE7__allocB7v160006Ev, symObjAddr: 0x49E0, symBinAddr: 0x100005228, symSize: 0x28 }
  - { offsetInCU: 0x18D58, offset: 0x18D58, size: 0x8, addend: 0x0, symName: __ZNSt3__117__compressed_pairIP5RangeNS_9allocatorIS1_EEEC1B7v160006IDnS4_EEOT_OT0_, symObjAddr: 0x4A08, symBinAddr: 0x100005250, symSize: 0x3C }
  - { offsetInCU: 0x18DB0, offset: 0x18DB0, size: 0x8, addend: 0x0, symName: __ZNSt3__16vectorI5RangeNS_9allocatorIS1_EEE16__destroy_vectorC1ERS4_, symObjAddr: 0x4A84, symBinAddr: 0x1000052CC, symSize: 0x34 }
  - { offsetInCU: 0x18DE9, offset: 0x18DE9, size: 0x8, addend: 0x0, symName: __ZNKSt3__16vectorI5RangeNS_9allocatorIS1_EEE4sizeB7v160006Ev, symObjAddr: 0x4AB8, symBinAddr: 0x100005300, symSize: 0x28 }
  - { offsetInCU: 0x18E0F, offset: 0x18E0F, size: 0x8, addend: 0x0, symName: __ZNSt3__16vectorI5RangeNS_9allocatorIS1_EEE11__vallocateB7v160006Em, symObjAddr: 0x4AE0, symBinAddr: 0x100005328, symSize: 0xB4 }
  - { offsetInCU: 0x18E53, offset: 0x18E53, size: 0x8, addend: 0x0, symName: __ZNSt3__16vectorI5RangeNS_9allocatorIS1_EEE18__construct_at_endIPS1_Li0EEEvT_S7_m, symObjAddr: 0x4B94, symBinAddr: 0x1000053DC, symSize: 0x8C }
  - { offsetInCU: 0x18EC6, offset: 0x18EC6, size: 0x8, addend: 0x0, symName: __ZNSt3__128__exception_guard_exceptionsINS_6vectorI5RangeNS_9allocatorIS2_EEE16__destroy_vectorEE10__completeB7v160006Ev, symObjAddr: 0x4C20, symBinAddr: 0x100005468, symSize: 0x1C }
  - { offsetInCU: 0x18EEC, offset: 0x18EEC, size: 0x8, addend: 0x0, symName: __ZNSt3__128__exception_guard_exceptionsINS_6vectorI5RangeNS_9allocatorIS2_EEE16__destroy_vectorEED1B7v160006Ev, symObjAddr: 0x4C3C, symBinAddr: 0x100005484, symSize: 0x2C }
  - { offsetInCU: 0x18F16, offset: 0x18F16, size: 0x8, addend: 0x0, symName: __ZNKSt3__117__compressed_pairIP5RangeNS_9allocatorIS1_EEE6secondB7v160006Ev, symObjAddr: 0x4C68, symBinAddr: 0x1000054B0, symSize: 0x24 }
  - { offsetInCU: 0x18F3C, offset: 0x18F3C, size: 0x8, addend: 0x0, symName: __ZNKSt3__122__compressed_pair_elemINS_9allocatorI5RangeEELi1ELb1EE5__getB7v160006Ev, symObjAddr: 0x4C8C, symBinAddr: 0x1000054D4, symSize: 0x14 }
  - { offsetInCU: 0x18F62, offset: 0x18F62, size: 0x8, addend: 0x0, symName: __ZNSt3__117__compressed_pairIP5RangeNS_9allocatorIS1_EEEC2B7v160006IDnS4_EEOT_OT0_, symObjAddr: 0x4CA0, symBinAddr: 0x1000054E8, symSize: 0x44 }
  - { offsetInCU: 0x18FBA, offset: 0x18FBA, size: 0x8, addend: 0x0, symName: __ZNSt3__122__compressed_pair_elemINS_9allocatorI5RangeEELi1ELb1EEC2B7v160006IS3_vEEOT_, symObjAddr: 0x4CE4, symBinAddr: 0x10000552C, symSize: 0x18 }
  - { offsetInCU: 0x18FFC, offset: 0x18FFC, size: 0x8, addend: 0x0, symName: __ZNSt3__128__exception_guard_exceptionsINS_6vectorI5RangeNS_9allocatorIS2_EEE16__destroy_vectorEEC1B7v160006ES6_, symObjAddr: 0x4CFC, symBinAddr: 0x100005544, symSize: 0x34 }
  - { offsetInCU: 0x19034, offset: 0x19034, size: 0x8, addend: 0x0, symName: __ZNSt3__128__exception_guard_exceptionsINS_6vectorI5RangeNS_9allocatorIS2_EEE16__destroy_vectorEEC2B7v160006ES6_, symObjAddr: 0x4D30, symBinAddr: 0x100005578, symSize: 0x24 }
  - { offsetInCU: 0x1906C, offset: 0x1906C, size: 0x8, addend: 0x0, symName: __ZNSt3__16vectorI5RangeNS_9allocatorIS1_EEE16__destroy_vectorC2ERS4_, symObjAddr: 0x4D54, symBinAddr: 0x10000559C, symSize: 0x20 }
  - { offsetInCU: 0x190A5, offset: 0x190A5, size: 0x8, addend: 0x0, symName: __ZNKSt3__16vectorI5RangeNS_9allocatorIS1_EEE8max_sizeEv, symObjAddr: 0x4D74, symBinAddr: 0x1000055BC, symSize: 0x60 }
  - { offsetInCU: 0x190CD, offset: 0x190CD, size: 0x8, addend: 0x0, symName: __ZNKSt3__16vectorI5RangeNS_9allocatorIS1_EEE20__throw_length_errorB7v160006Ev, symObjAddr: 0x4DD4, symBinAddr: 0x10000561C, symSize: 0x1C }
  - { offsetInCU: 0x190F3, offset: 0x190F3, size: 0x8, addend: 0x0, symName: __ZNSt3__16vectorI5RangeNS_9allocatorIS1_EEE7__allocB7v160006Ev, symObjAddr: 0x4E30, symBinAddr: 0x100005678, symSize: 0x28 }
  - { offsetInCU: 0x19119, offset: 0x19119, size: 0x8, addend: 0x0, symName: __ZNSt3__16vectorI5RangeNS_9allocatorIS1_EEE9__end_capB7v160006Ev, symObjAddr: 0x4E58, symBinAddr: 0x1000056A0, symSize: 0x28 }
  - { offsetInCU: 0x1913F, offset: 0x1913F, size: 0x8, addend: 0x0, symName: __ZNKSt3__16vectorI5RangeNS_9allocatorIS1_EEE14__annotate_newB7v160006Em, symObjAddr: 0x4E80, symBinAddr: 0x1000056C8, symSize: 0xC8 }
  - { offsetInCU: 0x19174, offset: 0x19174, size: 0x8, addend: 0x0, symName: __ZNSt3__116allocator_traitsINS_9allocatorI5RangeEEE8max_sizeB7v160006IS3_vEEmRKS3_, symObjAddr: 0x4F48, symBinAddr: 0x100005790, symSize: 0x24 }
  - { offsetInCU: 0x191A2, offset: 0x191A2, size: 0x8, addend: 0x0, symName: __ZNKSt3__19allocatorI5RangeE8max_sizeB7v160006Ev, symObjAddr: 0x4F6C, symBinAddr: 0x1000057B4, symSize: 0x18 }
  - { offsetInCU: 0x191C8, offset: 0x191C8, size: 0x8, addend: 0x0, symName: __ZNSt3__19allocatorI5RangeE8allocateB7v160006Em, symObjAddr: 0x4F84, symBinAddr: 0x1000057CC, symSize: 0x5C }
  - { offsetInCU: 0x191FC, offset: 0x191FC, size: 0x8, addend: 0x0, symName: __ZNSt3__117__compressed_pairIP5RangeNS_9allocatorIS1_EEE6secondB7v160006Ev, symObjAddr: 0x4FE0, symBinAddr: 0x100005828, symSize: 0x24 }
  - { offsetInCU: 0x19222, offset: 0x19222, size: 0x8, addend: 0x0, symName: __ZNSt3__122__compressed_pair_elemINS_9allocatorI5RangeEELi1ELb1EE5__getB7v160006Ev, symObjAddr: 0x5004, symBinAddr: 0x10000584C, symSize: 0x14 }
  - { offsetInCU: 0x19248, offset: 0x19248, size: 0x8, addend: 0x0, symName: __ZNSt3__117__compressed_pairIP5RangeNS_9allocatorIS1_EEE5firstB7v160006Ev, symObjAddr: 0x5018, symBinAddr: 0x100005860, symSize: 0x24 }
  - { offsetInCU: 0x1926E, offset: 0x1926E, size: 0x8, addend: 0x0, symName: __ZNSt3__122__compressed_pair_elemIP5RangeLi0ELb0EE5__getB7v160006Ev, symObjAddr: 0x503C, symBinAddr: 0x100005884, symSize: 0x14 }
  - { offsetInCU: 0x19294, offset: 0x19294, size: 0x8, addend: 0x0, symName: __ZNKSt3__16vectorI5RangeNS_9allocatorIS1_EEE31__annotate_contiguous_containerB7v160006EPKvS6_S6_S6_, symObjAddr: 0x5050, symBinAddr: 0x100005898, symSize: 0x20 }
  - { offsetInCU: 0x192E6, offset: 0x192E6, size: 0x8, addend: 0x0, symName: __ZNKSt3__16vectorI5RangeNS_9allocatorIS1_EEE4dataB7v160006Ev, symObjAddr: 0x5070, symBinAddr: 0x1000058B8, symSize: 0x28 }
  - { offsetInCU: 0x1930C, offset: 0x1930C, size: 0x8, addend: 0x0, symName: __ZNKSt3__16vectorI5RangeNS_9allocatorIS1_EEE8capacityB7v160006Ev, symObjAddr: 0x5098, symBinAddr: 0x1000058E0, symSize: 0x40 }
  - { offsetInCU: 0x19332, offset: 0x19332, size: 0x8, addend: 0x0, symName: __ZNKSt3__16vectorI5RangeNS_9allocatorIS1_EEE9__end_capB7v160006Ev, symObjAddr: 0x50EC, symBinAddr: 0x100005934, symSize: 0x28 }
  - { offsetInCU: 0x19358, offset: 0x19358, size: 0x8, addend: 0x0, symName: __ZNKSt3__117__compressed_pairIP5RangeNS_9allocatorIS1_EEE5firstB7v160006Ev, symObjAddr: 0x5114, symBinAddr: 0x10000595C, symSize: 0x24 }
  - { offsetInCU: 0x1937E, offset: 0x1937E, size: 0x8, addend: 0x0, symName: __ZNKSt3__122__compressed_pair_elemIP5RangeLi0ELb0EE5__getB7v160006Ev, symObjAddr: 0x5138, symBinAddr: 0x100005980, symSize: 0x14 }
  - { offsetInCU: 0x193BD, offset: 0x193BD, size: 0x8, addend: 0x0, symName: __ZNSt3__16vectorI5RangeNS_9allocatorIS1_EEE21_ConstructTransactionC1B7v160006ERS4_m, symObjAddr: 0x514C, symBinAddr: 0x100005994, symSize: 0x3C }
  - { offsetInCU: 0x19405, offset: 0x19405, size: 0x8, addend: 0x0, symName: __ZNSt3__16vectorI5RangeNS_9allocatorIS1_EEE21_ConstructTransactionD1B7v160006Ev, symObjAddr: 0x527C, symBinAddr: 0x100005AC4, symSize: 0x2C }
  - { offsetInCU: 0x1942F, offset: 0x1942F, size: 0x8, addend: 0x0, symName: __ZNSt3__16vectorI5RangeNS_9allocatorIS1_EEE21_ConstructTransactionC2B7v160006ERS4_m, symObjAddr: 0x52A8, symBinAddr: 0x100005AF0, symSize: 0x4C }
  - { offsetInCU: 0x19477, offset: 0x19477, size: 0x8, addend: 0x0, symName: __ZNSt3__129_AllocatorDestroyRangeReverseINS_9allocatorI5RangeEEPS2_EC1B7v160006ERS3_RS4_S7_, symObjAddr: 0x5340, symBinAddr: 0x100005B88, symSize: 0x44 }
  - { offsetInCU: 0x194CE, offset: 0x194CE, size: 0x8, addend: 0x0, symName: __ZNSt3__116allocator_traitsINS_9allocatorI5RangeEEE9constructB7v160006IS2_JRS2_EvEEvRS3_PT_DpOT0_, symObjAddr: 0x5384, symBinAddr: 0x100005BCC, symSize: 0x34 }
  - { offsetInCU: 0x19525, offset: 0x19525, size: 0x8, addend: 0x0, symName: __ZNSt3__128__exception_guard_exceptionsINS_29_AllocatorDestroyRangeReverseINS_9allocatorI5RangeEEPS3_EEE10__completeB7v160006Ev, symObjAddr: 0x53B8, symBinAddr: 0x100005C00, symSize: 0x1C }
  - { offsetInCU: 0x1954B, offset: 0x1954B, size: 0x8, addend: 0x0, symName: __ZNSt3__128__exception_guard_exceptionsINS_29_AllocatorDestroyRangeReverseINS_9allocatorI5RangeEEPS3_EEED1B7v160006Ev, symObjAddr: 0x53D4, symBinAddr: 0x100005C1C, symSize: 0x2C }
  - { offsetInCU: 0x19575, offset: 0x19575, size: 0x8, addend: 0x0, symName: __ZNSt3__128__exception_guard_exceptionsINS_29_AllocatorDestroyRangeReverseINS_9allocatorI5RangeEEPS3_EEEC1B7v160006ES6_, symObjAddr: 0x5400, symBinAddr: 0x100005C48, symSize: 0x34 }
  - { offsetInCU: 0x195AE, offset: 0x195AE, size: 0x8, addend: 0x0, symName: __ZNSt3__128__exception_guard_exceptionsINS_29_AllocatorDestroyRangeReverseINS_9allocatorI5RangeEEPS3_EEEC2B7v160006ES6_, symObjAddr: 0x5434, symBinAddr: 0x100005C7C, symSize: 0x30 }
  - { offsetInCU: 0x195E7, offset: 0x195E7, size: 0x8, addend: 0x0, symName: __ZNSt3__129_AllocatorDestroyRangeReverseINS_9allocatorI5RangeEEPS2_EC2B7v160006ERS3_RS4_S7_, symObjAddr: 0x5464, symBinAddr: 0x100005CAC, symSize: 0x38 }
  - { offsetInCU: 0x1963E, offset: 0x1963E, size: 0x8, addend: 0x0, symName: __ZNSt3__19allocatorI5RangeE9constructB7v160006IS1_JRS1_EEEvPT_DpOT0_, symObjAddr: 0x549C, symBinAddr: 0x100005CE4, symSize: 0x30 }
  - { offsetInCU: 0x19694, offset: 0x19694, size: 0x8, addend: 0x0, symName: __ZNSt3__128__exception_guard_exceptionsINS_29_AllocatorDestroyRangeReverseINS_9allocatorI5RangeEEPS3_EEED2B7v160006Ev, symObjAddr: 0x54CC, symBinAddr: 0x100005D14, symSize: 0x50 }
  - { offsetInCU: 0x196BE, offset: 0x196BE, size: 0x8, addend: 0x0, symName: __ZNKSt3__129_AllocatorDestroyRangeReverseINS_9allocatorI5RangeEEPS2_EclB7v160006Ev, symObjAddr: 0x551C, symBinAddr: 0x100005D64, symSize: 0x68 }
  - { offsetInCU: 0x196E4, offset: 0x196E4, size: 0x8, addend: 0x0, symName: __ZNSt3__116reverse_iteratorIP5RangeEC1B7v160006ES2_, symObjAddr: 0x55F4, symBinAddr: 0x100005E3C, symSize: 0x34 }
  - { offsetInCU: 0x1971C, offset: 0x1971C, size: 0x8, addend: 0x0, symName: __ZNSt3__116allocator_traitsINS_9allocatorI5RangeEEE7destroyB7v160006IS2_vEEvRS3_PT_, symObjAddr: 0x5670, symBinAddr: 0x100005EB8, symSize: 0x2C }
  - { offsetInCU: 0x19759, offset: 0x19759, size: 0x8, addend: 0x0, symName: __ZNSt3__116reverse_iteratorIP5RangeEppB7v160006Ev, symObjAddr: 0x56C0, symBinAddr: 0x100005F08, symSize: 0x20 }
  - { offsetInCU: 0x1977F, offset: 0x1977F, size: 0x8, addend: 0x0, symName: __ZNKSt3__116reverse_iteratorIP5RangeE4baseB7v160006Ev, symObjAddr: 0x56E0, symBinAddr: 0x100005F28, symSize: 0x18 }
  - { offsetInCU: 0x197A5, offset: 0x197A5, size: 0x8, addend: 0x0, symName: __ZNSt3__19allocatorI5RangeE7destroyB7v160006EPS1_, symObjAddr: 0x56F8, symBinAddr: 0x100005F40, symSize: 0x14 }
  - { offsetInCU: 0x197DE, offset: 0x197DE, size: 0x8, addend: 0x0, symName: __ZNSt3__119__to_address_helperINS_16reverse_iteratorIP5RangeEEvE6__callB7v160006ERKS4_, symObjAddr: 0x570C, symBinAddr: 0x100005F54, symSize: 0x38 }
  - { offsetInCU: 0x19801, offset: 0x19801, size: 0x8, addend: 0x0, symName: __ZNKSt3__116reverse_iteratorIP5RangeEptB7v160006Ev, symObjAddr: 0x5744, symBinAddr: 0x100005F8C, symSize: 0x24 }
  - { offsetInCU: 0x19827, offset: 0x19827, size: 0x8, addend: 0x0, symName: __ZNKSt3__116reverse_iteratorIP5RangeEdeB7v160006Ev, symObjAddr: 0x5768, symBinAddr: 0x100005FB0, symSize: 0x28 }
  - { offsetInCU: 0x1985B, offset: 0x1985B, size: 0x8, addend: 0x0, symName: __ZNSt3__116reverse_iteratorIP5RangeEC2B7v160006ES2_, symObjAddr: 0x5790, symBinAddr: 0x100005FD8, symSize: 0x28 }
  - { offsetInCU: 0x19893, offset: 0x19893, size: 0x8, addend: 0x0, symName: __ZNSt3__16vectorI5RangeNS_9allocatorIS1_EEE21_ConstructTransactionD2B7v160006Ev, symObjAddr: 0x57B8, symBinAddr: 0x100006000, symSize: 0x20 }
  - { offsetInCU: 0x198BD, offset: 0x198BD, size: 0x8, addend: 0x0, symName: __ZNSt3__128__exception_guard_exceptionsINS_6vectorI5RangeNS_9allocatorIS2_EEE16__destroy_vectorEED2B7v160006Ev, symObjAddr: 0x57D8, symBinAddr: 0x100006020, symSize: 0x50 }
  - { offsetInCU: 0x198E7, offset: 0x198E7, size: 0x8, addend: 0x0, symName: __ZNSt3__16vectorI5RangeNS_9allocatorIS1_EEE16__destroy_vectorclB7v160006Ev, symObjAddr: 0x5828, symBinAddr: 0x100006070, symSize: 0x9C }
  - { offsetInCU: 0x1990D, offset: 0x1990D, size: 0x8, addend: 0x0, symName: __ZNKSt3__16vectorI5RangeNS_9allocatorIS1_EEE17__annotate_deleteB7v160006Ev, symObjAddr: 0x58C4, symBinAddr: 0x10000610C, symSize: 0xD4 }
  - { offsetInCU: 0x19933, offset: 0x19933, size: 0x8, addend: 0x0, symName: __ZNSt3__16vectorI5RangeNS_9allocatorIS1_EEE7__clearB7v160006Ev, symObjAddr: 0x59A8, symBinAddr: 0x1000061F0, symSize: 0x28 }
  - { offsetInCU: 0x19959, offset: 0x19959, size: 0x8, addend: 0x0, symName: __ZNSt3__116allocator_traitsINS_9allocatorI5RangeEEE10deallocateB7v160006ERS3_PS2_m, symObjAddr: 0x59D0, symBinAddr: 0x100006218, symSize: 0x34 }
  - { offsetInCU: 0x1999B, offset: 0x1999B, size: 0x8, addend: 0x0, symName: __ZNSt3__16vectorI5RangeNS_9allocatorIS1_EEE22__base_destruct_at_endB7v160006EPS1_, symObjAddr: 0x5A04, symBinAddr: 0x10000624C, symSize: 0x8C }
  - { offsetInCU: 0x199DF, offset: 0x199DF, size: 0x8, addend: 0x0, symName: __ZNSt3__19allocatorI5RangeE10deallocateB7v160006EPS1_m, symObjAddr: 0x5A90, symBinAddr: 0x1000062D8, symSize: 0x44 }
  - { offsetInCU: 0x19A21, offset: 0x19A21, size: 0x8, addend: 0x0, symName: __ZNSt3__117__compressed_pairIPNS_6vectorI5RangeNS_9allocatorIS2_EEEENS3_IS5_EEE6secondB7v160006Ev, symObjAddr: 0x5AD4, symBinAddr: 0x10000631C, symSize: 0x24 }
  - { offsetInCU: 0x19A47, offset: 0x19A47, size: 0x8, addend: 0x0, symName: __ZNSt3__122__compressed_pair_elemINS_9allocatorINS_6vectorI5RangeNS1_IS3_EEEEEELi1ELb1EE5__getB7v160006Ev, symObjAddr: 0x5AF8, symBinAddr: 0x100006340, symSize: 0x14 }
  - { offsetInCU: 0x19A6D, offset: 0x19A6D, size: 0x8, addend: 0x0, symName: __ZNSt3__16vectorINS0_I5RangeNS_9allocatorIS1_EEEENS2_IS4_EEE21_ConstructTransactionD2B7v160006Ev, symObjAddr: 0x5B0C, symBinAddr: 0x100006354, symSize: 0x20 }
  - { offsetInCU: 0x19A97, offset: 0x19A97, size: 0x8, addend: 0x0, symName: __ZNKSt3__16vectorINS0_I5RangeNS_9allocatorIS1_EEEENS2_IS4_EEE11__recommendB7v160006Em, symObjAddr: 0x5B2C, symBinAddr: 0x100006374, symSize: 0xB4 }
  - { offsetInCU: 0x19AEC, offset: 0x19AEC, size: 0x8, addend: 0x0, symName: __ZNKSt3__16vectorINS0_I5RangeNS_9allocatorIS1_EEEENS2_IS4_EEE4sizeB7v160006Ev, symObjAddr: 0x5BE0, symBinAddr: 0x100006428, symSize: 0x28 }
  - { offsetInCU: 0x19B12, offset: 0x19B12, size: 0x8, addend: 0x0, symName: __ZNSt3__114__split_bufferINS_6vectorI5RangeNS_9allocatorIS2_EEEERNS3_IS5_EEEC1EmmS7_, symObjAddr: 0x5C08, symBinAddr: 0x100006450, symSize: 0x44 }
  - { offsetInCU: 0x19B68, offset: 0x19B68, size: 0x8, addend: 0x0, symName: __ZNSt3__114__split_bufferINS_6vectorI5RangeNS_9allocatorIS2_EEEERNS3_IS5_EEED1Ev, symObjAddr: 0x5D64, symBinAddr: 0x1000065AC, symSize: 0x2C }
  - { offsetInCU: 0x19B94, offset: 0x19B94, size: 0x8, addend: 0x0, symName: __ZNKSt3__16vectorINS0_I5RangeNS_9allocatorIS1_EEEENS2_IS4_EEE8max_sizeEv, symObjAddr: 0x5D90, symBinAddr: 0x1000065D8, symSize: 0x60 }
  - { offsetInCU: 0x19BBC, offset: 0x19BBC, size: 0x8, addend: 0x0, symName: __ZNKSt3__16vectorINS0_I5RangeNS_9allocatorIS1_EEEENS2_IS4_EEE20__throw_length_errorB7v160006Ev, symObjAddr: 0x5DF0, symBinAddr: 0x100006638, symSize: 0x1C }
  - { offsetInCU: 0x19BE2, offset: 0x19BE2, size: 0x8, addend: 0x0, symName: __ZNKSt3__16vectorINS0_I5RangeNS_9allocatorIS1_EEEENS2_IS4_EEE8capacityB7v160006Ev, symObjAddr: 0x5E0C, symBinAddr: 0x100006654, symSize: 0x40 }
  - { offsetInCU: 0x19C12, offset: 0x19C12, size: 0x8, addend: 0x0, symName: __ZNSt3__116allocator_traitsINS_9allocatorINS_6vectorI5RangeNS1_IS3_EEEEEEE8max_sizeB7v160006IS6_vEEmRKS6_, symObjAddr: 0x5E4C, symBinAddr: 0x100006694, symSize: 0x24 }
  - { offsetInCU: 0x19C40, offset: 0x19C40, size: 0x8, addend: 0x0, symName: __ZNKSt3__16vectorINS0_I5RangeNS_9allocatorIS1_EEEENS2_IS4_EEE7__allocB7v160006Ev, symObjAddr: 0x5E70, symBinAddr: 0x1000066B8, symSize: 0x28 }
  - { offsetInCU: 0x19C66, offset: 0x19C66, size: 0x8, addend: 0x0, symName: __ZNKSt3__19allocatorINS_6vectorI5RangeNS0_IS2_EEEEE8max_sizeB7v160006Ev, symObjAddr: 0x5E98, symBinAddr: 0x1000066E0, symSize: 0x18 }
  - { offsetInCU: 0x19C8C, offset: 0x19C8C, size: 0x8, addend: 0x0, symName: __ZNKSt3__117__compressed_pairIPNS_6vectorI5RangeNS_9allocatorIS2_EEEENS3_IS5_EEE6secondB7v160006Ev, symObjAddr: 0x5EB0, symBinAddr: 0x1000066F8, symSize: 0x24 }
  - { offsetInCU: 0x19CB2, offset: 0x19CB2, size: 0x8, addend: 0x0, symName: __ZNKSt3__122__compressed_pair_elemINS_9allocatorINS_6vectorI5RangeNS1_IS3_EEEEEELi1ELb1EE5__getB7v160006Ev, symObjAddr: 0x5ED4, symBinAddr: 0x10000671C, symSize: 0x14 }
  - { offsetInCU: 0x19CD8, offset: 0x19CD8, size: 0x8, addend: 0x0, symName: __ZNKSt3__16vectorINS0_I5RangeNS_9allocatorIS1_EEEENS2_IS4_EEE9__end_capB7v160006Ev, symObjAddr: 0x5EE8, symBinAddr: 0x100006730, symSize: 0x28 }
  - { offsetInCU: 0x19CFE, offset: 0x19CFE, size: 0x8, addend: 0x0, symName: __ZNKSt3__117__compressed_pairIPNS_6vectorI5RangeNS_9allocatorIS2_EEEENS3_IS5_EEE5firstB7v160006Ev, symObjAddr: 0x5F10, symBinAddr: 0x100006758, symSize: 0x24 }
  - { offsetInCU: 0x19D24, offset: 0x19D24, size: 0x8, addend: 0x0, symName: __ZNKSt3__122__compressed_pair_elemIPNS_6vectorI5RangeNS_9allocatorIS2_EEEELi0ELb0EE5__getB7v160006Ev, symObjAddr: 0x5F34, symBinAddr: 0x10000677C, symSize: 0x14 }
  - { offsetInCU: 0x19D4A, offset: 0x19D4A, size: 0x8, addend: 0x0, symName: __ZNSt3__114__split_bufferINS_6vectorI5RangeNS_9allocatorIS2_EEEERNS3_IS5_EEEC2EmmS7_, symObjAddr: 0x5F48, symBinAddr: 0x100006790, symSize: 0xE0 }
  - { offsetInCU: 0x19DBE, offset: 0x19DBE, size: 0x8, addend: 0x0, symName: __ZNSt3__117__compressed_pairIPNS_6vectorI5RangeNS_9allocatorIS2_EEEERNS3_IS5_EEEC1B7v160006IDnS8_EEOT_OT0_, symObjAddr: 0x6028, symBinAddr: 0x100006870, symSize: 0x3C }
  - { offsetInCU: 0x19E16, offset: 0x19E16, size: 0x8, addend: 0x0, symName: __ZNSt3__114__split_bufferINS_6vectorI5RangeNS_9allocatorIS2_EEEERNS3_IS5_EEE7__allocB7v160006Ev, symObjAddr: 0x60A4, symBinAddr: 0x1000068EC, symSize: 0x28 }
  - { offsetInCU: 0x19E3C, offset: 0x19E3C, size: 0x8, addend: 0x0, symName: __ZNSt3__114__split_bufferINS_6vectorI5RangeNS_9allocatorIS2_EEEERNS3_IS5_EEE9__end_capB7v160006Ev, symObjAddr: 0x60CC, symBinAddr: 0x100006914, symSize: 0x28 }
  - { offsetInCU: 0x19E62, offset: 0x19E62, size: 0x8, addend: 0x0, symName: __ZNSt3__117__compressed_pairIPNS_6vectorI5RangeNS_9allocatorIS2_EEEERNS3_IS5_EEEC2B7v160006IDnS8_EEOT_OT0_, symObjAddr: 0x60F4, symBinAddr: 0x10000693C, symSize: 0x48 }
  - { offsetInCU: 0x19EBA, offset: 0x19EBA, size: 0x8, addend: 0x0, symName: __ZNSt3__122__compressed_pair_elemIRNS_9allocatorINS_6vectorI5RangeNS1_IS3_EEEEEELi1ELb0EEC2B7v160006IS7_vEEOT_, symObjAddr: 0x613C, symBinAddr: 0x100006984, symSize: 0x20 }
  - { offsetInCU: 0x19EFC, offset: 0x19EFC, size: 0x8, addend: 0x0, symName: __ZNSt3__19allocatorINS_6vectorI5RangeNS0_IS2_EEEEE8allocateB7v160006Em, symObjAddr: 0x615C, symBinAddr: 0x1000069A4, symSize: 0x5C }
  - { offsetInCU: 0x19F30, offset: 0x19F30, size: 0x8, addend: 0x0, symName: __ZNSt3__117__compressed_pairIPNS_6vectorI5RangeNS_9allocatorIS2_EEEERNS3_IS5_EEE6secondB7v160006Ev, symObjAddr: 0x61B8, symBinAddr: 0x100006A00, symSize: 0x28 }
  - { offsetInCU: 0x19F56, offset: 0x19F56, size: 0x8, addend: 0x0, symName: __ZNSt3__122__compressed_pair_elemIRNS_9allocatorINS_6vectorI5RangeNS1_IS3_EEEEEELi1ELb0EE5__getB7v160006Ev, symObjAddr: 0x61E0, symBinAddr: 0x100006A28, symSize: 0x18 }
  - { offsetInCU: 0x19F7C, offset: 0x19F7C, size: 0x8, addend: 0x0, symName: __ZNSt3__117__compressed_pairIPNS_6vectorI5RangeNS_9allocatorIS2_EEEERNS3_IS5_EEE5firstB7v160006Ev, symObjAddr: 0x61F8, symBinAddr: 0x100006A40, symSize: 0x24 }
  - { offsetInCU: 0x19FA2, offset: 0x19FA2, size: 0x8, addend: 0x0, symName: __ZNKSt3__16vectorINS0_I5RangeNS_9allocatorIS1_EEEENS2_IS4_EEE17__annotate_deleteB7v160006Ev, symObjAddr: 0x621C, symBinAddr: 0x100006A64, symSize: 0xD4 }
  - { offsetInCU: 0x19FC8, offset: 0x19FC8, size: 0x8, addend: 0x0, symName: __ZNSt3__116reverse_iteratorIPNS_6vectorI5RangeNS_9allocatorIS2_EEEEEC1B7v160006ES6_, symObjAddr: 0x641C, symBinAddr: 0x100006C64, symSize: 0x34 }
  - { offsetInCU: 0x1A000, offset: 0x1A000, size: 0x8, addend: 0x0, symName: __ZNKSt3__116reverse_iteratorIPNS_6vectorI5RangeNS_9allocatorIS2_EEEEE4baseB7v160006Ev, symObjAddr: 0x6450, symBinAddr: 0x100006C98, symSize: 0x18 }
  - { offsetInCU: 0x1A026, offset: 0x1A026, size: 0x8, addend: 0x0, symName: __ZNKSt3__16vectorINS0_I5RangeNS_9allocatorIS1_EEEENS2_IS4_EEE14__annotate_newB7v160006Em, symObjAddr: 0x64A4, symBinAddr: 0x100006CEC, symSize: 0xC8 }
  - { offsetInCU: 0x1A05B, offset: 0x1A05B, size: 0x8, addend: 0x0, symName: __ZNKSt3__16vectorINS0_I5RangeNS_9allocatorIS1_EEEENS2_IS4_EEE31__annotate_contiguous_containerB7v160006EPKvS8_S8_S8_, symObjAddr: 0x657C, symBinAddr: 0x100006DC4, symSize: 0x20 }
  - { offsetInCU: 0x1A0AD, offset: 0x1A0AD, size: 0x8, addend: 0x0, symName: __ZNKSt3__16vectorINS0_I5RangeNS_9allocatorIS1_EEEENS2_IS4_EEE4dataB7v160006Ev, symObjAddr: 0x659C, symBinAddr: 0x100006DE4, symSize: 0x28 }
  - { offsetInCU: 0x1A0D3, offset: 0x1A0D3, size: 0x8, addend: 0x0, symName: __ZNSt3__129_AllocatorDestroyRangeReverseINS_9allocatorINS_6vectorI5RangeNS1_IS3_EEEEEENS_16reverse_iteratorIPS5_EEEC1B7v160006ERS6_RS9_SC_, symObjAddr: 0x6610, symBinAddr: 0x100006E58, symSize: 0x44 }
  - { offsetInCU: 0x1A12A, offset: 0x1A12A, size: 0x8, addend: 0x0, symName: __ZNSt3__116allocator_traitsINS_9allocatorINS_6vectorI5RangeNS1_IS3_EEEEEEE9constructB7v160006IS5_JS5_EvEEvRS6_PT_DpOT0_, symObjAddr: 0x669C, symBinAddr: 0x100006EE4, symSize: 0x34 }
  - { offsetInCU: 0x1A181, offset: 0x1A181, size: 0x8, addend: 0x0, symName: __ZNKSt3__116reverse_iteratorIPNS_6vectorI5RangeNS_9allocatorIS2_EEEEEdeB7v160006Ev, symObjAddr: 0x66F4, symBinAddr: 0x100006F3C, symSize: 0x28 }
  - { offsetInCU: 0x1A1B5, offset: 0x1A1B5, size: 0x8, addend: 0x0, symName: __ZNSt3__116reverse_iteratorIPNS_6vectorI5RangeNS_9allocatorIS2_EEEEEppB7v160006Ev, symObjAddr: 0x671C, symBinAddr: 0x100006F64, symSize: 0x20 }
  - { offsetInCU: 0x1A1DB, offset: 0x1A1DB, size: 0x8, addend: 0x0, symName: __ZNSt3__128__exception_guard_exceptionsINS_29_AllocatorDestroyRangeReverseINS_9allocatorINS_6vectorI5RangeNS2_IS4_EEEEEENS_16reverse_iteratorIPS6_EEEEE10__completeB7v160006Ev, symObjAddr: 0x673C, symBinAddr: 0x100006F84, symSize: 0x1C }
  - { offsetInCU: 0x1A201, offset: 0x1A201, size: 0x8, addend: 0x0, symName: __ZNSt3__128__exception_guard_exceptionsINS_29_AllocatorDestroyRangeReverseINS_9allocatorINS_6vectorI5RangeNS2_IS4_EEEEEENS_16reverse_iteratorIPS6_EEEEED1B7v160006Ev, symObjAddr: 0x6758, symBinAddr: 0x100006FA0, symSize: 0x2C }
  - { offsetInCU: 0x1A22B, offset: 0x1A22B, size: 0x8, addend: 0x0, symName: __ZNSt3__128__exception_guard_exceptionsINS_29_AllocatorDestroyRangeReverseINS_9allocatorINS_6vectorI5RangeNS2_IS4_EEEEEENS_16reverse_iteratorIPS6_EEEEEC1B7v160006ESB_, symObjAddr: 0x6784, symBinAddr: 0x100006FCC, symSize: 0x34 }
  - { offsetInCU: 0x1A264, offset: 0x1A264, size: 0x8, addend: 0x0, symName: __ZNSt3__128__exception_guard_exceptionsINS_29_AllocatorDestroyRangeReverseINS_9allocatorINS_6vectorI5RangeNS2_IS4_EEEEEENS_16reverse_iteratorIPS6_EEEEEC2B7v160006ESB_, symObjAddr: 0x67B8, symBinAddr: 0x100007000, symSize: 0x30 }
  - { offsetInCU: 0x1A29D, offset: 0x1A29D, size: 0x8, addend: 0x0, symName: __ZNSt3__129_AllocatorDestroyRangeReverseINS_9allocatorINS_6vectorI5RangeNS1_IS3_EEEEEENS_16reverse_iteratorIPS5_EEEC2B7v160006ERS6_RS9_SC_, symObjAddr: 0x67E8, symBinAddr: 0x100007030, symSize: 0x38 }
  - { offsetInCU: 0x1A2F4, offset: 0x1A2F4, size: 0x8, addend: 0x0, symName: __ZNSt3__19allocatorINS_6vectorI5RangeNS0_IS2_EEEEE9constructB7v160006IS4_JS4_EEEvPT_DpOT0_, symObjAddr: 0x6820, symBinAddr: 0x100007068, symSize: 0x30 }
  - { offsetInCU: 0x1A34A, offset: 0x1A34A, size: 0x8, addend: 0x0, symName: __ZNSt3__16vectorI5RangeNS_9allocatorIS1_EEEC1B7v160006EOS4_, symObjAddr: 0x6850, symBinAddr: 0x100007098, symSize: 0x34 }
  - { offsetInCU: 0x1A385, offset: 0x1A385, size: 0x8, addend: 0x0, symName: __ZNSt3__16vectorI5RangeNS_9allocatorIS1_EEEC2B7v160006EOS4_, symObjAddr: 0x6884, symBinAddr: 0x1000070CC, symSize: 0xDC }
  - { offsetInCU: 0x1A3C5, offset: 0x1A3C5, size: 0x8, addend: 0x0, symName: __ZNSt3__119__to_address_helperINS_16reverse_iteratorIPNS_6vectorI5RangeNS_9allocatorIS3_EEEEEEvE6__callB7v160006ERKS8_, symObjAddr: 0x6974, symBinAddr: 0x1000071BC, symSize: 0x38 }
  - { offsetInCU: 0x1A3E8, offset: 0x1A3E8, size: 0x8, addend: 0x0, symName: __ZNKSt3__116reverse_iteratorIPNS_6vectorI5RangeNS_9allocatorIS2_EEEEEptB7v160006Ev, symObjAddr: 0x69AC, symBinAddr: 0x1000071F4, symSize: 0x24 }
  - { offsetInCU: 0x1A40E, offset: 0x1A40E, size: 0x8, addend: 0x0, symName: __ZNSt3__128__exception_guard_exceptionsINS_29_AllocatorDestroyRangeReverseINS_9allocatorINS_6vectorI5RangeNS2_IS4_EEEEEENS_16reverse_iteratorIPS6_EEEEED2B7v160006Ev, symObjAddr: 0x69D0, symBinAddr: 0x100007218, symSize: 0x50 }
  - { offsetInCU: 0x1A438, offset: 0x1A438, size: 0x8, addend: 0x0, symName: __ZNKSt3__129_AllocatorDestroyRangeReverseINS_9allocatorINS_6vectorI5RangeNS1_IS3_EEEEEENS_16reverse_iteratorIPS5_EEEclB7v160006Ev, symObjAddr: 0x6A20, symBinAddr: 0x100007268, symSize: 0xB4 }
  - { offsetInCU: 0x1A45F, offset: 0x1A45F, size: 0x8, addend: 0x0, symName: __ZNSt3__116reverse_iteratorINS0_IPNS_6vectorI5RangeNS_9allocatorIS2_EEEEEEEC1B7v160006ES7_, symObjAddr: 0x6B44, symBinAddr: 0x10000738C, symSize: 0x3C }
  - { offsetInCU: 0x1A497, offset: 0x1A497, size: 0x8, addend: 0x0, symName: __ZNSt3__116allocator_traitsINS_9allocatorINS_6vectorI5RangeNS1_IS3_EEEEEEE7destroyB7v160006IS5_vEEvRS6_PT_, symObjAddr: 0x6BE0, symBinAddr: 0x100007428, symSize: 0x2C }
  - { offsetInCU: 0x1A4D4, offset: 0x1A4D4, size: 0x8, addend: 0x0, symName: __ZNSt3__116reverse_iteratorINS0_IPNS_6vectorI5RangeNS_9allocatorIS2_EEEEEEEppB7v160006Ev, symObjAddr: 0x6C30, symBinAddr: 0x100007478, symSize: 0x30 }
  - { offsetInCU: 0x1A4FA, offset: 0x1A4FA, size: 0x8, addend: 0x0, symName: __ZNKSt3__116reverse_iteratorINS0_IPNS_6vectorI5RangeNS_9allocatorIS2_EEEEEEE4baseB7v160006Ev, symObjAddr: 0x6C60, symBinAddr: 0x1000074A8, symSize: 0x24 }
  - { offsetInCU: 0x1A520, offset: 0x1A520, size: 0x8, addend: 0x0, symName: __ZNSt3__19allocatorINS_6vectorI5RangeNS0_IS2_EEEEE7destroyB7v160006EPS4_, symObjAddr: 0x6C84, symBinAddr: 0x1000074CC, symSize: 0x28 }
  - { offsetInCU: 0x1A559, offset: 0x1A559, size: 0x8, addend: 0x0, symName: __ZNSt3__119__to_address_helperINS_16reverse_iteratorINS1_IPNS_6vectorI5RangeNS_9allocatorIS3_EEEEEEEEvE6__callB7v160006ERKS9_, symObjAddr: 0x6CAC, symBinAddr: 0x1000074F4, symSize: 0x38 }
  - { offsetInCU: 0x1A57C, offset: 0x1A57C, size: 0x8, addend: 0x0, symName: __ZNKSt3__116reverse_iteratorINS0_IPNS_6vectorI5RangeNS_9allocatorIS2_EEEEEEEptB7v160006Ev, symObjAddr: 0x6CE4, symBinAddr: 0x10000752C, symSize: 0x24 }
  - { offsetInCU: 0x1A5A2, offset: 0x1A5A2, size: 0x8, addend: 0x0, symName: __ZNKSt3__116reverse_iteratorINS0_IPNS_6vectorI5RangeNS_9allocatorIS2_EEEEEEEdeB7v160006Ev, symObjAddr: 0x6D08, symBinAddr: 0x100007550, symSize: 0x34 }
  - { offsetInCU: 0x1A5D6, offset: 0x1A5D6, size: 0x8, addend: 0x0, symName: __ZNSt3__116reverse_iteratorIPNS_6vectorI5RangeNS_9allocatorIS2_EEEEEmmB7v160006Ev, symObjAddr: 0x6D3C, symBinAddr: 0x100007584, symSize: 0x20 }
  - { offsetInCU: 0x1A5FC, offset: 0x1A5FC, size: 0x8, addend: 0x0, symName: __ZNSt3__116reverse_iteratorINS0_IPNS_6vectorI5RangeNS_9allocatorIS2_EEEEEEEC2B7v160006ES7_, symObjAddr: 0x6D5C, symBinAddr: 0x1000075A4, symSize: 0x2C }
  - { offsetInCU: 0x1A634, offset: 0x1A634, size: 0x8, addend: 0x0, symName: __ZNSt3__116reverse_iteratorIPNS_6vectorI5RangeNS_9allocatorIS2_EEEEEC2B7v160006ES6_, symObjAddr: 0x6D88, symBinAddr: 0x1000075D0, symSize: 0x28 }
  - { offsetInCU: 0x1A66C, offset: 0x1A66C, size: 0x8, addend: 0x0, symName: __ZNSt3__114__split_bufferINS_6vectorI5RangeNS_9allocatorIS2_EEEERNS3_IS5_EEED2Ev, symObjAddr: 0x6DB0, symBinAddr: 0x1000075F8, symSize: 0x8C }
  - { offsetInCU: 0x1A698, offset: 0x1A698, size: 0x8, addend: 0x0, symName: __ZNSt3__114__split_bufferINS_6vectorI5RangeNS_9allocatorIS2_EEEERNS3_IS5_EEE5clearB7v160006Ev, symObjAddr: 0x6E3C, symBinAddr: 0x100007684, symSize: 0x28 }
  - { offsetInCU: 0x1A6BE, offset: 0x1A6BE, size: 0x8, addend: 0x0, symName: __ZNSt3__116allocator_traitsINS_9allocatorINS_6vectorI5RangeNS1_IS3_EEEEEEE10deallocateB7v160006ERS6_PS5_m, symObjAddr: 0x6E64, symBinAddr: 0x1000076AC, symSize: 0x34 }
  - { offsetInCU: 0x1A700, offset: 0x1A700, size: 0x8, addend: 0x0, symName: __ZNKSt3__114__split_bufferINS_6vectorI5RangeNS_9allocatorIS2_EEEERNS3_IS5_EEE8capacityB7v160006Ev, symObjAddr: 0x6E98, symBinAddr: 0x1000076E0, symSize: 0x40 }
  - { offsetInCU: 0x1A726, offset: 0x1A726, size: 0x8, addend: 0x0, symName: __ZNSt3__114__split_bufferINS_6vectorI5RangeNS_9allocatorIS2_EEEERNS3_IS5_EEE17__destruct_at_endB7v160006EPS5_, symObjAddr: 0x6ED8, symBinAddr: 0x100007720, symSize: 0x2C }
  - { offsetInCU: 0x1A75A, offset: 0x1A75A, size: 0x8, addend: 0x0, symName: __ZNSt3__114__split_bufferINS_6vectorI5RangeNS_9allocatorIS2_EEEERNS3_IS5_EEE17__destruct_at_endB7v160006EPS5_NS_17integral_constantIbLb0EEE, symObjAddr: 0x6F04, symBinAddr: 0x10000774C, symSize: 0x80 }
  - { offsetInCU: 0x1A79A, offset: 0x1A79A, size: 0x8, addend: 0x0, symName: __ZNSt3__19allocatorINS_6vectorI5RangeNS0_IS2_EEEEE10deallocateB7v160006EPS4_m, symObjAddr: 0x6F84, symBinAddr: 0x1000077CC, symSize: 0x44 }
  - { offsetInCU: 0x1A7DC, offset: 0x1A7DC, size: 0x8, addend: 0x0, symName: __ZNKSt3__114__split_bufferINS_6vectorI5RangeNS_9allocatorIS2_EEEERNS3_IS5_EEE9__end_capB7v160006Ev, symObjAddr: 0x6FC8, symBinAddr: 0x100007810, symSize: 0x28 }
  - { offsetInCU: 0x1A802, offset: 0x1A802, size: 0x8, addend: 0x0, symName: __ZNKSt3__117__compressed_pairIPNS_6vectorI5RangeNS_9allocatorIS2_EEEERNS3_IS5_EEE5firstB7v160006Ev, symObjAddr: 0x6FF0, symBinAddr: 0x100007838, symSize: 0x24 }
  - { offsetInCU: 0x1A828, offset: 0x1A828, size: 0x8, addend: 0x0, symName: __ZNKSt3__16vectorI5RangeNS_9allocatorIS1_EEE17__annotate_shrinkB7v160006Em, symObjAddr: 0x7014, symBinAddr: 0x10000785C, symSize: 0xD0 }
  - { offsetInCU: 0x1A862, offset: 0x1A862, size: 0x8, addend: 0x0, symName: __ZNSt3__16vectorI5RangeNS_9allocatorIS1_EEE22__construct_one_at_endB7v160006IJS1_EEEvDpOT_, symObjAddr: 0x70F4, symBinAddr: 0x10000793C, symSize: 0x90 }
  - { offsetInCU: 0x1A8B1, offset: 0x1A8B1, size: 0x8, addend: 0x0, symName: __ZNSt3__16vectorI5RangeNS_9allocatorIS1_EEE21__push_back_slow_pathIS1_EEvOT_, symObjAddr: 0x7184, symBinAddr: 0x1000079CC, symSize: 0xD8 }
  - { offsetInCU: 0x1A90F, offset: 0x1A90F, size: 0x8, addend: 0x0, symName: __ZNSt3__116allocator_traitsINS_9allocatorI5RangeEEE9constructB7v160006IS2_JS2_EvEEvRS3_PT_DpOT0_, symObjAddr: 0x725C, symBinAddr: 0x100007AA4, symSize: 0x34 }
  - { offsetInCU: 0x1A966, offset: 0x1A966, size: 0x8, addend: 0x0, symName: __ZNSt3__19allocatorI5RangeE9constructB7v160006IS1_JS1_EEEvPT_DpOT0_, symObjAddr: 0x7290, symBinAddr: 0x100007AD8, symSize: 0x30 }
  - { offsetInCU: 0x1A9BC, offset: 0x1A9BC, size: 0x8, addend: 0x0, symName: __ZNKSt3__16vectorI5RangeNS_9allocatorIS1_EEE11__recommendB7v160006Em, symObjAddr: 0x72C0, symBinAddr: 0x100007B08, symSize: 0xB4 }
  - { offsetInCU: 0x1AA11, offset: 0x1AA11, size: 0x8, addend: 0x0, symName: __ZNSt3__114__split_bufferI5RangeRNS_9allocatorIS1_EEEC1EmmS4_, symObjAddr: 0x7374, symBinAddr: 0x100007BBC, symSize: 0x44 }
  - { offsetInCU: 0x1AA67, offset: 0x1AA67, size: 0x8, addend: 0x0, symName: __ZNSt3__114__split_bufferI5RangeRNS_9allocatorIS1_EEED1Ev, symObjAddr: 0x74D0, symBinAddr: 0x100007D18, symSize: 0x2C }
  - { offsetInCU: 0x1AA93, offset: 0x1AA93, size: 0x8, addend: 0x0, symName: __ZNSt3__114__split_bufferI5RangeRNS_9allocatorIS1_EEEC2EmmS4_, symObjAddr: 0x74FC, symBinAddr: 0x100007D44, symSize: 0xE0 }
  - { offsetInCU: 0x1AB07, offset: 0x1AB07, size: 0x8, addend: 0x0, symName: __ZNSt3__117__compressed_pairIP5RangeRNS_9allocatorIS1_EEEC1B7v160006IDnS5_EEOT_OT0_, symObjAddr: 0x75DC, symBinAddr: 0x100007E24, symSize: 0x3C }
  - { offsetInCU: 0x1AB5F, offset: 0x1AB5F, size: 0x8, addend: 0x0, symName: __ZNSt3__114__split_bufferI5RangeRNS_9allocatorIS1_EEE7__allocB7v160006Ev, symObjAddr: 0x7618, symBinAddr: 0x100007E60, symSize: 0x28 }
  - { offsetInCU: 0x1AB85, offset: 0x1AB85, size: 0x8, addend: 0x0, symName: __ZNSt3__114__split_bufferI5RangeRNS_9allocatorIS1_EEE9__end_capB7v160006Ev, symObjAddr: 0x7640, symBinAddr: 0x100007E88, symSize: 0x28 }
  - { offsetInCU: 0x1ABAB, offset: 0x1ABAB, size: 0x8, addend: 0x0, symName: __ZNSt3__117__compressed_pairIP5RangeRNS_9allocatorIS1_EEEC2B7v160006IDnS5_EEOT_OT0_, symObjAddr: 0x7668, symBinAddr: 0x100007EB0, symSize: 0x48 }
  - { offsetInCU: 0x1AC03, offset: 0x1AC03, size: 0x8, addend: 0x0, symName: __ZNSt3__122__compressed_pair_elemIRNS_9allocatorI5RangeEELi1ELb0EEC2B7v160006IS4_vEEOT_, symObjAddr: 0x76B0, symBinAddr: 0x100007EF8, symSize: 0x20 }
  - { offsetInCU: 0x1AC45, offset: 0x1AC45, size: 0x8, addend: 0x0, symName: __ZNSt3__117__compressed_pairIP5RangeRNS_9allocatorIS1_EEE6secondB7v160006Ev, symObjAddr: 0x76D0, symBinAddr: 0x100007F18, symSize: 0x28 }
  - { offsetInCU: 0x1AC6B, offset: 0x1AC6B, size: 0x8, addend: 0x0, symName: __ZNSt3__122__compressed_pair_elemIRNS_9allocatorI5RangeEELi1ELb0EE5__getB7v160006Ev, symObjAddr: 0x76F8, symBinAddr: 0x100007F40, symSize: 0x18 }
  - { offsetInCU: 0x1AC91, offset: 0x1AC91, size: 0x8, addend: 0x0, symName: __ZNSt3__117__compressed_pairIP5RangeRNS_9allocatorIS1_EEE5firstB7v160006Ev, symObjAddr: 0x7710, symBinAddr: 0x100007F58, symSize: 0x24 }
  - { offsetInCU: 0x1ACD0, offset: 0x1ACD0, size: 0x8, addend: 0x0, symName: __ZNKSt3__111__move_loopINS_17_ClassicAlgPolicyEEclB7v160006INS_16reverse_iteratorIP5RangeEES7_S7_EENS_4pairIT_T1_EES9_T0_SA_, symObjAddr: 0x7AD8, symBinAddr: 0x100008320, symSize: 0xA8 }
  - { offsetInCU: 0x1AD3B, offset: 0x1AD3B, size: 0x8, addend: 0x0, symName: __ZNSt3__18_IterOpsINS_17_ClassicAlgPolicyEE11__iter_moveB7v160006IRNS_16reverse_iteratorIP5RangeEEEENS_9enable_ifIXsr12is_referenceIDTdeclsr3stdE7declvalIRT_EEEEE5valueEDTclsr3stdE4movedeclsr3stdE7declvalISB_EEEEE4typeEOSA_, symObjAddr: 0x7CCC, symBinAddr: 0x100008514, symSize: 0x28 }
  - { offsetInCU: 0x1AD67, offset: 0x1AD67, size: 0x8, addend: 0x0, symName: __ZNSt3__18_IterOpsINS_17_ClassicAlgPolicyEE25__validate_iter_referenceB7v160006IRNS_16reverse_iteratorIP5RangeEEEEvv, symObjAddr: 0x7CF4, symBinAddr: 0x10000853C, symSize: 0x4 }
  - { offsetInCU: 0x1AD85, offset: 0x1AD85, size: 0x8, addend: 0x0, symName: __ZNSt3__118__unwrap_iter_implINS_16reverse_iteratorIP5RangeEELb0EE8__unwrapB7v160006ES4_, symObjAddr: 0x7CF8, symBinAddr: 0x100008540, symSize: 0x24 }
  - { offsetInCU: 0x1ADAD, offset: 0x1ADAD, size: 0x8, addend: 0x0, symName: __ZNSt3__14pairINS_16reverse_iteratorIP5RangeEES4_EC1B7v160006IS4_S4_LPv0EEEOT_OT0_, symObjAddr: 0x7D1C, symBinAddr: 0x100008564, symSize: 0x3C }
  - { offsetInCU: 0x1AE0B, offset: 0x1AE0B, size: 0x8, addend: 0x0, symName: __ZNSt3__14pairINS_16reverse_iteratorIP5RangeEES4_EC2B7v160006IS4_S4_LPv0EEEOT_OT0_, symObjAddr: 0x7D58, symBinAddr: 0x1000085A0, symSize: 0x34 }
  - { offsetInCU: 0x1AE69, offset: 0x1AE69, size: 0x8, addend: 0x0, symName: __ZNSt3__118__unwrap_iter_implINS_16reverse_iteratorIP5RangeEELb0EE8__rewrapB7v160006ES4_S4_, symObjAddr: 0x7D8C, symBinAddr: 0x1000085D4, symSize: 0x2C }
  - { offsetInCU: 0x1AE96, offset: 0x1AE96, size: 0x8, addend: 0x0, symName: __ZNSt3__114__split_bufferI5RangeRNS_9allocatorIS1_EEED2Ev, symObjAddr: 0x7DB8, symBinAddr: 0x100008600, symSize: 0x8C }
  - { offsetInCU: 0x1AEC2, offset: 0x1AEC2, size: 0x8, addend: 0x0, symName: __ZNSt3__114__split_bufferI5RangeRNS_9allocatorIS1_EEE5clearB7v160006Ev, symObjAddr: 0x7E44, symBinAddr: 0x10000868C, symSize: 0x28 }
  - { offsetInCU: 0x1AEE8, offset: 0x1AEE8, size: 0x8, addend: 0x0, symName: __ZNKSt3__114__split_bufferI5RangeRNS_9allocatorIS1_EEE8capacityB7v160006Ev, symObjAddr: 0x7E6C, symBinAddr: 0x1000086B4, symSize: 0x40 }
  - { offsetInCU: 0x1AF0E, offset: 0x1AF0E, size: 0x8, addend: 0x0, symName: __ZNSt3__114__split_bufferI5RangeRNS_9allocatorIS1_EEE17__destruct_at_endB7v160006EPS1_, symObjAddr: 0x7EAC, symBinAddr: 0x1000086F4, symSize: 0x2C }
  - { offsetInCU: 0x1AF42, offset: 0x1AF42, size: 0x8, addend: 0x0, symName: __ZNSt3__114__split_bufferI5RangeRNS_9allocatorIS1_EEE17__destruct_at_endB7v160006EPS1_NS_17integral_constantIbLb0EEE, symObjAddr: 0x7ED8, symBinAddr: 0x100008720, symSize: 0x80 }
  - { offsetInCU: 0x1AF82, offset: 0x1AF82, size: 0x8, addend: 0x0, symName: __ZNKSt3__114__split_bufferI5RangeRNS_9allocatorIS1_EEE9__end_capB7v160006Ev, symObjAddr: 0x7F58, symBinAddr: 0x1000087A0, symSize: 0x28 }
  - { offsetInCU: 0x1AFA8, offset: 0x1AFA8, size: 0x8, addend: 0x0, symName: __ZNKSt3__117__compressed_pairIP5RangeRNS_9allocatorIS1_EEE5firstB7v160006Ev, symObjAddr: 0x7F80, symBinAddr: 0x1000087C8, symSize: 0x24 }
  - { offsetInCU: 0x1AFCE, offset: 0x1AFCE, size: 0x8, addend: 0x0, symName: __ZN5RangeC2Exxx, symObjAddr: 0x7FA4, symBinAddr: 0x1000087EC, symSize: 0x38 }
  - { offsetInCU: 0x1B022, offset: 0x1B022, size: 0x8, addend: 0x0, symName: __ZNSt3__16vectorI5RangeNS_9allocatorIS1_EEED2B7v160006Ev, symObjAddr: 0x7FDC, symBinAddr: 0x100008824, symSize: 0x44 }
  - { offsetInCU: 0x1B04C, offset: 0x1B04C, size: 0x8, addend: 0x0, symName: __ZNSt3__16vectorINS0_I5RangeNS_9allocatorIS1_EEEENS2_IS4_EEED2B7v160006Ev, symObjAddr: 0x8020, symBinAddr: 0x100008868, symSize: 0x44 }
  - { offsetInCU: 0x1B076, offset: 0x1B076, size: 0x8, addend: 0x0, symName: __ZNSt3__16vectorINS0_I5RangeNS_9allocatorIS1_EEEENS2_IS4_EEE16__destroy_vectorC1ERS6_, symObjAddr: 0x8064, symBinAddr: 0x1000088AC, symSize: 0x34 }
  - { offsetInCU: 0x1B0AF, offset: 0x1B0AF, size: 0x8, addend: 0x0, symName: __ZNSt3__16vectorINS0_I5RangeNS_9allocatorIS1_EEEENS2_IS4_EEE16__destroy_vectorclB7v160006Ev, symObjAddr: 0x8098, symBinAddr: 0x1000088E0, symSize: 0x9C }
  - { offsetInCU: 0x1B0D5, offset: 0x1B0D5, size: 0x8, addend: 0x0, symName: __ZNSt3__16vectorINS0_I5RangeNS_9allocatorIS1_EEEENS2_IS4_EEE16__destroy_vectorC2ERS6_, symObjAddr: 0x8134, symBinAddr: 0x10000897C, symSize: 0x20 }
  - { offsetInCU: 0x1B10E, offset: 0x1B10E, size: 0x8, addend: 0x0, symName: __ZNSt3__16vectorINS0_I5RangeNS_9allocatorIS1_EEEENS2_IS4_EEE7__clearB7v160006Ev, symObjAddr: 0x8164, symBinAddr: 0x1000089AC, symSize: 0x28 }
  - { offsetInCU: 0x1B134, offset: 0x1B134, size: 0x8, addend: 0x0, symName: __ZNSt3__16vectorINS0_I5RangeNS_9allocatorIS1_EEEENS2_IS4_EEE22__base_destruct_at_endB7v160006EPS4_, symObjAddr: 0x818C, symBinAddr: 0x1000089D4, symSize: 0x8C }
  - { offsetInCU: 0x1B178, offset: 0x1B178, size: 0x8, addend: 0x0, symName: __ZNSt3__16vectorIxNS_9allocatorIxEEED2B7v160006Ev, symObjAddr: 0x8218, symBinAddr: 0x100008A60, symSize: 0x44 }
  - { offsetInCU: 0x1B1A2, offset: 0x1B1A2, size: 0x8, addend: 0x0, symName: __ZNSt3__16vectorIxNS_9allocatorIxEEE16__destroy_vectorC1ERS3_, symObjAddr: 0x825C, symBinAddr: 0x100008AA4, symSize: 0x34 }
  - { offsetInCU: 0x1B1DB, offset: 0x1B1DB, size: 0x8, addend: 0x0, symName: __ZNSt3__16vectorIxNS_9allocatorIxEEE16__destroy_vectorclB7v160006Ev, symObjAddr: 0x8290, symBinAddr: 0x100008AD8, symSize: 0x9C }
  - { offsetInCU: 0x1B201, offset: 0x1B201, size: 0x8, addend: 0x0, symName: __ZNSt3__16vectorIxNS_9allocatorIxEEE16__destroy_vectorC2ERS3_, symObjAddr: 0x832C, symBinAddr: 0x100008B74, symSize: 0x20 }
  - { offsetInCU: 0x1B23A, offset: 0x1B23A, size: 0x8, addend: 0x0, symName: __ZNSt3__16vectorIxNS_9allocatorIxEEE7__clearB7v160006Ev, symObjAddr: 0x835C, symBinAddr: 0x100008BA4, symSize: 0x28 }
  - { offsetInCU: 0x1B260, offset: 0x1B260, size: 0x8, addend: 0x0, symName: __ZNSt3__16vectorIxNS_9allocatorIxEEE22__base_destruct_at_endB7v160006EPx, symObjAddr: 0x8384, symBinAddr: 0x100008BCC, symSize: 0x8C }
  - { offsetInCU: 0x1B2A4, offset: 0x1B2A4, size: 0x8, addend: 0x0, symName: __ZNSt3__113basic_fstreamIcNS_11char_traitsIcEEED2Ev, symObjAddr: 0x8410, symBinAddr: 0x100008C58, symSize: 0x6C }
  - { offsetInCU: 0x1B2DD, offset: 0x1B2DD, size: 0x8, addend: 0x0, symName: __ZNSt3__16vectorINS0_I5RangeNS_9allocatorIS1_EEEENS2_IS4_EEE5beginB7v160006Ev, symObjAddr: 0x847C, symBinAddr: 0x100008CC4, symSize: 0x30 }
  - { offsetInCU: 0x1B305, offset: 0x1B305, size: 0x8, addend: 0x0, symName: __ZNSt3__16vectorINS0_I5RangeNS_9allocatorIS1_EEEENS2_IS4_EEE3endB7v160006Ev, symObjAddr: 0x84AC, symBinAddr: 0x100008CF4, symSize: 0x30 }
  - { offsetInCU: 0x1B32D, offset: 0x1B32D, size: 0x8, addend: 0x0, symName: __ZNKSt3__111__wrap_iterIPNS_6vectorI5RangeNS_9allocatorIS2_EEEEEdeB7v160006Ev, symObjAddr: 0x8510, symBinAddr: 0x100008D58, symSize: 0x18 }
  - { offsetInCU: 0x1B353, offset: 0x1B353, size: 0x8, addend: 0x0, symName: __ZNSt3__16vectorIxNS_9allocatorIxEEE5beginB7v160006Ev, symObjAddr: 0x8528, symBinAddr: 0x100008D70, symSize: 0x30 }
  - { offsetInCU: 0x1B37B, offset: 0x1B37B, size: 0x8, addend: 0x0, symName: __ZNSt3__16vectorIxNS_9allocatorIxEEE3endB7v160006Ev, symObjAddr: 0x8558, symBinAddr: 0x100008DA0, symSize: 0x30 }
  - { offsetInCU: 0x1B3A3, offset: 0x1B3A3, size: 0x8, addend: 0x0, symName: __ZNKSt3__111__wrap_iterIPxEdeB7v160006Ev, symObjAddr: 0x85BC, symBinAddr: 0x100008E04, symSize: 0x18 }
  - { offsetInCU: 0x1B3C9, offset: 0x1B3C9, size: 0x8, addend: 0x0, symName: __ZNSt3__16vectorI5RangeNS_9allocatorIS1_EEE5beginB7v160006Ev, symObjAddr: 0x85D4, symBinAddr: 0x100008E1C, symSize: 0x30 }
  - { offsetInCU: 0x1B3F1, offset: 0x1B3F1, size: 0x8, addend: 0x0, symName: __ZNSt3__16vectorI5RangeNS_9allocatorIS1_EEE3endB7v160006Ev, symObjAddr: 0x8604, symBinAddr: 0x100008E4C, symSize: 0x30 }
  - { offsetInCU: 0x1B419, offset: 0x1B419, size: 0x8, addend: 0x0, symName: __ZNKSt3__111__wrap_iterIP5RangeEdeB7v160006Ev, symObjAddr: 0x8668, symBinAddr: 0x100008EB0, symSize: 0x18 }
  - { offsetInCU: 0x1B43F, offset: 0x1B43F, size: 0x8, addend: 0x0, symName: __ZNSt3__111__wrap_iterIP5RangeEppB7v160006Ev, symObjAddr: 0x8680, symBinAddr: 0x100008EC8, symSize: 0x20 }
  - { offsetInCU: 0x1B465, offset: 0x1B465, size: 0x8, addend: 0x0, symName: __ZNSt3__111__wrap_iterIPxEppB7v160006Ev, symObjAddr: 0x86A0, symBinAddr: 0x100008EE8, symSize: 0x20 }
  - { offsetInCU: 0x1B48B, offset: 0x1B48B, size: 0x8, addend: 0x0, symName: __ZNSt3__111__wrap_iterIPNS_6vectorI5RangeNS_9allocatorIS2_EEEEEppB7v160006Ev, symObjAddr: 0x86C0, symBinAddr: 0x100008F08, symSize: 0x20 }
  - { offsetInCU: 0x1B4B1, offset: 0x1B4B1, size: 0x8, addend: 0x0, symName: __ZNSt3__16vectorINS0_I5RangeNS_9allocatorIS1_EEEENS2_IS4_EEE11__make_iterB7v160006EPS4_, symObjAddr: 0x870C, symBinAddr: 0x100008F54, symSize: 0x34 }
  - { offsetInCU: 0x1B4E6, offset: 0x1B4E6, size: 0x8, addend: 0x0, symName: __ZNSt3__111__wrap_iterIPNS_6vectorI5RangeNS_9allocatorIS2_EEEEEC1B7v160006EPKvS6_, symObjAddr: 0x8740, symBinAddr: 0x100008F88, symSize: 0x3C }
  - { offsetInCU: 0x1B52C, offset: 0x1B52C, size: 0x8, addend: 0x0, symName: __ZNSt3__111__wrap_iterIPNS_6vectorI5RangeNS_9allocatorIS2_EEEEEC2B7v160006EPKvS6_, symObjAddr: 0x877C, symBinAddr: 0x100008FC4, symSize: 0x24 }
  - { offsetInCU: 0x1B572, offset: 0x1B572, size: 0x8, addend: 0x0, symName: __ZNKSt3__111__wrap_iterIPNS_6vectorI5RangeNS_9allocatorIS2_EEEEE4baseB7v160006Ev, symObjAddr: 0x87E8, symBinAddr: 0x100009030, symSize: 0x18 }
  - { offsetInCU: 0x1B598, offset: 0x1B598, size: 0x8, addend: 0x0, symName: __ZNSt3__16vectorIxNS_9allocatorIxEEE11__make_iterB7v160006EPx, symObjAddr: 0x8800, symBinAddr: 0x100009048, symSize: 0x34 }
  - { offsetInCU: 0x1B5CD, offset: 0x1B5CD, size: 0x8, addend: 0x0, symName: __ZNSt3__111__wrap_iterIPxEC1B7v160006EPKvS1_, symObjAddr: 0x8834, symBinAddr: 0x10000907C, symSize: 0x3C }
  - { offsetInCU: 0x1B613, offset: 0x1B613, size: 0x8, addend: 0x0, symName: __ZNSt3__111__wrap_iterIPxEC2B7v160006EPKvS1_, symObjAddr: 0x8870, symBinAddr: 0x1000090B8, symSize: 0x24 }
  - { offsetInCU: 0x1B659, offset: 0x1B659, size: 0x8, addend: 0x0, symName: __ZNKSt3__111__wrap_iterIPxE4baseB7v160006Ev, symObjAddr: 0x88DC, symBinAddr: 0x100009124, symSize: 0x18 }
  - { offsetInCU: 0x1B67F, offset: 0x1B67F, size: 0x8, addend: 0x0, symName: __ZNSt3__16vectorI5RangeNS_9allocatorIS1_EEE11__make_iterB7v160006EPS1_, symObjAddr: 0x88F4, symBinAddr: 0x10000913C, symSize: 0x34 }
  - { offsetInCU: 0x1B6B4, offset: 0x1B6B4, size: 0x8, addend: 0x0, symName: __ZNSt3__111__wrap_iterIP5RangeEC1B7v160006EPKvS2_, symObjAddr: 0x8928, symBinAddr: 0x100009170, symSize: 0x3C }
  - { offsetInCU: 0x1B6FA, offset: 0x1B6FA, size: 0x8, addend: 0x0, symName: __ZNSt3__111__wrap_iterIP5RangeEC2B7v160006EPKvS2_, symObjAddr: 0x8964, symBinAddr: 0x1000091AC, symSize: 0x24 }
  - { offsetInCU: 0x1B740, offset: 0x1B740, size: 0x8, addend: 0x0, symName: __ZNKSt3__111__wrap_iterIP5RangeE4baseB7v160006Ev, symObjAddr: 0x89D0, symBinAddr: 0x100009218, symSize: 0x18 }
  - { offsetInCU: 0x1B770, offset: 0x1B770, size: 0x8, addend: 0x0, symName: __ZNKSt3__16__lessIxxEclB7v160006ERKxS3_, symObjAddr: 0x8A3C, symBinAddr: 0x100009284, symSize: 0x34 }
  - { offsetInCU: 0x1B7B2, offset: 0x1B7B2, size: 0x8, addend: 0x0, symName: __ZNSt3__16vectorINS_4pairIxxEENS_9allocatorIS2_EEEC1B7v160006Ev, symObjAddr: 0x8A70, symBinAddr: 0x1000092B8, symSize: 0x2C }
  - { offsetInCU: 0x1B7DC, offset: 0x1B7DC, size: 0x8, addend: 0x0, symName: __ZNSt3__16vectorINS_4pairIxxEENS_9allocatorIS2_EEE9push_backB7v160006EOS2_, symObjAddr: 0x8A9C, symBinAddr: 0x1000092E4, symSize: 0x6C }
  - { offsetInCU: 0x1B813, offset: 0x1B813, size: 0x8, addend: 0x0, symName: __ZNSt3__16vectorIxNS_9allocatorIxEEEixB7v160006Em, symObjAddr: 0x8B40, symBinAddr: 0x100009388, symSize: 0x24 }
  - { offsetInCU: 0x1B84A, offset: 0x1B84A, size: 0x8, addend: 0x0, symName: __ZN8Solution14checkIntervalsERNSt3__16vectorINS1_I5RangeNS0_9allocatorIS2_EEEENS3_IS5_EEEENS1_INS0_4pairIxxEENS3_ISA_EEEEx, symObjAddr: 0x8BA0, symBinAddr: 0x1000093E8, symSize: 0x200 }
  - { offsetInCU: 0x1B9A8, offset: 0x1B9A8, size: 0x8, addend: 0x0, symName: __ZNSt3__16vectorINS_4pairIxxEENS_9allocatorIS2_EEEC1ERKS5_, symObjAddr: 0x8DA0, symBinAddr: 0x1000095E8, symSize: 0x34 }
  - { offsetInCU: 0x1B9E3, offset: 0x1B9E3, size: 0x8, addend: 0x0, symName: __ZNSt3__16vectorINS_4pairIxxEENS_9allocatorIS2_EEED1B7v160006Ev, symObjAddr: 0x8DD4, symBinAddr: 0x10000961C, symSize: 0x2C }
  - { offsetInCU: 0x1BA0D, offset: 0x1BA0D, size: 0x8, addend: 0x0, symName: __ZNSt3__16vectorINS_4pairIxxEENS_9allocatorIS2_EEEC2B7v160006Ev, symObjAddr: 0x8E00, symBinAddr: 0x100009648, symSize: 0x58 }
  - { offsetInCU: 0x1BA37, offset: 0x1BA37, size: 0x8, addend: 0x0, symName: __ZNSt3__117__compressed_pairIPNS_4pairIxxEENS_9allocatorIS2_EEEC1B7v160006IDnNS_18__default_init_tagEEEOT_OT0_, symObjAddr: 0x8E58, symBinAddr: 0x1000096A0, symSize: 0x3C }
  - { offsetInCU: 0x1BA8F, offset: 0x1BA8F, size: 0x8, addend: 0x0, symName: __ZNSt3__117__compressed_pairIPNS_4pairIxxEENS_9allocatorIS2_EEEC2B7v160006IDnNS_18__default_init_tagEEEOT_OT0_, symObjAddr: 0x8EA4, symBinAddr: 0x1000096EC, symSize: 0x40 }
  - { offsetInCU: 0x1BAE7, offset: 0x1BAE7, size: 0x8, addend: 0x0, symName: __ZNSt3__122__compressed_pair_elemIPNS_4pairIxxEELi0ELb0EEC2B7v160006IDnvEEOT_, symObjAddr: 0x8EE4, symBinAddr: 0x10000972C, symSize: 0x1C }
  - { offsetInCU: 0x1BB29, offset: 0x1BB29, size: 0x8, addend: 0x0, symName: __ZNSt3__122__compressed_pair_elemINS_9allocatorINS_4pairIxxEEEELi1ELb1EEC2B7v160006ENS_18__default_init_tagE, symObjAddr: 0x8F00, symBinAddr: 0x100009748, symSize: 0x2C }
  - { offsetInCU: 0x1BB5D, offset: 0x1BB5D, size: 0x8, addend: 0x0, symName: __ZNSt3__19allocatorINS_4pairIxxEEEC2B7v160006Ev, symObjAddr: 0x8F2C, symBinAddr: 0x100009774, symSize: 0x2C }
  - { offsetInCU: 0x1BB87, offset: 0x1BB87, size: 0x8, addend: 0x0, symName: __ZNSt3__116__non_trivial_ifILb1ENS_9allocatorINS_4pairIxxEEEEEC2B7v160006Ev, symObjAddr: 0x8F58, symBinAddr: 0x1000097A0, symSize: 0x14 }
  - { offsetInCU: 0x1BBB1, offset: 0x1BBB1, size: 0x8, addend: 0x0, symName: __ZNSt3__16vectorINS_4pairIxxEENS_9allocatorIS2_EEE9__end_capB7v160006Ev, symObjAddr: 0x8F6C, symBinAddr: 0x1000097B4, symSize: 0x28 }
  - { offsetInCU: 0x1BBD7, offset: 0x1BBD7, size: 0x8, addend: 0x0, symName: __ZNSt3__16vectorINS_4pairIxxEENS_9allocatorIS2_EEE22__construct_one_at_endB7v160006IJS2_EEEvDpOT_, symObjAddr: 0x8F94, symBinAddr: 0x1000097DC, symSize: 0x90 }
  - { offsetInCU: 0x1BC26, offset: 0x1BC26, size: 0x8, addend: 0x0, symName: __ZNSt3__16vectorINS_4pairIxxEENS_9allocatorIS2_EEE21__push_back_slow_pathIS2_EEvOT_, symObjAddr: 0x9024, symBinAddr: 0x10000986C, symSize: 0xD8 }
  - { offsetInCU: 0x1BC84, offset: 0x1BC84, size: 0x8, addend: 0x0, symName: __ZNSt3__117__compressed_pairIPNS_4pairIxxEENS_9allocatorIS2_EEE5firstB7v160006Ev, symObjAddr: 0x90FC, symBinAddr: 0x100009944, symSize: 0x24 }
  - { offsetInCU: 0x1BCAA, offset: 0x1BCAA, size: 0x8, addend: 0x0, symName: __ZNSt3__122__compressed_pair_elemIPNS_4pairIxxEELi0ELb0EE5__getB7v160006Ev, symObjAddr: 0x9120, symBinAddr: 0x100009968, symSize: 0x14 }
  - { offsetInCU: 0x1BCE9, offset: 0x1BCE9, size: 0x8, addend: 0x0, symName: __ZNSt3__16vectorINS_4pairIxxEENS_9allocatorIS2_EEE21_ConstructTransactionC1B7v160006ERS5_m, symObjAddr: 0x9134, symBinAddr: 0x10000997C, symSize: 0x3C }
  - { offsetInCU: 0x1BD31, offset: 0x1BD31, size: 0x8, addend: 0x0, symName: __ZNSt3__116allocator_traitsINS_9allocatorINS_4pairIxxEEEEE9constructB7v160006IS3_JS3_EvEEvRS4_PT_DpOT0_, symObjAddr: 0x9170, symBinAddr: 0x1000099B8, symSize: 0x34 }
  - { offsetInCU: 0x1BD88, offset: 0x1BD88, size: 0x8, addend: 0x0, symName: __ZNSt3__16vectorINS_4pairIxxEENS_9allocatorIS2_EEE7__allocB7v160006Ev, symObjAddr: 0x91A4, symBinAddr: 0x1000099EC, symSize: 0x28 }
  - { offsetInCU: 0x1BDAE, offset: 0x1BDAE, size: 0x8, addend: 0x0, symName: __ZNSt3__16vectorINS_4pairIxxEENS_9allocatorIS2_EEE21_ConstructTransactionD1B7v160006Ev, symObjAddr: 0x91E0, symBinAddr: 0x100009A28, symSize: 0x2C }
  - { offsetInCU: 0x1BDD8, offset: 0x1BDD8, size: 0x8, addend: 0x0, symName: __ZNSt3__16vectorINS_4pairIxxEENS_9allocatorIS2_EEE21_ConstructTransactionC2B7v160006ERS5_m, symObjAddr: 0x920C, symBinAddr: 0x100009A54, symSize: 0x44 }
  - { offsetInCU: 0x1BE20, offset: 0x1BE20, size: 0x8, addend: 0x0, symName: __ZNSt3__19allocatorINS_4pairIxxEEE9constructB7v160006IS2_JS2_EEEvPT_DpOT0_, symObjAddr: 0x9250, symBinAddr: 0x100009A98, symSize: 0x28 }
  - { offsetInCU: 0x1BE76, offset: 0x1BE76, size: 0x8, addend: 0x0, symName: __ZNSt3__117__compressed_pairIPNS_4pairIxxEENS_9allocatorIS2_EEE6secondB7v160006Ev, symObjAddr: 0x9278, symBinAddr: 0x100009AC0, symSize: 0x24 }
  - { offsetInCU: 0x1BE9C, offset: 0x1BE9C, size: 0x8, addend: 0x0, symName: __ZNSt3__122__compressed_pair_elemINS_9allocatorINS_4pairIxxEEEELi1ELb1EE5__getB7v160006Ev, symObjAddr: 0x929C, symBinAddr: 0x100009AE4, symSize: 0x14 }
  - { offsetInCU: 0x1BEC2, offset: 0x1BEC2, size: 0x8, addend: 0x0, symName: __ZNSt3__16vectorINS_4pairIxxEENS_9allocatorIS2_EEE21_ConstructTransactionD2B7v160006Ev, symObjAddr: 0x92B0, symBinAddr: 0x100009AF8, symSize: 0x20 }
  - { offsetInCU: 0x1BEEC, offset: 0x1BEEC, size: 0x8, addend: 0x0, symName: __ZNKSt3__16vectorINS_4pairIxxEENS_9allocatorIS2_EEE11__recommendB7v160006Em, symObjAddr: 0x92D0, symBinAddr: 0x100009B18, symSize: 0xB4 }
  - { offsetInCU: 0x1BF41, offset: 0x1BF41, size: 0x8, addend: 0x0, symName: __ZNKSt3__16vectorINS_4pairIxxEENS_9allocatorIS2_EEE4sizeB7v160006Ev, symObjAddr: 0x9384, symBinAddr: 0x100009BCC, symSize: 0x28 }
  - { offsetInCU: 0x1BF67, offset: 0x1BF67, size: 0x8, addend: 0x0, symName: __ZNSt3__114__split_bufferINS_4pairIxxEERNS_9allocatorIS2_EEEC1EmmS5_, symObjAddr: 0x93AC, symBinAddr: 0x100009BF4, symSize: 0x44 }
  - { offsetInCU: 0x1BFBD, offset: 0x1BFBD, size: 0x8, addend: 0x0, symName: __ZNSt3__114__split_bufferINS_4pairIxxEERNS_9allocatorIS2_EEED1Ev, symObjAddr: 0x9508, symBinAddr: 0x100009D50, symSize: 0x2C }
  - { offsetInCU: 0x1BFE9, offset: 0x1BFE9, size: 0x8, addend: 0x0, symName: __ZNKSt3__16vectorINS_4pairIxxEENS_9allocatorIS2_EEE8max_sizeEv, symObjAddr: 0x9534, symBinAddr: 0x100009D7C, symSize: 0x60 }
  - { offsetInCU: 0x1C011, offset: 0x1C011, size: 0x8, addend: 0x0, symName: __ZNKSt3__16vectorINS_4pairIxxEENS_9allocatorIS2_EEE20__throw_length_errorB7v160006Ev, symObjAddr: 0x9594, symBinAddr: 0x100009DDC, symSize: 0x1C }
  - { offsetInCU: 0x1C037, offset: 0x1C037, size: 0x8, addend: 0x0, symName: __ZNKSt3__16vectorINS_4pairIxxEENS_9allocatorIS2_EEE8capacityB7v160006Ev, symObjAddr: 0x95B0, symBinAddr: 0x100009DF8, symSize: 0x40 }
  - { offsetInCU: 0x1C067, offset: 0x1C067, size: 0x8, addend: 0x0, symName: __ZNSt3__116allocator_traitsINS_9allocatorINS_4pairIxxEEEEE8max_sizeB7v160006IS4_vEEmRKS4_, symObjAddr: 0x95F0, symBinAddr: 0x100009E38, symSize: 0x24 }
  - { offsetInCU: 0x1C095, offset: 0x1C095, size: 0x8, addend: 0x0, symName: __ZNKSt3__16vectorINS_4pairIxxEENS_9allocatorIS2_EEE7__allocB7v160006Ev, symObjAddr: 0x9614, symBinAddr: 0x100009E5C, symSize: 0x28 }
  - { offsetInCU: 0x1C0BB, offset: 0x1C0BB, size: 0x8, addend: 0x0, symName: __ZNKSt3__19allocatorINS_4pairIxxEEE8max_sizeB7v160006Ev, symObjAddr: 0x963C, symBinAddr: 0x100009E84, symSize: 0x14 }
  - { offsetInCU: 0x1C0E1, offset: 0x1C0E1, size: 0x8, addend: 0x0, symName: __ZNKSt3__117__compressed_pairIPNS_4pairIxxEENS_9allocatorIS2_EEE6secondB7v160006Ev, symObjAddr: 0x9650, symBinAddr: 0x100009E98, symSize: 0x24 }
  - { offsetInCU: 0x1C107, offset: 0x1C107, size: 0x8, addend: 0x0, symName: __ZNKSt3__122__compressed_pair_elemINS_9allocatorINS_4pairIxxEEEELi1ELb1EE5__getB7v160006Ev, symObjAddr: 0x9674, symBinAddr: 0x100009EBC, symSize: 0x14 }
  - { offsetInCU: 0x1C12D, offset: 0x1C12D, size: 0x8, addend: 0x0, symName: __ZNKSt3__16vectorINS_4pairIxxEENS_9allocatorIS2_EEE9__end_capB7v160006Ev, symObjAddr: 0x9688, symBinAddr: 0x100009ED0, symSize: 0x28 }
  - { offsetInCU: 0x1C153, offset: 0x1C153, size: 0x8, addend: 0x0, symName: __ZNKSt3__117__compressed_pairIPNS_4pairIxxEENS_9allocatorIS2_EEE5firstB7v160006Ev, symObjAddr: 0x96B0, symBinAddr: 0x100009EF8, symSize: 0x24 }
  - { offsetInCU: 0x1C179, offset: 0x1C179, size: 0x8, addend: 0x0, symName: __ZNKSt3__122__compressed_pair_elemIPNS_4pairIxxEELi0ELb0EE5__getB7v160006Ev, symObjAddr: 0x96D4, symBinAddr: 0x100009F1C, symSize: 0x14 }
  - { offsetInCU: 0x1C19F, offset: 0x1C19F, size: 0x8, addend: 0x0, symName: __ZNSt3__114__split_bufferINS_4pairIxxEERNS_9allocatorIS2_EEEC2EmmS5_, symObjAddr: 0x96E8, symBinAddr: 0x100009F30, symSize: 0xD4 }
  - { offsetInCU: 0x1C213, offset: 0x1C213, size: 0x8, addend: 0x0, symName: __ZNSt3__117__compressed_pairIPNS_4pairIxxEERNS_9allocatorIS2_EEEC1B7v160006IDnS6_EEOT_OT0_, symObjAddr: 0x97BC, symBinAddr: 0x10000A004, symSize: 0x3C }
  - { offsetInCU: 0x1C26B, offset: 0x1C26B, size: 0x8, addend: 0x0, symName: __ZNSt3__114__split_bufferINS_4pairIxxEERNS_9allocatorIS2_EEE7__allocB7v160006Ev, symObjAddr: 0x9838, symBinAddr: 0x10000A080, symSize: 0x28 }
  - { offsetInCU: 0x1C291, offset: 0x1C291, size: 0x8, addend: 0x0, symName: __ZNSt3__114__split_bufferINS_4pairIxxEERNS_9allocatorIS2_EEE9__end_capB7v160006Ev, symObjAddr: 0x9860, symBinAddr: 0x10000A0A8, symSize: 0x28 }
  - { offsetInCU: 0x1C2B7, offset: 0x1C2B7, size: 0x8, addend: 0x0, symName: __ZNSt3__117__compressed_pairIPNS_4pairIxxEERNS_9allocatorIS2_EEEC2B7v160006IDnS6_EEOT_OT0_, symObjAddr: 0x9888, symBinAddr: 0x10000A0D0, symSize: 0x48 }
  - { offsetInCU: 0x1C30F, offset: 0x1C30F, size: 0x8, addend: 0x0, symName: __ZNSt3__122__compressed_pair_elemIRNS_9allocatorINS_4pairIxxEEEELi1ELb0EEC2B7v160006IS5_vEEOT_, symObjAddr: 0x98D0, symBinAddr: 0x10000A118, symSize: 0x20 }
  - { offsetInCU: 0x1C351, offset: 0x1C351, size: 0x8, addend: 0x0, symName: __ZNSt3__19allocatorINS_4pairIxxEEE8allocateB7v160006Em, symObjAddr: 0x98F0, symBinAddr: 0x10000A138, symSize: 0x58 }
  - { offsetInCU: 0x1C385, offset: 0x1C385, size: 0x8, addend: 0x0, symName: __ZNSt3__117__compressed_pairIPNS_4pairIxxEERNS_9allocatorIS2_EEE6secondB7v160006Ev, symObjAddr: 0x9948, symBinAddr: 0x10000A190, symSize: 0x28 }
  - { offsetInCU: 0x1C3AB, offset: 0x1C3AB, size: 0x8, addend: 0x0, symName: __ZNSt3__122__compressed_pair_elemIRNS_9allocatorINS_4pairIxxEEEELi1ELb0EE5__getB7v160006Ev, symObjAddr: 0x9970, symBinAddr: 0x10000A1B8, symSize: 0x18 }
  - { offsetInCU: 0x1C3D1, offset: 0x1C3D1, size: 0x8, addend: 0x0, symName: __ZNSt3__117__compressed_pairIPNS_4pairIxxEERNS_9allocatorIS2_EEE5firstB7v160006Ev, symObjAddr: 0x9988, symBinAddr: 0x10000A1D0, symSize: 0x24 }
  - { offsetInCU: 0x1C3F7, offset: 0x1C3F7, size: 0x8, addend: 0x0, symName: __ZNKSt3__16vectorINS_4pairIxxEENS_9allocatorIS2_EEE17__annotate_deleteB7v160006Ev, symObjAddr: 0x99AC, symBinAddr: 0x10000A1F4, symSize: 0xB8 }
  - { offsetInCU: 0x1C41D, offset: 0x1C41D, size: 0x8, addend: 0x0, symName: __ZNSt3__116reverse_iteratorIPNS_4pairIxxEEEC1B7v160006ES3_, symObjAddr: 0x9B90, symBinAddr: 0x10000A3D8, symSize: 0x34 }
  - { offsetInCU: 0x1C455, offset: 0x1C455, size: 0x8, addend: 0x0, symName: __ZNKSt3__116reverse_iteratorIPNS_4pairIxxEEE4baseB7v160006Ev, symObjAddr: 0x9BC4, symBinAddr: 0x10000A40C, symSize: 0x18 }
  - { offsetInCU: 0x1C47B, offset: 0x1C47B, size: 0x8, addend: 0x0, symName: __ZNKSt3__16vectorINS_4pairIxxEENS_9allocatorIS2_EEE14__annotate_newB7v160006Em, symObjAddr: 0x9C18, symBinAddr: 0x10000A460, symSize: 0xAC }
  - { offsetInCU: 0x1C4B0, offset: 0x1C4B0, size: 0x8, addend: 0x0, symName: __ZNKSt3__16vectorINS_4pairIxxEENS_9allocatorIS2_EEE31__annotate_contiguous_containerB7v160006EPKvS7_S7_S7_, symObjAddr: 0x9CD4, symBinAddr: 0x10000A51C, symSize: 0x20 }
  - { offsetInCU: 0x1C502, offset: 0x1C502, size: 0x8, addend: 0x0, symName: __ZNKSt3__16vectorINS_4pairIxxEENS_9allocatorIS2_EEE4dataB7v160006Ev, symObjAddr: 0x9CF4, symBinAddr: 0x10000A53C, symSize: 0x28 }
  - { offsetInCU: 0x1C528, offset: 0x1C528, size: 0x8, addend: 0x0, symName: __ZNSt3__129_AllocatorDestroyRangeReverseINS_9allocatorINS_4pairIxxEEEENS_16reverse_iteratorIPS3_EEEC1B7v160006ERS4_RS7_SA_, symObjAddr: 0x9D68, symBinAddr: 0x10000A5B0, symSize: 0x44 }
  - { offsetInCU: 0x1C57F, offset: 0x1C57F, size: 0x8, addend: 0x0, symName: __ZNKSt3__116reverse_iteratorIPNS_4pairIxxEEEdeB7v160006Ev, symObjAddr: 0x9E18, symBinAddr: 0x10000A660, symSize: 0x28 }
  - { offsetInCU: 0x1C5B3, offset: 0x1C5B3, size: 0x8, addend: 0x0, symName: __ZNSt3__116reverse_iteratorIPNS_4pairIxxEEEppB7v160006Ev, symObjAddr: 0x9E40, symBinAddr: 0x10000A688, symSize: 0x20 }
  - { offsetInCU: 0x1C5D9, offset: 0x1C5D9, size: 0x8, addend: 0x0, symName: __ZNSt3__128__exception_guard_exceptionsINS_29_AllocatorDestroyRangeReverseINS_9allocatorINS_4pairIxxEEEENS_16reverse_iteratorIPS4_EEEEE10__completeB7v160006Ev, symObjAddr: 0x9E60, symBinAddr: 0x10000A6A8, symSize: 0x1C }
  - { offsetInCU: 0x1C5FF, offset: 0x1C5FF, size: 0x8, addend: 0x0, symName: __ZNSt3__128__exception_guard_exceptionsINS_29_AllocatorDestroyRangeReverseINS_9allocatorINS_4pairIxxEEEENS_16reverse_iteratorIPS4_EEEEED1B7v160006Ev, symObjAddr: 0x9E7C, symBinAddr: 0x10000A6C4, symSize: 0x2C }
  - { offsetInCU: 0x1C629, offset: 0x1C629, size: 0x8, addend: 0x0, symName: __ZNSt3__128__exception_guard_exceptionsINS_29_AllocatorDestroyRangeReverseINS_9allocatorINS_4pairIxxEEEENS_16reverse_iteratorIPS4_EEEEEC1B7v160006ES9_, symObjAddr: 0x9EA8, symBinAddr: 0x10000A6F0, symSize: 0x34 }
  - { offsetInCU: 0x1C662, offset: 0x1C662, size: 0x8, addend: 0x0, symName: __ZNSt3__128__exception_guard_exceptionsINS_29_AllocatorDestroyRangeReverseINS_9allocatorINS_4pairIxxEEEENS_16reverse_iteratorIPS4_EEEEEC2B7v160006ES9_, symObjAddr: 0x9EDC, symBinAddr: 0x10000A724, symSize: 0x30 }
  - { offsetInCU: 0x1C69B, offset: 0x1C69B, size: 0x8, addend: 0x0, symName: __ZNSt3__129_AllocatorDestroyRangeReverseINS_9allocatorINS_4pairIxxEEEENS_16reverse_iteratorIPS3_EEEC2B7v160006ERS4_RS7_SA_, symObjAddr: 0x9F0C, symBinAddr: 0x10000A754, symSize: 0x38 }
  - { offsetInCU: 0x1C6F7, offset: 0x1C6F7, size: 0x8, addend: 0x0, symName: __ZNSt3__119__to_address_helperINS_16reverse_iteratorIPNS_4pairIxxEEEEvE6__callB7v160006ERKS5_, symObjAddr: 0x9F44, symBinAddr: 0x10000A78C, symSize: 0x38 }
  - { offsetInCU: 0x1C71A, offset: 0x1C71A, size: 0x8, addend: 0x0, symName: __ZNKSt3__116reverse_iteratorIPNS_4pairIxxEEEptB7v160006Ev, symObjAddr: 0x9F7C, symBinAddr: 0x10000A7C4, symSize: 0x24 }
  - { offsetInCU: 0x1C740, offset: 0x1C740, size: 0x8, addend: 0x0, symName: __ZNSt3__128__exception_guard_exceptionsINS_29_AllocatorDestroyRangeReverseINS_9allocatorINS_4pairIxxEEEENS_16reverse_iteratorIPS4_EEEEED2B7v160006Ev, symObjAddr: 0x9FA0, symBinAddr: 0x10000A7E8, symSize: 0x50 }
  - { offsetInCU: 0x1C76A, offset: 0x1C76A, size: 0x8, addend: 0x0, symName: __ZNKSt3__129_AllocatorDestroyRangeReverseINS_9allocatorINS_4pairIxxEEEENS_16reverse_iteratorIPS3_EEEclB7v160006Ev, symObjAddr: 0x9FF0, symBinAddr: 0x10000A838, symSize: 0xB4 }
  - { offsetInCU: 0x1C791, offset: 0x1C791, size: 0x8, addend: 0x0, symName: __ZNSt3__116reverse_iteratorINS0_IPNS_4pairIxxEEEEEC1B7v160006ES4_, symObjAddr: 0xA114, symBinAddr: 0x10000A95C, symSize: 0x3C }
  - { offsetInCU: 0x1C7C9, offset: 0x1C7C9, size: 0x8, addend: 0x0, symName: __ZNSt3__116allocator_traitsINS_9allocatorINS_4pairIxxEEEEE7destroyB7v160006IS3_vEEvRS4_PT_, symObjAddr: 0xA1B0, symBinAddr: 0x10000A9F8, symSize: 0x2C }
  - { offsetInCU: 0x1C806, offset: 0x1C806, size: 0x8, addend: 0x0, symName: __ZNSt3__116reverse_iteratorINS0_IPNS_4pairIxxEEEEEppB7v160006Ev, symObjAddr: 0xA200, symBinAddr: 0x10000AA48, symSize: 0x30 }
  - { offsetInCU: 0x1C82C, offset: 0x1C82C, size: 0x8, addend: 0x0, symName: __ZNKSt3__116reverse_iteratorINS0_IPNS_4pairIxxEEEEE4baseB7v160006Ev, symObjAddr: 0xA230, symBinAddr: 0x10000AA78, symSize: 0x24 }
  - { offsetInCU: 0x1C852, offset: 0x1C852, size: 0x8, addend: 0x0, symName: __ZNSt3__19allocatorINS_4pairIxxEEE7destroyB7v160006EPS2_, symObjAddr: 0xA254, symBinAddr: 0x10000AA9C, symSize: 0x14 }
  - { offsetInCU: 0x1C88B, offset: 0x1C88B, size: 0x8, addend: 0x0, symName: __ZNSt3__119__to_address_helperINS_16reverse_iteratorINS1_IPNS_4pairIxxEEEEEEvE6__callB7v160006ERKS6_, symObjAddr: 0xA268, symBinAddr: 0x10000AAB0, symSize: 0x38 }
  - { offsetInCU: 0x1C8AE, offset: 0x1C8AE, size: 0x8, addend: 0x0, symName: __ZNKSt3__116reverse_iteratorINS0_IPNS_4pairIxxEEEEEptB7v160006Ev, symObjAddr: 0xA2A0, symBinAddr: 0x10000AAE8, symSize: 0x24 }
  - { offsetInCU: 0x1C8D4, offset: 0x1C8D4, size: 0x8, addend: 0x0, symName: __ZNKSt3__116reverse_iteratorINS0_IPNS_4pairIxxEEEEEdeB7v160006Ev, symObjAddr: 0xA2C4, symBinAddr: 0x10000AB0C, symSize: 0x34 }
  - { offsetInCU: 0x1C908, offset: 0x1C908, size: 0x8, addend: 0x0, symName: __ZNSt3__116reverse_iteratorIPNS_4pairIxxEEEmmB7v160006Ev, symObjAddr: 0xA2F8, symBinAddr: 0x10000AB40, symSize: 0x20 }
  - { offsetInCU: 0x1C92E, offset: 0x1C92E, size: 0x8, addend: 0x0, symName: __ZNSt3__116reverse_iteratorINS0_IPNS_4pairIxxEEEEEC2B7v160006ES4_, symObjAddr: 0xA318, symBinAddr: 0x10000AB60, symSize: 0x2C }
  - { offsetInCU: 0x1C966, offset: 0x1C966, size: 0x8, addend: 0x0, symName: __ZNSt3__116reverse_iteratorIPNS_4pairIxxEEEC2B7v160006ES3_, symObjAddr: 0xA344, symBinAddr: 0x10000AB8C, symSize: 0x28 }
  - { offsetInCU: 0x1C99E, offset: 0x1C99E, size: 0x8, addend: 0x0, symName: __ZNSt3__114__split_bufferINS_4pairIxxEERNS_9allocatorIS2_EEED2Ev, symObjAddr: 0xA36C, symBinAddr: 0x10000ABB4, symSize: 0x8C }
  - { offsetInCU: 0x1C9CA, offset: 0x1C9CA, size: 0x8, addend: 0x0, symName: __ZNSt3__114__split_bufferINS_4pairIxxEERNS_9allocatorIS2_EEE5clearB7v160006Ev, symObjAddr: 0xA3F8, symBinAddr: 0x10000AC40, symSize: 0x28 }
  - { offsetInCU: 0x1C9F0, offset: 0x1C9F0, size: 0x8, addend: 0x0, symName: __ZNSt3__116allocator_traitsINS_9allocatorINS_4pairIxxEEEEE10deallocateB7v160006ERS4_PS3_m, symObjAddr: 0xA420, symBinAddr: 0x10000AC68, symSize: 0x34 }
  - { offsetInCU: 0x1CA32, offset: 0x1CA32, size: 0x8, addend: 0x0, symName: __ZNKSt3__114__split_bufferINS_4pairIxxEERNS_9allocatorIS2_EEE8capacityB7v160006Ev, symObjAddr: 0xA454, symBinAddr: 0x10000AC9C, symSize: 0x40 }
  - { offsetInCU: 0x1CA58, offset: 0x1CA58, size: 0x8, addend: 0x0, symName: __ZNSt3__114__split_bufferINS_4pairIxxEERNS_9allocatorIS2_EEE17__destruct_at_endB7v160006EPS2_, symObjAddr: 0xA494, symBinAddr: 0x10000ACDC, symSize: 0x2C }
  - { offsetInCU: 0x1CA8C, offset: 0x1CA8C, size: 0x8, addend: 0x0, symName: __ZNSt3__114__split_bufferINS_4pairIxxEERNS_9allocatorIS2_EEE17__destruct_at_endB7v160006EPS2_NS_17integral_constantIbLb0EEE, symObjAddr: 0xA4C0, symBinAddr: 0x10000AD08, symSize: 0x80 }
  - { offsetInCU: 0x1CACC, offset: 0x1CACC, size: 0x8, addend: 0x0, symName: __ZNSt3__19allocatorINS_4pairIxxEEE10deallocateB7v160006EPS2_m, symObjAddr: 0xA540, symBinAddr: 0x10000AD88, symSize: 0x40 }
  - { offsetInCU: 0x1CB0E, offset: 0x1CB0E, size: 0x8, addend: 0x0, symName: __ZNKSt3__114__split_bufferINS_4pairIxxEERNS_9allocatorIS2_EEE9__end_capB7v160006Ev, symObjAddr: 0xA580, symBinAddr: 0x10000ADC8, symSize: 0x28 }
  - { offsetInCU: 0x1CB34, offset: 0x1CB34, size: 0x8, addend: 0x0, symName: __ZNKSt3__117__compressed_pairIPNS_4pairIxxEERNS_9allocatorIS2_EEE5firstB7v160006Ev, symObjAddr: 0xA5A8, symBinAddr: 0x10000ADF0, symSize: 0x24 }
  - { offsetInCU: 0x1CB5A, offset: 0x1CB5A, size: 0x8, addend: 0x0, symName: __ZNSt3__14pairIxxEC1B7v160006IRxxLPv0EEEOT_OT0_, symObjAddr: 0xA5CC, symBinAddr: 0x10000AE14, symSize: 0x3C }
  - { offsetInCU: 0x1CBB8, offset: 0x1CBB8, size: 0x8, addend: 0x0, symName: __ZNSt3__14pairIxxEC2B7v160006IRxxLPv0EEEOT_OT0_, symObjAddr: 0xA608, symBinAddr: 0x10000AE50, symSize: 0x34 }
  - { offsetInCU: 0x1CC16, offset: 0x1CC16, size: 0x8, addend: 0x0, symName: __ZNSt3__111__wrap_iterIPNS_6vectorI5RangeNS_9allocatorIS2_EEEEEmmB7v160006Ev, symObjAddr: 0xA73C, symBinAddr: 0x10000AF84, symSize: 0x20 }
  - { offsetInCU: 0x1CC3C, offset: 0x1CC3C, size: 0x8, addend: 0x0, symName: __ZNSt3__18_IterOpsINS_17_ClassicAlgPolicyEE9iter_swapB7v160006IRNS_11__wrap_iterIPNS_6vectorI5RangeNS_9allocatorIS6_EEEEEESC_EEvOT_OT0_, symObjAddr: 0xA75C, symBinAddr: 0x10000AFA4, symSize: 0x44 }
  - { offsetInCU: 0x1CC7F, offset: 0x1CC7F, size: 0x8, addend: 0x0, symName: __ZNSt3__16vectorI5RangeNS_9allocatorIS1_EEE4swapERS4_, symObjAddr: 0xA81C, symBinAddr: 0x10000B064, symSize: 0x90 }
  - { offsetInCU: 0x1CCB6, offset: 0x1CCB6, size: 0x8, addend: 0x0, symName: __ZNSt3__16vectorINS_4pairIxxEENS_9allocatorIS2_EEE5beginB7v160006Ev, symObjAddr: 0xA8C0, symBinAddr: 0x10000B108, symSize: 0x30 }
  - { offsetInCU: 0x1CCDE, offset: 0x1CCDE, size: 0x8, addend: 0x0, symName: __ZNSt3__16vectorINS_4pairIxxEENS_9allocatorIS2_EEE3endB7v160006Ev, symObjAddr: 0xA8F0, symBinAddr: 0x10000B138, symSize: 0x30 }
  - { offsetInCU: 0x1CD06, offset: 0x1CD06, size: 0x8, addend: 0x0, symName: __ZNKSt3__111__wrap_iterIPNS_4pairIxxEEEdeB7v160006Ev, symObjAddr: 0xA954, symBinAddr: 0x10000B19C, symSize: 0x18 }
  - { offsetInCU: 0x1CD2C, offset: 0x1CD2C, size: 0x8, addend: 0x0, symName: __ZNSt3__111__wrap_iterIPNS_4pairIxxEEEppB7v160006Ev, symObjAddr: 0xA96C, symBinAddr: 0x10000B1B4, symSize: 0x20 }
  - { offsetInCU: 0x1CD52, offset: 0x1CD52, size: 0x8, addend: 0x0, symName: __ZNSt3__16vectorINS_4pairIxxEENS_9allocatorIS2_EEE11__make_iterB7v160006EPS2_, symObjAddr: 0xA98C, symBinAddr: 0x10000B1D4, symSize: 0x34 }
  - { offsetInCU: 0x1CD87, offset: 0x1CD87, size: 0x8, addend: 0x0, symName: __ZNSt3__111__wrap_iterIPNS_4pairIxxEEEC1B7v160006EPKvS3_, symObjAddr: 0xA9C0, symBinAddr: 0x10000B208, symSize: 0x3C }
  - { offsetInCU: 0x1CDCD, offset: 0x1CDCD, size: 0x8, addend: 0x0, symName: __ZNSt3__111__wrap_iterIPNS_4pairIxxEEEC2B7v160006EPKvS3_, symObjAddr: 0xA9FC, symBinAddr: 0x10000B244, symSize: 0x24 }
  - { offsetInCU: 0x1CE13, offset: 0x1CE13, size: 0x8, addend: 0x0, symName: __ZNKSt3__111__wrap_iterIPNS_4pairIxxEEE4baseB7v160006Ev, symObjAddr: 0xAA68, symBinAddr: 0x10000B2B0, symSize: 0x18 }
  - { offsetInCU: 0x1CE39, offset: 0x1CE39, size: 0x8, addend: 0x0, symName: __ZNSt3__16vectorINS_4pairIxxEENS_9allocatorIS2_EEEC2ERKS5_, symObjAddr: 0xAA80, symBinAddr: 0x10000B2C8, symSize: 0x110 }
  - { offsetInCU: 0x1CE98, offset: 0x1CE98, size: 0x8, addend: 0x0, symName: __ZNSt3__116allocator_traitsINS_9allocatorINS_4pairIxxEEEEE37select_on_container_copy_constructionB7v160006IS4_vvEES4_RKS4_, symObjAddr: 0xAB90, symBinAddr: 0x10000B3D8, symSize: 0x10 }
  - { offsetInCU: 0x1CECC, offset: 0x1CECC, size: 0x8, addend: 0x0, symName: __ZNSt3__117__compressed_pairIPNS_4pairIxxEENS_9allocatorIS2_EEEC1B7v160006IDnS5_EEOT_OT0_, symObjAddr: 0xABA0, symBinAddr: 0x10000B3E8, symSize: 0x3C }
  - { offsetInCU: 0x1CF24, offset: 0x1CF24, size: 0x8, addend: 0x0, symName: __ZNSt3__16vectorINS_4pairIxxEENS_9allocatorIS2_EEE16__destroy_vectorC1ERS5_, symObjAddr: 0xAC1C, symBinAddr: 0x10000B464, symSize: 0x34 }
  - { offsetInCU: 0x1CF5D, offset: 0x1CF5D, size: 0x8, addend: 0x0, symName: __ZNSt3__16vectorINS_4pairIxxEENS_9allocatorIS2_EEE11__vallocateB7v160006Em, symObjAddr: 0xAC50, symBinAddr: 0x10000B498, symSize: 0xAC }
  - { offsetInCU: 0x1CFA1, offset: 0x1CFA1, size: 0x8, addend: 0x0, symName: __ZNSt3__16vectorINS_4pairIxxEENS_9allocatorIS2_EEE18__construct_at_endIPS2_Li0EEEvT_S8_m, symObjAddr: 0xACFC, symBinAddr: 0x10000B544, symSize: 0x8C }
  - { offsetInCU: 0x1D014, offset: 0x1D014, size: 0x8, addend: 0x0, symName: __ZNSt3__128__exception_guard_exceptionsINS_6vectorINS_4pairIxxEENS_9allocatorIS3_EEE16__destroy_vectorEE10__completeB7v160006Ev, symObjAddr: 0xAD88, symBinAddr: 0x10000B5D0, symSize: 0x1C }
  - { offsetInCU: 0x1D03A, offset: 0x1D03A, size: 0x8, addend: 0x0, symName: __ZNSt3__128__exception_guard_exceptionsINS_6vectorINS_4pairIxxEENS_9allocatorIS3_EEE16__destroy_vectorEED1B7v160006Ev, symObjAddr: 0xADA4, symBinAddr: 0x10000B5EC, symSize: 0x2C }
  - { offsetInCU: 0x1D064, offset: 0x1D064, size: 0x8, addend: 0x0, symName: __ZNSt3__117__compressed_pairIPNS_4pairIxxEENS_9allocatorIS2_EEEC2B7v160006IDnS5_EEOT_OT0_, symObjAddr: 0xADD0, symBinAddr: 0x10000B618, symSize: 0x44 }
  - { offsetInCU: 0x1D0BC, offset: 0x1D0BC, size: 0x8, addend: 0x0, symName: __ZNSt3__122__compressed_pair_elemINS_9allocatorINS_4pairIxxEEEELi1ELb1EEC2B7v160006IS4_vEEOT_, symObjAddr: 0xAE14, symBinAddr: 0x10000B65C, symSize: 0x18 }
  - { offsetInCU: 0x1D0FE, offset: 0x1D0FE, size: 0x8, addend: 0x0, symName: __ZNSt3__128__exception_guard_exceptionsINS_6vectorINS_4pairIxxEENS_9allocatorIS3_EEE16__destroy_vectorEEC1B7v160006ES7_, symObjAddr: 0xAE2C, symBinAddr: 0x10000B674, symSize: 0x34 }
  - { offsetInCU: 0x1D136, offset: 0x1D136, size: 0x8, addend: 0x0, symName: __ZNSt3__128__exception_guard_exceptionsINS_6vectorINS_4pairIxxEENS_9allocatorIS3_EEE16__destroy_vectorEEC2B7v160006ES7_, symObjAddr: 0xAE60, symBinAddr: 0x10000B6A8, symSize: 0x24 }
  - { offsetInCU: 0x1D16E, offset: 0x1D16E, size: 0x8, addend: 0x0, symName: __ZNSt3__16vectorINS_4pairIxxEENS_9allocatorIS2_EEE16__destroy_vectorC2ERS5_, symObjAddr: 0xAE84, symBinAddr: 0x10000B6CC, symSize: 0x20 }
  - { offsetInCU: 0x1D1A7, offset: 0x1D1A7, size: 0x8, addend: 0x0, symName: __ZNSt3__129_AllocatorDestroyRangeReverseINS_9allocatorINS_4pairIxxEEEEPS3_EC1B7v160006ERS4_RS5_S8_, symObjAddr: 0xAFE4, symBinAddr: 0x10000B82C, symSize: 0x44 }
  - { offsetInCU: 0x1D1FE, offset: 0x1D1FE, size: 0x8, addend: 0x0, symName: __ZNSt3__116allocator_traitsINS_9allocatorINS_4pairIxxEEEEE9constructB7v160006IS3_JRS3_EvEEvRS4_PT_DpOT0_, symObjAddr: 0xB028, symBinAddr: 0x10000B870, symSize: 0x34 }
  - { offsetInCU: 0x1D255, offset: 0x1D255, size: 0x8, addend: 0x0, symName: __ZNSt3__128__exception_guard_exceptionsINS_29_AllocatorDestroyRangeReverseINS_9allocatorINS_4pairIxxEEEEPS4_EEE10__completeB7v160006Ev, symObjAddr: 0xB05C, symBinAddr: 0x10000B8A4, symSize: 0x1C }
  - { offsetInCU: 0x1D27B, offset: 0x1D27B, size: 0x8, addend: 0x0, symName: __ZNSt3__128__exception_guard_exceptionsINS_29_AllocatorDestroyRangeReverseINS_9allocatorINS_4pairIxxEEEEPS4_EEED1B7v160006Ev, symObjAddr: 0xB078, symBinAddr: 0x10000B8C0, symSize: 0x2C }
  - { offsetInCU: 0x1D2A5, offset: 0x1D2A5, size: 0x8, addend: 0x0, symName: __ZNSt3__128__exception_guard_exceptionsINS_29_AllocatorDestroyRangeReverseINS_9allocatorINS_4pairIxxEEEEPS4_EEEC1B7v160006ES7_, symObjAddr: 0xB0A4, symBinAddr: 0x10000B8EC, symSize: 0x34 }
  - { offsetInCU: 0x1D2DE, offset: 0x1D2DE, size: 0x8, addend: 0x0, symName: __ZNSt3__128__exception_guard_exceptionsINS_29_AllocatorDestroyRangeReverseINS_9allocatorINS_4pairIxxEEEEPS4_EEEC2B7v160006ES7_, symObjAddr: 0xB0D8, symBinAddr: 0x10000B920, symSize: 0x30 }
  - { offsetInCU: 0x1D317, offset: 0x1D317, size: 0x8, addend: 0x0, symName: __ZNSt3__129_AllocatorDestroyRangeReverseINS_9allocatorINS_4pairIxxEEEEPS3_EC2B7v160006ERS4_RS5_S8_, symObjAddr: 0xB108, symBinAddr: 0x10000B950, symSize: 0x38 }
  - { offsetInCU: 0x1D36E, offset: 0x1D36E, size: 0x8, addend: 0x0, symName: __ZNSt3__19allocatorINS_4pairIxxEEE9constructB7v160006IS2_JRS2_EEEvPT_DpOT0_, symObjAddr: 0xB140, symBinAddr: 0x10000B988, symSize: 0x28 }
  - { offsetInCU: 0x1D3C4, offset: 0x1D3C4, size: 0x8, addend: 0x0, symName: __ZNSt3__128__exception_guard_exceptionsINS_29_AllocatorDestroyRangeReverseINS_9allocatorINS_4pairIxxEEEEPS4_EEED2B7v160006Ev, symObjAddr: 0xB168, symBinAddr: 0x10000B9B0, symSize: 0x50 }
  - { offsetInCU: 0x1D3EE, offset: 0x1D3EE, size: 0x8, addend: 0x0, symName: __ZNKSt3__129_AllocatorDestroyRangeReverseINS_9allocatorINS_4pairIxxEEEEPS3_EclB7v160006Ev, symObjAddr: 0xB1B8, symBinAddr: 0x10000BA00, symSize: 0x68 }
  - { offsetInCU: 0x1D414, offset: 0x1D414, size: 0x8, addend: 0x0, symName: __ZNSt3__128__exception_guard_exceptionsINS_6vectorINS_4pairIxxEENS_9allocatorIS3_EEE16__destroy_vectorEED2B7v160006Ev, symObjAddr: 0xB290, symBinAddr: 0x10000BAD8, symSize: 0x50 }
  - { offsetInCU: 0x1D43E, offset: 0x1D43E, size: 0x8, addend: 0x0, symName: __ZNSt3__16vectorINS_4pairIxxEENS_9allocatorIS2_EEE16__destroy_vectorclB7v160006Ev, symObjAddr: 0xB2E0, symBinAddr: 0x10000BB28, symSize: 0x9C }
  - { offsetInCU: 0x1D464, offset: 0x1D464, size: 0x8, addend: 0x0, symName: __ZNSt3__16vectorINS_4pairIxxEENS_9allocatorIS2_EEE7__clearB7v160006Ev, symObjAddr: 0xB38C, symBinAddr: 0x10000BBD4, symSize: 0x28 }
  - { offsetInCU: 0x1D48A, offset: 0x1D48A, size: 0x8, addend: 0x0, symName: __ZNSt3__16vectorINS_4pairIxxEENS_9allocatorIS2_EEE22__base_destruct_at_endB7v160006EPS2_, symObjAddr: 0xB3B4, symBinAddr: 0x10000BBFC, symSize: 0x8C }
  - { offsetInCU: 0x1D4CE, offset: 0x1D4CE, size: 0x8, addend: 0x0, symName: __ZNSt3__16vectorINS_4pairIxxEENS_9allocatorIS2_EEED2B7v160006Ev, symObjAddr: 0xB440, symBinAddr: 0x10000BC88, symSize: 0x44 }
  - { offsetInCU: 0x1D4F8, offset: 0x1D4F8, size: 0x8, addend: 0x0, symName: __ZN8SolutionD2Ev, symObjAddr: 0xB484, symBinAddr: 0x10000BCCC, symSize: 0x44 }
  - { offsetInCU: 0x1D524, offset: 0x1D524, size: 0x8, addend: 0x0, symName: __ZNSt3__112basic_stringIcNS_11char_traitsIcEENS_9allocatorIcEEEC2B7v160006Ev, symObjAddr: 0xB4C8, symBinAddr: 0x10000BD10, symSize: 0x54 }
  - { offsetInCU: 0x1D54E, offset: 0x1D54E, size: 0x8, addend: 0x0, symName: __ZNSt3__117__compressed_pairINS_12basic_stringIcNS_11char_traitsIcEENS_9allocatorIcEEE5__repES5_EC1B7v160006INS_18__default_init_tagESA_EEOT_OT0_, symObjAddr: 0xB51C, symBinAddr: 0x10000BD64, symSize: 0x3C }
  - { offsetInCU: 0x1D5A6, offset: 0x1D5A6, size: 0x8, addend: 0x0, symName: __ZNSt3__112basic_stringIcNS_11char_traitsIcEENS_9allocatorIcEEE14__default_initB7v160006Ev, symObjAddr: 0xB568, symBinAddr: 0x10000BDB0, symSize: 0x40 }
  - { offsetInCU: 0x1D5CC, offset: 0x1D5CC, size: 0x8, addend: 0x0, symName: __ZNSt3__117__compressed_pairINS_12basic_stringIcNS_11char_traitsIcEENS_9allocatorIcEEE5__repES5_EC2B7v160006INS_18__default_init_tagESA_EEOT_OT0_, symObjAddr: 0xB5A8, symBinAddr: 0x10000BDF0, symSize: 0x3C }
  - { offsetInCU: 0x1D624, offset: 0x1D624, size: 0x8, addend: 0x0, symName: __ZNSt3__122__compressed_pair_elemINS_12basic_stringIcNS_11char_traitsIcEENS_9allocatorIcEEE5__repELi0ELb0EEC2B7v160006ENS_18__default_init_tagE, symObjAddr: 0xB5E4, symBinAddr: 0x10000BE2C, symSize: 0x14 }
  - { offsetInCU: 0x1D658, offset: 0x1D658, size: 0x8, addend: 0x0, symName: __ZNSt3__122__compressed_pair_elemINS_9allocatorIcEELi1ELb1EEC2B7v160006ENS_18__default_init_tagE, symObjAddr: 0xB5F8, symBinAddr: 0x10000BE40, symSize: 0x2C }
  - { offsetInCU: 0x1D68C, offset: 0x1D68C, size: 0x8, addend: 0x0, symName: __ZNSt3__19allocatorIcEC2B7v160006Ev, symObjAddr: 0xB624, symBinAddr: 0x10000BE6C, symSize: 0x2C }
  - { offsetInCU: 0x1D6B6, offset: 0x1D6B6, size: 0x8, addend: 0x0, symName: __ZNSt3__116__non_trivial_ifILb1ENS_9allocatorIcEEEC2B7v160006Ev, symObjAddr: 0xB650, symBinAddr: 0x10000BE98, symSize: 0x14 }
  - { offsetInCU: 0x1D6E0, offset: 0x1D6E0, size: 0x8, addend: 0x0, symName: __ZNSt3__112basic_stringIcNS_11char_traitsIcEENS_9allocatorIcEEE13__move_assignB7v160006ERS5_NS_17integral_constantIbLb1EEE, symObjAddr: 0xB664, symBinAddr: 0x10000BEAC, symSize: 0xC8 }
  - { offsetInCU: 0x1D722, offset: 0x1D722, size: 0x8, addend: 0x0, symName: __ZNSt3__116allocator_traitsINS_9allocatorIcEEE10deallocateB7v160006ERS2_Pcm, symObjAddr: 0xB72C, symBinAddr: 0x10000BF74, symSize: 0x34 }
  - { offsetInCU: 0x1D764, offset: 0x1D764, size: 0x8, addend: 0x0, symName: __ZNSt3__112basic_stringIcNS_11char_traitsIcEENS_9allocatorIcEEE7__allocB7v160006Ev, symObjAddr: 0xB760, symBinAddr: 0x10000BFA8, symSize: 0x24 }
  - { offsetInCU: 0x1D78A, offset: 0x1D78A, size: 0x8, addend: 0x0, symName: __ZNKSt3__112basic_stringIcNS_11char_traitsIcEENS_9allocatorIcEEE14__get_long_capB7v160006Ev, symObjAddr: 0xB784, symBinAddr: 0x10000BFCC, symSize: 0x30 }
  - { offsetInCU: 0x1D7B0, offset: 0x1D7B0, size: 0x8, addend: 0x0, symName: __ZNSt3__112basic_stringIcNS_11char_traitsIcEENS_9allocatorIcEEE19__move_assign_allocB7v160006ERS5_, symObjAddr: 0xB7B4, symBinAddr: 0x10000BFFC, symSize: 0x2C }
  - { offsetInCU: 0x1D7E5, offset: 0x1D7E5, size: 0x8, addend: 0x0, symName: __ZNSt3__19allocatorIcE10deallocateB7v160006EPcm, symObjAddr: 0xB7E0, symBinAddr: 0x10000C028, symSize: 0x40 }
  - { offsetInCU: 0x1D827, offset: 0x1D827, size: 0x8, addend: 0x0, symName: __ZNSt3__117__compressed_pairINS_12basic_stringIcNS_11char_traitsIcEENS_9allocatorIcEEE5__repES5_E6secondB7v160006Ev, symObjAddr: 0xB820, symBinAddr: 0x10000C068, symSize: 0x24 }
  - { offsetInCU: 0x1D84D, offset: 0x1D84D, size: 0x8, addend: 0x0, symName: __ZNSt3__122__compressed_pair_elemINS_9allocatorIcEELi1ELb1EE5__getB7v160006Ev, symObjAddr: 0xB844, symBinAddr: 0x10000C08C, symSize: 0x14 }
  - { offsetInCU: 0x1D873, offset: 0x1D873, size: 0x8, addend: 0x0, symName: __ZNSt3__112basic_stringIcNS_11char_traitsIcEENS_9allocatorIcEEE19__move_assign_allocB7v160006ERS5_NS_17integral_constantIbLb1EEE, symObjAddr: 0xB858, symBinAddr: 0x10000C0A0, symSize: 0x38 }
  - { offsetInCU: 0x1D8B3, offset: 0x1D8B3, size: 0x8, addend: 0x0, symName: __ZNSt3__16vectorINS_12basic_stringIcNS_11char_traitsIcEENS_9allocatorIcEEEENS4_IS6_EEEC2B7v160006Ev, symObjAddr: 0xB890, symBinAddr: 0x10000C0D8, symSize: 0x58 }
  - { offsetInCU: 0x1D8DD, offset: 0x1D8DD, size: 0x8, addend: 0x0, symName: __ZNSt3__117__compressed_pairIPNS_12basic_stringIcNS_11char_traitsIcEENS_9allocatorIcEEEENS4_IS6_EEEC1B7v160006IDnNS_18__default_init_tagEEEOT_OT0_, symObjAddr: 0xB8E8, symBinAddr: 0x10000C130, symSize: 0x3C }
  - { offsetInCU: 0x1D935, offset: 0x1D935, size: 0x8, addend: 0x0, symName: __ZNSt3__117__compressed_pairIPNS_12basic_stringIcNS_11char_traitsIcEENS_9allocatorIcEEEENS4_IS6_EEEC2B7v160006IDnNS_18__default_init_tagEEEOT_OT0_, symObjAddr: 0xB934, symBinAddr: 0x10000C17C, symSize: 0x40 }
  - { offsetInCU: 0x1D98D, offset: 0x1D98D, size: 0x8, addend: 0x0, symName: __ZNSt3__122__compressed_pair_elemIPNS_12basic_stringIcNS_11char_traitsIcEENS_9allocatorIcEEEELi0ELb0EEC2B7v160006IDnvEEOT_, symObjAddr: 0xB974, symBinAddr: 0x10000C1BC, symSize: 0x1C }
  - { offsetInCU: 0x1D9CF, offset: 0x1D9CF, size: 0x8, addend: 0x0, symName: __ZNSt3__122__compressed_pair_elemINS_9allocatorINS_12basic_stringIcNS_11char_traitsIcEENS1_IcEEEEEELi1ELb1EEC2B7v160006ENS_18__default_init_tagE, symObjAddr: 0xB990, symBinAddr: 0x10000C1D8, symSize: 0x2C }
  - { offsetInCU: 0x1DA03, offset: 0x1DA03, size: 0x8, addend: 0x0, symName: __ZNSt3__19allocatorINS_12basic_stringIcNS_11char_traitsIcEENS0_IcEEEEEC2B7v160006Ev, symObjAddr: 0xB9BC, symBinAddr: 0x10000C204, symSize: 0x2C }
  - { offsetInCU: 0x1DA2D, offset: 0x1DA2D, size: 0x8, addend: 0x0, symName: __ZNSt3__116__non_trivial_ifILb1ENS_9allocatorINS_12basic_stringIcNS_11char_traitsIcEENS1_IcEEEEEEEC2B7v160006Ev, symObjAddr: 0xB9E8, symBinAddr: 0x10000C230, symSize: 0x14 }
  - { offsetInCU: 0x1DA57, offset: 0x1DA57, size: 0x8, addend: 0x0, symName: __ZNSt3__16vectorINS_12basic_stringIcNS_11char_traitsIcEENS_9allocatorIcEEEENS4_IS6_EEED2B7v160006Ev, symObjAddr: 0xB9FC, symBinAddr: 0x10000C244, symSize: 0x44 }
  - { offsetInCU: 0x1DA81, offset: 0x1DA81, size: 0x8, addend: 0x0, symName: __ZNSt3__16vectorINS_12basic_stringIcNS_11char_traitsIcEENS_9allocatorIcEEEENS4_IS6_EEE16__destroy_vectorC1ERS8_, symObjAddr: 0xBA40, symBinAddr: 0x10000C288, symSize: 0x34 }
  - { offsetInCU: 0x1DABA, offset: 0x1DABA, size: 0x8, addend: 0x0, symName: __ZNSt3__16vectorINS_12basic_stringIcNS_11char_traitsIcEENS_9allocatorIcEEEENS4_IS6_EEE16__destroy_vectorclB7v160006Ev, symObjAddr: 0xBA74, symBinAddr: 0x10000C2BC, symSize: 0x9C }
  - { offsetInCU: 0x1DAE0, offset: 0x1DAE0, size: 0x8, addend: 0x0, symName: __ZNSt3__16vectorINS_12basic_stringIcNS_11char_traitsIcEENS_9allocatorIcEEEENS4_IS6_EEE16__destroy_vectorC2ERS8_, symObjAddr: 0xBB10, symBinAddr: 0x10000C358, symSize: 0x20 }
  - { offsetInCU: 0x1DB19, offset: 0x1DB19, size: 0x8, addend: 0x0, symName: __ZNKSt3__16vectorINS_12basic_stringIcNS_11char_traitsIcEENS_9allocatorIcEEEENS4_IS6_EEE17__annotate_deleteB7v160006Ev, symObjAddr: 0xBB30, symBinAddr: 0x10000C378, symSize: 0xD4 }
  - { offsetInCU: 0x1DB3F, offset: 0x1DB3F, size: 0x8, addend: 0x0, symName: __ZNSt3__16vectorINS_12basic_stringIcNS_11char_traitsIcEENS_9allocatorIcEEEENS4_IS6_EEE7__clearB7v160006Ev, symObjAddr: 0xBC14, symBinAddr: 0x10000C45C, symSize: 0x28 }
  - { offsetInCU: 0x1DB65, offset: 0x1DB65, size: 0x8, addend: 0x0, symName: __ZNSt3__116allocator_traitsINS_9allocatorINS_12basic_stringIcNS_11char_traitsIcEENS1_IcEEEEEEE10deallocateB7v160006ERS7_PS6_m, symObjAddr: 0xBC3C, symBinAddr: 0x10000C484, symSize: 0x34 }
  - { offsetInCU: 0x1DBA7, offset: 0x1DBA7, size: 0x8, addend: 0x0, symName: __ZNSt3__16vectorINS_12basic_stringIcNS_11char_traitsIcEENS_9allocatorIcEEEENS4_IS6_EEE7__allocB7v160006Ev, symObjAddr: 0xBC70, symBinAddr: 0x10000C4B8, symSize: 0x28 }
  - { offsetInCU: 0x1DBCD, offset: 0x1DBCD, size: 0x8, addend: 0x0, symName: __ZNKSt3__16vectorINS_12basic_stringIcNS_11char_traitsIcEENS_9allocatorIcEEEENS4_IS6_EEE8capacityB7v160006Ev, symObjAddr: 0xBC98, symBinAddr: 0x10000C4E0, symSize: 0x40 }
  - { offsetInCU: 0x1DBF3, offset: 0x1DBF3, size: 0x8, addend: 0x0, symName: __ZNKSt3__16vectorINS_12basic_stringIcNS_11char_traitsIcEENS_9allocatorIcEEEENS4_IS6_EEE31__annotate_contiguous_containerB7v160006EPKvSA_SA_SA_, symObjAddr: 0xBCD8, symBinAddr: 0x10000C520, symSize: 0x20 }
  - { offsetInCU: 0x1DC45, offset: 0x1DC45, size: 0x8, addend: 0x0, symName: __ZNKSt3__16vectorINS_12basic_stringIcNS_11char_traitsIcEENS_9allocatorIcEEEENS4_IS6_EEE4dataB7v160006Ev, symObjAddr: 0xBCF8, symBinAddr: 0x10000C540, symSize: 0x28 }
  - { offsetInCU: 0x1DC6B, offset: 0x1DC6B, size: 0x8, addend: 0x0, symName: __ZNKSt3__16vectorINS_12basic_stringIcNS_11char_traitsIcEENS_9allocatorIcEEEENS4_IS6_EEE4sizeB7v160006Ev, symObjAddr: 0xBD20, symBinAddr: 0x10000C568, symSize: 0x28 }
  - { offsetInCU: 0x1DC91, offset: 0x1DC91, size: 0x8, addend: 0x0, symName: __ZNSt3__16vectorINS_12basic_stringIcNS_11char_traitsIcEENS_9allocatorIcEEEENS4_IS6_EEE22__base_destruct_at_endB7v160006EPS6_, symObjAddr: 0xBD5C, symBinAddr: 0x10000C5A4, symSize: 0x8C }
  - { offsetInCU: 0x1DCD5, offset: 0x1DCD5, size: 0x8, addend: 0x0, symName: __ZNSt3__116allocator_traitsINS_9allocatorINS_12basic_stringIcNS_11char_traitsIcEENS1_IcEEEEEEE7destroyB7v160006IS6_vEEvRS7_PT_, symObjAddr: 0xBDE8, symBinAddr: 0x10000C630, symSize: 0x2C }
  - { offsetInCU: 0x1DD12, offset: 0x1DD12, size: 0x8, addend: 0x0, symName: __ZNSt3__19allocatorINS_12basic_stringIcNS_11char_traitsIcEENS0_IcEEEEE7destroyB7v160006EPS5_, symObjAddr: 0xBE14, symBinAddr: 0x10000C65C, symSize: 0x28 }
  - { offsetInCU: 0x1DD46, offset: 0x1DD46, size: 0x8, addend: 0x0, symName: __ZNSt3__19allocatorINS_12basic_stringIcNS_11char_traitsIcEENS0_IcEEEEE10deallocateB7v160006EPS5_m, symObjAddr: 0xBE3C, symBinAddr: 0x10000C684, symSize: 0x44 }
  - { offsetInCU: 0x1DD88, offset: 0x1DD88, size: 0x8, addend: 0x0, symName: __ZNSt3__117__compressed_pairIPNS_12basic_stringIcNS_11char_traitsIcEENS_9allocatorIcEEEENS4_IS6_EEE6secondB7v160006Ev, symObjAddr: 0xBE80, symBinAddr: 0x10000C6C8, symSize: 0x24 }
  - { offsetInCU: 0x1DDAE, offset: 0x1DDAE, size: 0x8, addend: 0x0, symName: __ZNSt3__122__compressed_pair_elemINS_9allocatorINS_12basic_stringIcNS_11char_traitsIcEENS1_IcEEEEEELi1ELb1EE5__getB7v160006Ev, symObjAddr: 0xBEA4, symBinAddr: 0x10000C6EC, symSize: 0x14 }
  - { offsetInCU: 0x1DDD4, offset: 0x1DDD4, size: 0x8, addend: 0x0, symName: __ZNKSt3__16vectorINS_12basic_stringIcNS_11char_traitsIcEENS_9allocatorIcEEEENS4_IS6_EEE9__end_capB7v160006Ev, symObjAddr: 0xBEB8, symBinAddr: 0x10000C700, symSize: 0x28 }
  - { offsetInCU: 0x1DDFA, offset: 0x1DDFA, size: 0x8, addend: 0x0, symName: __ZNKSt3__117__compressed_pairIPNS_12basic_stringIcNS_11char_traitsIcEENS_9allocatorIcEEEENS4_IS6_EEE5firstB7v160006Ev, symObjAddr: 0xBEE0, symBinAddr: 0x10000C728, symSize: 0x24 }
  - { offsetInCU: 0x1DE20, offset: 0x1DE20, size: 0x8, addend: 0x0, symName: __ZNKSt3__122__compressed_pair_elemIPNS_12basic_stringIcNS_11char_traitsIcEENS_9allocatorIcEEEELi0ELb0EE5__getB7v160006Ev, symObjAddr: 0xBF04, symBinAddr: 0x10000C74C, symSize: 0x14 }
  - { offsetInCU: 0x1DE46, offset: 0x1DE46, size: 0x8, addend: 0x0, symName: __ZNSt3__111char_traitsIcE4findEPKcmRS2_, symObjAddr: 0xC150, symBinAddr: 0x10000C998, symSize: 0x70 }
  - { offsetInCU: 0x1DE85, offset: 0x1DE85, size: 0x8, addend: 0x0, symName: __ZNSt3__111char_traitsIcE7compareEPKcS3_m, symObjAddr: 0xC1C0, symBinAddr: 0x10000CA08, symSize: 0x6C }
  - { offsetInCU: 0x1DEC4, offset: 0x1DEC4, size: 0x8, addend: 0x0, symName: __ZNSt3__19allocatorIcEC1B7v160006Ev, symObjAddr: 0xC294, symBinAddr: 0x10000CADC, symSize: 0x2C }
  - { offsetInCU: 0x1DEEE, offset: 0x1DEEE, size: 0x8, addend: 0x0, symName: __ZNSt3__16vectorINS_12basic_stringIcNS_11char_traitsIcEENS_9allocatorIcEEEENS4_IS6_EEE9__end_capB7v160006Ev, symObjAddr: 0xC2C0, symBinAddr: 0x10000CB08, symSize: 0x28 }
  - { offsetInCU: 0x1DF14, offset: 0x1DF14, size: 0x8, addend: 0x0, symName: __ZNSt3__16vectorINS_12basic_stringIcNS_11char_traitsIcEENS_9allocatorIcEEEENS4_IS6_EEE22__construct_one_at_endB7v160006IJRKS6_EEEvDpOT_, symObjAddr: 0xC2E8, symBinAddr: 0x10000CB30, symSize: 0x90 }
  - { offsetInCU: 0x1DF63, offset: 0x1DF63, size: 0x8, addend: 0x0, symName: __ZNSt3__16vectorINS_12basic_stringIcNS_11char_traitsIcEENS_9allocatorIcEEEENS4_IS6_EEE21__push_back_slow_pathIRKS6_EEvOT_, symObjAddr: 0xC378, symBinAddr: 0x10000CBC0, symSize: 0xD8 }
  - { offsetInCU: 0x1DFC1, offset: 0x1DFC1, size: 0x8, addend: 0x0, symName: __ZNSt3__117__compressed_pairIPNS_12basic_stringIcNS_11char_traitsIcEENS_9allocatorIcEEEENS4_IS6_EEE5firstB7v160006Ev, symObjAddr: 0xC450, symBinAddr: 0x10000CC98, symSize: 0x24 }
  - { offsetInCU: 0x1DFE7, offset: 0x1DFE7, size: 0x8, addend: 0x0, symName: __ZNSt3__122__compressed_pair_elemIPNS_12basic_stringIcNS_11char_traitsIcEENS_9allocatorIcEEEELi0ELb0EE5__getB7v160006Ev, symObjAddr: 0xC474, symBinAddr: 0x10000CCBC, symSize: 0x14 }
  - { offsetInCU: 0x1E026, offset: 0x1E026, size: 0x8, addend: 0x0, symName: __ZNSt3__16vectorINS_12basic_stringIcNS_11char_traitsIcEENS_9allocatorIcEEEENS4_IS6_EEE21_ConstructTransactionC1B7v160006ERS8_m, symObjAddr: 0xC488, symBinAddr: 0x10000CCD0, symSize: 0x3C }
  - { offsetInCU: 0x1E06E, offset: 0x1E06E, size: 0x8, addend: 0x0, symName: __ZNSt3__116allocator_traitsINS_9allocatorINS_12basic_stringIcNS_11char_traitsIcEENS1_IcEEEEEEE9constructB7v160006IS6_JRKS6_EvEEvRS7_PT_DpOT0_, symObjAddr: 0xC4C4, symBinAddr: 0x10000CD0C, symSize: 0x34 }
  - { offsetInCU: 0x1E0C5, offset: 0x1E0C5, size: 0x8, addend: 0x0, symName: __ZNSt3__16vectorINS_12basic_stringIcNS_11char_traitsIcEENS_9allocatorIcEEEENS4_IS6_EEE21_ConstructTransactionD1B7v160006Ev, symObjAddr: 0xC4F8, symBinAddr: 0x10000CD40, symSize: 0x2C }
  - { offsetInCU: 0x1E0EF, offset: 0x1E0EF, size: 0x8, addend: 0x0, symName: __ZNSt3__16vectorINS_12basic_stringIcNS_11char_traitsIcEENS_9allocatorIcEEEENS4_IS6_EEE21_ConstructTransactionC2B7v160006ERS8_m, symObjAddr: 0xC524, symBinAddr: 0x10000CD6C, symSize: 0x4C }
  - { offsetInCU: 0x1E137, offset: 0x1E137, size: 0x8, addend: 0x0, symName: __ZNSt3__19allocatorINS_12basic_stringIcNS_11char_traitsIcEENS0_IcEEEEE9constructB7v160006IS5_JRKS5_EEEvPT_DpOT0_, symObjAddr: 0xC570, symBinAddr: 0x10000CDB8, symSize: 0x30 }
  - { offsetInCU: 0x1E18D, offset: 0x1E18D, size: 0x8, addend: 0x0, symName: __ZNSt3__16vectorINS_12basic_stringIcNS_11char_traitsIcEENS_9allocatorIcEEEENS4_IS6_EEE21_ConstructTransactionD2B7v160006Ev, symObjAddr: 0xC5A0, symBinAddr: 0x10000CDE8, symSize: 0x20 }
  - { offsetInCU: 0x1E1B7, offset: 0x1E1B7, size: 0x8, addend: 0x0, symName: __ZNKSt3__16vectorINS_12basic_stringIcNS_11char_traitsIcEENS_9allocatorIcEEEENS4_IS6_EEE11__recommendB7v160006Em, symObjAddr: 0xC5C0, symBinAddr: 0x10000CE08, symSize: 0xB4 }
  - { offsetInCU: 0x1E20C, offset: 0x1E20C, size: 0x8, addend: 0x0, symName: __ZNSt3__114__split_bufferINS_12basic_stringIcNS_11char_traitsIcEENS_9allocatorIcEEEERNS4_IS6_EEEC1EmmS8_, symObjAddr: 0xC674, symBinAddr: 0x10000CEBC, symSize: 0x44 }
  - { offsetInCU: 0x1E262, offset: 0x1E262, size: 0x8, addend: 0x0, symName: __ZNSt3__114__split_bufferINS_12basic_stringIcNS_11char_traitsIcEENS_9allocatorIcEEEERNS4_IS6_EEED1Ev, symObjAddr: 0xC7D0, symBinAddr: 0x10000D018, symSize: 0x2C }
  - { offsetInCU: 0x1E28E, offset: 0x1E28E, size: 0x8, addend: 0x0, symName: __ZNKSt3__16vectorINS_12basic_stringIcNS_11char_traitsIcEENS_9allocatorIcEEEENS4_IS6_EEE8max_sizeEv, symObjAddr: 0xC7FC, symBinAddr: 0x10000D044, symSize: 0x60 }
  - { offsetInCU: 0x1E2B6, offset: 0x1E2B6, size: 0x8, addend: 0x0, symName: __ZNKSt3__16vectorINS_12basic_stringIcNS_11char_traitsIcEENS_9allocatorIcEEEENS4_IS6_EEE20__throw_length_errorB7v160006Ev, symObjAddr: 0xC85C, symBinAddr: 0x10000D0A4, symSize: 0x1C }
  - { offsetInCU: 0x1E2E6, offset: 0x1E2E6, size: 0x8, addend: 0x0, symName: __ZNSt3__116allocator_traitsINS_9allocatorINS_12basic_stringIcNS_11char_traitsIcEENS1_IcEEEEEEE8max_sizeB7v160006IS7_vEEmRKS7_, symObjAddr: 0xC878, symBinAddr: 0x10000D0C0, symSize: 0x24 }
  - { offsetInCU: 0x1E314, offset: 0x1E314, size: 0x8, addend: 0x0, symName: __ZNKSt3__16vectorINS_12basic_stringIcNS_11char_traitsIcEENS_9allocatorIcEEEENS4_IS6_EEE7__allocB7v160006Ev, symObjAddr: 0xC89C, symBinAddr: 0x10000D0E4, symSize: 0x28 }
  - { offsetInCU: 0x1E33A, offset: 0x1E33A, size: 0x8, addend: 0x0, symName: __ZNKSt3__19allocatorINS_12basic_stringIcNS_11char_traitsIcEENS0_IcEEEEE8max_sizeB7v160006Ev, symObjAddr: 0xC8C4, symBinAddr: 0x10000D10C, symSize: 0x18 }
  - { offsetInCU: 0x1E360, offset: 0x1E360, size: 0x8, addend: 0x0, symName: __ZNKSt3__117__compressed_pairIPNS_12basic_stringIcNS_11char_traitsIcEENS_9allocatorIcEEEENS4_IS6_EEE6secondB7v160006Ev, symObjAddr: 0xC8DC, symBinAddr: 0x10000D124, symSize: 0x24 }
  - { offsetInCU: 0x1E386, offset: 0x1E386, size: 0x8, addend: 0x0, symName: __ZNKSt3__122__compressed_pair_elemINS_9allocatorINS_12basic_stringIcNS_11char_traitsIcEENS1_IcEEEEEELi1ELb1EE5__getB7v160006Ev, symObjAddr: 0xC900, symBinAddr: 0x10000D148, symSize: 0x14 }
  - { offsetInCU: 0x1E3AC, offset: 0x1E3AC, size: 0x8, addend: 0x0, symName: __ZNSt3__114__split_bufferINS_12basic_stringIcNS_11char_traitsIcEENS_9allocatorIcEEEERNS4_IS6_EEEC2EmmS8_, symObjAddr: 0xC914, symBinAddr: 0x10000D15C, symSize: 0xE0 }
  - { offsetInCU: 0x1E420, offset: 0x1E420, size: 0x8, addend: 0x0, symName: __ZNSt3__117__compressed_pairIPNS_12basic_stringIcNS_11char_traitsIcEENS_9allocatorIcEEEERNS4_IS6_EEEC1B7v160006IDnS9_EEOT_OT0_, symObjAddr: 0xC9F4, symBinAddr: 0x10000D23C, symSize: 0x3C }
  - { offsetInCU: 0x1E478, offset: 0x1E478, size: 0x8, addend: 0x0, symName: __ZNSt3__114__split_bufferINS_12basic_stringIcNS_11char_traitsIcEENS_9allocatorIcEEEERNS4_IS6_EEE7__allocB7v160006Ev, symObjAddr: 0xCA70, symBinAddr: 0x10000D2B8, symSize: 0x28 }
  - { offsetInCU: 0x1E49E, offset: 0x1E49E, size: 0x8, addend: 0x0, symName: __ZNSt3__114__split_bufferINS_12basic_stringIcNS_11char_traitsIcEENS_9allocatorIcEEEERNS4_IS6_EEE9__end_capB7v160006Ev, symObjAddr: 0xCA98, symBinAddr: 0x10000D2E0, symSize: 0x28 }
  - { offsetInCU: 0x1E4C4, offset: 0x1E4C4, size: 0x8, addend: 0x0, symName: __ZNSt3__117__compressed_pairIPNS_12basic_stringIcNS_11char_traitsIcEENS_9allocatorIcEEEERNS4_IS6_EEEC2B7v160006IDnS9_EEOT_OT0_, symObjAddr: 0xCAC0, symBinAddr: 0x10000D308, symSize: 0x48 }
  - { offsetInCU: 0x1E51C, offset: 0x1E51C, size: 0x8, addend: 0x0, symName: __ZNSt3__122__compressed_pair_elemIRNS_9allocatorINS_12basic_stringIcNS_11char_traitsIcEENS1_IcEEEEEELi1ELb0EEC2B7v160006IS8_vEEOT_, symObjAddr: 0xCB08, symBinAddr: 0x10000D350, symSize: 0x20 }
  - { offsetInCU: 0x1E55E, offset: 0x1E55E, size: 0x8, addend: 0x0, symName: __ZNSt3__19allocatorINS_12basic_stringIcNS_11char_traitsIcEENS0_IcEEEEE8allocateB7v160006Em, symObjAddr: 0xCB28, symBinAddr: 0x10000D370, symSize: 0x5C }
  - { offsetInCU: 0x1E592, offset: 0x1E592, size: 0x8, addend: 0x0, symName: __ZNSt3__117__compressed_pairIPNS_12basic_stringIcNS_11char_traitsIcEENS_9allocatorIcEEEERNS4_IS6_EEE6secondB7v160006Ev, symObjAddr: 0xCB84, symBinAddr: 0x10000D3CC, symSize: 0x28 }
  - { offsetInCU: 0x1E5B8, offset: 0x1E5B8, size: 0x8, addend: 0x0, symName: __ZNSt3__122__compressed_pair_elemIRNS_9allocatorINS_12basic_stringIcNS_11char_traitsIcEENS1_IcEEEEEELi1ELb0EE5__getB7v160006Ev, symObjAddr: 0xCBAC, symBinAddr: 0x10000D3F4, symSize: 0x18 }
  - { offsetInCU: 0x1E5DE, offset: 0x1E5DE, size: 0x8, addend: 0x0, symName: __ZNSt3__117__compressed_pairIPNS_12basic_stringIcNS_11char_traitsIcEENS_9allocatorIcEEEERNS4_IS6_EEE5firstB7v160006Ev, symObjAddr: 0xCBC4, symBinAddr: 0x10000D40C, symSize: 0x24 }
  - { offsetInCU: 0x1E604, offset: 0x1E604, size: 0x8, addend: 0x0, symName: __ZNSt3__116reverse_iteratorIPNS_12basic_stringIcNS_11char_traitsIcEENS_9allocatorIcEEEEEC1B7v160006ES7_, symObjAddr: 0xCD14, symBinAddr: 0x10000D55C, symSize: 0x34 }
  - { offsetInCU: 0x1E63C, offset: 0x1E63C, size: 0x8, addend: 0x0, symName: __ZNKSt3__116reverse_iteratorIPNS_12basic_stringIcNS_11char_traitsIcEENS_9allocatorIcEEEEE4baseB7v160006Ev, symObjAddr: 0xCD48, symBinAddr: 0x10000D590, symSize: 0x18 }
  - { offsetInCU: 0x1E662, offset: 0x1E662, size: 0x8, addend: 0x0, symName: __ZNKSt3__16vectorINS_12basic_stringIcNS_11char_traitsIcEENS_9allocatorIcEEEENS4_IS6_EEE14__annotate_newB7v160006Em, symObjAddr: 0xCD9C, symBinAddr: 0x10000D5E4, symSize: 0xC8 }
  - { offsetInCU: 0x1E697, offset: 0x1E697, size: 0x8, addend: 0x0, symName: __ZNSt3__129_AllocatorDestroyRangeReverseINS_9allocatorINS_12basic_stringIcNS_11char_traitsIcEENS1_IcEEEEEENS_16reverse_iteratorIPS6_EEEC1B7v160006ERS7_RSA_SD_, symObjAddr: 0xCEC0, symBinAddr: 0x10000D708, symSize: 0x44 }
  - { offsetInCU: 0x1E6F3, offset: 0x1E6F3, size: 0x8, addend: 0x0, symName: __ZNSt3__116allocator_traitsINS_9allocatorINS_12basic_stringIcNS_11char_traitsIcEENS1_IcEEEEEEE9constructB7v160006IS6_JS6_EvEEvRS7_PT_DpOT0_, symObjAddr: 0xCF4C, symBinAddr: 0x10000D794, symSize: 0x34 }
  - { offsetInCU: 0x1E74A, offset: 0x1E74A, size: 0x8, addend: 0x0, symName: __ZNKSt3__116reverse_iteratorIPNS_12basic_stringIcNS_11char_traitsIcEENS_9allocatorIcEEEEEdeB7v160006Ev, symObjAddr: 0xCFA4, symBinAddr: 0x10000D7EC, symSize: 0x28 }
  - { offsetInCU: 0x1E77E, offset: 0x1E77E, size: 0x8, addend: 0x0, symName: __ZNSt3__116reverse_iteratorIPNS_12basic_stringIcNS_11char_traitsIcEENS_9allocatorIcEEEEEppB7v160006Ev, symObjAddr: 0xCFCC, symBinAddr: 0x10000D814, symSize: 0x20 }
  - { offsetInCU: 0x1E7A4, offset: 0x1E7A4, size: 0x8, addend: 0x0, symName: __ZNSt3__128__exception_guard_exceptionsINS_29_AllocatorDestroyRangeReverseINS_9allocatorINS_12basic_stringIcNS_11char_traitsIcEENS2_IcEEEEEENS_16reverse_iteratorIPS7_EEEEE10__completeB7v160006Ev, symObjAddr: 0xCFEC, symBinAddr: 0x10000D834, symSize: 0x1C }
  - { offsetInCU: 0x1E7CA, offset: 0x1E7CA, size: 0x8, addend: 0x0, symName: __ZNSt3__128__exception_guard_exceptionsINS_29_AllocatorDestroyRangeReverseINS_9allocatorINS_12basic_stringIcNS_11char_traitsIcEENS2_IcEEEEEENS_16reverse_iteratorIPS7_EEEEED1B7v160006Ev, symObjAddr: 0xD008, symBinAddr: 0x10000D850, symSize: 0x2C }
  - { offsetInCU: 0x1E7F4, offset: 0x1E7F4, size: 0x8, addend: 0x0, symName: __ZNSt3__128__exception_guard_exceptionsINS_29_AllocatorDestroyRangeReverseINS_9allocatorINS_12basic_stringIcNS_11char_traitsIcEENS2_IcEEEEEENS_16reverse_iteratorIPS7_EEEEEC1B7v160006ESC_, symObjAddr: 0xD034, symBinAddr: 0x10000D87C, symSize: 0x34 }
  - { offsetInCU: 0x1E82D, offset: 0x1E82D, size: 0x8, addend: 0x0, symName: __ZNSt3__128__exception_guard_exceptionsINS_29_AllocatorDestroyRangeReverseINS_9allocatorINS_12basic_stringIcNS_11char_traitsIcEENS2_IcEEEEEENS_16reverse_iteratorIPS7_EEEEEC2B7v160006ESC_, symObjAddr: 0xD068, symBinAddr: 0x10000D8B0, symSize: 0x30 }
  - { offsetInCU: 0x1E866, offset: 0x1E866, size: 0x8, addend: 0x0, symName: __ZNSt3__129_AllocatorDestroyRangeReverseINS_9allocatorINS_12basic_stringIcNS_11char_traitsIcEENS1_IcEEEEEENS_16reverse_iteratorIPS6_EEEC2B7v160006ERS7_RSA_SD_, symObjAddr: 0xD098, symBinAddr: 0x10000D8E0, symSize: 0x38 }
  - { offsetInCU: 0x1E8BD, offset: 0x1E8BD, size: 0x8, addend: 0x0, symName: __ZNSt3__19allocatorINS_12basic_stringIcNS_11char_traitsIcEENS0_IcEEEEE9constructB7v160006IS5_JS5_EEEvPT_DpOT0_, symObjAddr: 0xD0D0, symBinAddr: 0x10000D918, symSize: 0x30 }
  - { offsetInCU: 0x1E913, offset: 0x1E913, size: 0x8, addend: 0x0, symName: __ZNSt3__112basic_stringIcNS_11char_traitsIcEENS_9allocatorIcEEEC1B7v160006EOS5_, symObjAddr: 0xD100, symBinAddr: 0x10000D948, symSize: 0x34 }
  - { offsetInCU: 0x1E94C, offset: 0x1E94C, size: 0x8, addend: 0x0, symName: __ZNSt3__112basic_stringIcNS_11char_traitsIcEENS_9allocatorIcEEEC2B7v160006EOS5_, symObjAddr: 0xD134, symBinAddr: 0x10000D97C, symSize: 0x80 }
  - { offsetInCU: 0x1E98A, offset: 0x1E98A, size: 0x8, addend: 0x0, symName: __ZNSt3__119__to_address_helperINS_16reverse_iteratorIPNS_12basic_stringIcNS_11char_traitsIcEENS_9allocatorIcEEEEEEvE6__callB7v160006ERKS9_, symObjAddr: 0xD1C8, symBinAddr: 0x10000DA10, symSize: 0x38 }
  - { offsetInCU: 0x1E9AD, offset: 0x1E9AD, size: 0x8, addend: 0x0, symName: __ZNKSt3__116reverse_iteratorIPNS_12basic_stringIcNS_11char_traitsIcEENS_9allocatorIcEEEEEptB7v160006Ev, symObjAddr: 0xD200, symBinAddr: 0x10000DA48, symSize: 0x24 }
  - { offsetInCU: 0x1E9D3, offset: 0x1E9D3, size: 0x8, addend: 0x0, symName: __ZNSt3__128__exception_guard_exceptionsINS_29_AllocatorDestroyRangeReverseINS_9allocatorINS_12basic_stringIcNS_11char_traitsIcEENS2_IcEEEEEENS_16reverse_iteratorIPS7_EEEEED2B7v160006Ev, symObjAddr: 0xD224, symBinAddr: 0x10000DA6C, symSize: 0x50 }
  - { offsetInCU: 0x1E9FD, offset: 0x1E9FD, size: 0x8, addend: 0x0, symName: __ZNKSt3__129_AllocatorDestroyRangeReverseINS_9allocatorINS_12basic_stringIcNS_11char_traitsIcEENS1_IcEEEEEENS_16reverse_iteratorIPS6_EEEclB7v160006Ev, symObjAddr: 0xD274, symBinAddr: 0x10000DABC, symSize: 0xB4 }
  - { offsetInCU: 0x1EA24, offset: 0x1EA24, size: 0x8, addend: 0x0, symName: __ZNSt3__116reverse_iteratorINS0_IPNS_12basic_stringIcNS_11char_traitsIcEENS_9allocatorIcEEEEEEEC1B7v160006ES8_, symObjAddr: 0xD398, symBinAddr: 0x10000DBE0, symSize: 0x3C }
  - { offsetInCU: 0x1EA5C, offset: 0x1EA5C, size: 0x8, addend: 0x0, symName: __ZNSt3__116reverse_iteratorINS0_IPNS_12basic_stringIcNS_11char_traitsIcEENS_9allocatorIcEEEEEEEppB7v160006Ev, symObjAddr: 0xD458, symBinAddr: 0x10000DCA0, symSize: 0x30 }
  - { offsetInCU: 0x1EA82, offset: 0x1EA82, size: 0x8, addend: 0x0, symName: __ZNKSt3__116reverse_iteratorINS0_IPNS_12basic_stringIcNS_11char_traitsIcEENS_9allocatorIcEEEEEEE4baseB7v160006Ev, symObjAddr: 0xD488, symBinAddr: 0x10000DCD0, symSize: 0x24 }
  - { offsetInCU: 0x1EAAD, offset: 0x1EAAD, size: 0x8, addend: 0x0, symName: __ZNSt3__119__to_address_helperINS_16reverse_iteratorINS1_IPNS_12basic_stringIcNS_11char_traitsIcEENS_9allocatorIcEEEEEEEEvE6__callB7v160006ERKSA_, symObjAddr: 0xD4AC, symBinAddr: 0x10000DCF4, symSize: 0x38 }
  - { offsetInCU: 0x1EAD0, offset: 0x1EAD0, size: 0x8, addend: 0x0, symName: __ZNKSt3__116reverse_iteratorINS0_IPNS_12basic_stringIcNS_11char_traitsIcEENS_9allocatorIcEEEEEEEptB7v160006Ev, symObjAddr: 0xD4E4, symBinAddr: 0x10000DD2C, symSize: 0x24 }
  - { offsetInCU: 0x1EAF6, offset: 0x1EAF6, size: 0x8, addend: 0x0, symName: __ZNKSt3__116reverse_iteratorINS0_IPNS_12basic_stringIcNS_11char_traitsIcEENS_9allocatorIcEEEEEEEdeB7v160006Ev, symObjAddr: 0xD508, symBinAddr: 0x10000DD50, symSize: 0x34 }
  - { offsetInCU: 0x1EB2A, offset: 0x1EB2A, size: 0x8, addend: 0x0, symName: __ZNSt3__116reverse_iteratorIPNS_12basic_stringIcNS_11char_traitsIcEENS_9allocatorIcEEEEEmmB7v160006Ev, symObjAddr: 0xD53C, symBinAddr: 0x10000DD84, symSize: 0x20 }
  - { offsetInCU: 0x1EB50, offset: 0x1EB50, size: 0x8, addend: 0x0, symName: __ZNSt3__116reverse_iteratorINS0_IPNS_12basic_stringIcNS_11char_traitsIcEENS_9allocatorIcEEEEEEEC2B7v160006ES8_, symObjAddr: 0xD55C, symBinAddr: 0x10000DDA4, symSize: 0x2C }
  - { offsetInCU: 0x1EB88, offset: 0x1EB88, size: 0x8, addend: 0x0, symName: __ZNSt3__116reverse_iteratorIPNS_12basic_stringIcNS_11char_traitsIcEENS_9allocatorIcEEEEEC2B7v160006ES7_, symObjAddr: 0xD588, symBinAddr: 0x10000DDD0, symSize: 0x28 }
  - { offsetInCU: 0x1EBC0, offset: 0x1EBC0, size: 0x8, addend: 0x0, symName: __ZNSt3__114__split_bufferINS_12basic_stringIcNS_11char_traitsIcEENS_9allocatorIcEEEERNS4_IS6_EEED2Ev, symObjAddr: 0xD5B0, symBinAddr: 0x10000DDF8, symSize: 0x8C }
  - { offsetInCU: 0x1EBEC, offset: 0x1EBEC, size: 0x8, addend: 0x0, symName: __ZNSt3__114__split_bufferINS_12basic_stringIcNS_11char_traitsIcEENS_9allocatorIcEEEERNS4_IS6_EEE5clearB7v160006Ev, symObjAddr: 0xD63C, symBinAddr: 0x10000DE84, symSize: 0x28 }
  - { offsetInCU: 0x1EC12, offset: 0x1EC12, size: 0x8, addend: 0x0, symName: __ZNKSt3__114__split_bufferINS_12basic_stringIcNS_11char_traitsIcEENS_9allocatorIcEEEERNS4_IS6_EEE8capacityB7v160006Ev, symObjAddr: 0xD664, symBinAddr: 0x10000DEAC, symSize: 0x40 }
  - { offsetInCU: 0x1EC38, offset: 0x1EC38, size: 0x8, addend: 0x0, symName: __ZNSt3__114__split_bufferINS_12basic_stringIcNS_11char_traitsIcEENS_9allocatorIcEEEERNS4_IS6_EEE17__destruct_at_endB7v160006EPS6_, symObjAddr: 0xD6A4, symBinAddr: 0x10000DEEC, symSize: 0x2C }
  - { offsetInCU: 0x1EC6C, offset: 0x1EC6C, size: 0x8, addend: 0x0, symName: __ZNSt3__114__split_bufferINS_12basic_stringIcNS_11char_traitsIcEENS_9allocatorIcEEEERNS4_IS6_EEE17__destruct_at_endB7v160006EPS6_NS_17integral_constantIbLb0EEE, symObjAddr: 0xD6D0, symBinAddr: 0x10000DF18, symSize: 0x80 }
  - { offsetInCU: 0x1ECAC, offset: 0x1ECAC, size: 0x8, addend: 0x0, symName: __ZNKSt3__114__split_bufferINS_12basic_stringIcNS_11char_traitsIcEENS_9allocatorIcEEEERNS4_IS6_EEE9__end_capB7v160006Ev, symObjAddr: 0xD750, symBinAddr: 0x10000DF98, symSize: 0x28 }
  - { offsetInCU: 0x1ECD2, offset: 0x1ECD2, size: 0x8, addend: 0x0, symName: __ZNKSt3__117__compressed_pairIPNS_12basic_stringIcNS_11char_traitsIcEENS_9allocatorIcEEEERNS4_IS6_EEE5firstB7v160006Ev, symObjAddr: 0xD778, symBinAddr: 0x10000DFC0, symSize: 0x24 }
  - { offsetInCU: 0x1ECF8, offset: 0x1ECF8, size: 0x8, addend: 0x0, symName: __ZNSt3__16vectorINS_12basic_stringIcNS_11char_traitsIcEENS_9allocatorIcEEEENS4_IS6_EEE22__construct_one_at_endB7v160006IJS6_EEEvDpOT_, symObjAddr: 0xD79C, symBinAddr: 0x10000DFE4, symSize: 0x90 }
  - { offsetInCU: 0x1ED47, offset: 0x1ED47, size: 0x8, addend: 0x0, symName: __ZNSt3__16vectorINS_12basic_stringIcNS_11char_traitsIcEENS_9allocatorIcEEEENS4_IS6_EEE21__push_back_slow_pathIS6_EEvOT_, symObjAddr: 0xD82C, symBinAddr: 0x10000E074, symSize: 0xD8 }
  - { offsetInCU: 0x1EDA5, offset: 0x1EDA5, size: 0x8, addend: 0x0, symName: __ZNSt3__112basic_stringIcNS_11char_traitsIcEENS_9allocatorIcEEEC2B7v160006IDnEEPKc, symObjAddr: 0xD904, symBinAddr: 0x10000E14C, symSize: 0x60 }
  - { offsetInCU: 0x1EE01, offset: 0x1EE01, size: 0x8, addend: 0x0, symName: __ZNKSt3__113basic_ostreamIcNS_11char_traitsIcEEE6sentrycvbB7v160006Ev, symObjAddr: 0xDB50, symBinAddr: 0x10000E398, symSize: 0x1C }
  - { offsetInCU: 0x1EE27, offset: 0x1EE27, size: 0x8, addend: 0x0, symName: __ZNSt3__119ostreambuf_iteratorIcNS_11char_traitsIcEEEC1B7v160006ERNS_13basic_ostreamIcS2_EE, symObjAddr: 0xDDAC, symBinAddr: 0x10000E5F4, symSize: 0x34 }
  - { offsetInCU: 0x1EE5F, offset: 0x1EE5F, size: 0x8, addend: 0x0, symName: __ZNKSt3__18ios_base5flagsB7v160006Ev, symObjAddr: 0xDDE0, symBinAddr: 0x10000E628, symSize: 0x18 }
  - { offsetInCU: 0x1EE87, offset: 0x1EE87, size: 0x8, addend: 0x0, symName: __ZNKSt3__19basic_iosIcNS_11char_traitsIcEEE4fillB7v160006Ev, symObjAddr: 0xDDF8, symBinAddr: 0x10000E640, symSize: 0x64 }
  - { offsetInCU: 0x1EEAF, offset: 0x1EEAF, size: 0x8, addend: 0x0, symName: __ZNKSt3__119ostreambuf_iteratorIcNS_11char_traitsIcEEE6failedB7v160006Ev, symObjAddr: 0xDE5C, symBinAddr: 0x10000E6A4, symSize: 0x24 }
  - { offsetInCU: 0x1EED5, offset: 0x1EED5, size: 0x8, addend: 0x0, symName: __ZNKSt3__18ios_base5widthB7v160006Ev, symObjAddr: 0xDE80, symBinAddr: 0x10000E6C8, symSize: 0x18 }
  - { offsetInCU: 0x1EEFD, offset: 0x1EEFD, size: 0x8, addend: 0x0, symName: __ZNSt3__115basic_streambufIcNS_11char_traitsIcEEE5sputnB7v160006EPKcl, symObjAddr: 0xDE98, symBinAddr: 0x10000E6E0, symSize: 0x3C }
  - { offsetInCU: 0x1EF3F, offset: 0x1EF3F, size: 0x8, addend: 0x0, symName: __ZNSt3__112basic_stringIcNS_11char_traitsIcEENS_9allocatorIcEEEC1B7v160006Emc, symObjAddr: 0xDED4, symBinAddr: 0x10000E71C, symSize: 0x3C }
  - { offsetInCU: 0x1EF87, offset: 0x1EF87, size: 0x8, addend: 0x0, symName: __ZNSt3__18ios_base5widthB7v160006El, symObjAddr: 0xDF10, symBinAddr: 0x10000E758, symSize: 0x2C }
  - { offsetInCU: 0x1EFCD, offset: 0x1EFCD, size: 0x8, addend: 0x0, symName: __ZNSt3__112basic_stringIcNS_11char_traitsIcEENS_9allocatorIcEEEC2B7v160006Emc, symObjAddr: 0xDF3C, symBinAddr: 0x10000E784, symSize: 0x54 }
  - { offsetInCU: 0x1F015, offset: 0x1F015, size: 0x8, addend: 0x0, symName: __ZNSt3__119ostreambuf_iteratorIcNS_11char_traitsIcEEEC2B7v160006ERNS_13basic_ostreamIcS2_EE, symObjAddr: 0xDF90, symBinAddr: 0x10000E7D8, symSize: 0x54 }
...
